---
triple:          'arm64-apple-darwin'
binary-path:     test.bin
relocations:
  - { offset: 0xA2, size: 0x8, addend: 0x0, symName: __RNvMs6_NtCs7QfUfi8dEu5_5alloc5boxedINtB5_3BoxINtNtB7_3vec3VecmEE8into_rawCscyhnFvndzWk_11ffi_c_tests, symObjAddr: 0x0, symBinAddr: 0x1000008BC, symSize: 0x14 }
  - { offset: 0xBE, size: 0x8, addend: 0x0, symName: __RNvMs6_NtCs7QfUfi8dEu5_5alloc5boxedINtB5_3BoxINtNtB7_3vec3VecmEE8into_rawCscyhnFvndzWk_11ffi_c_tests, symObjAddr: 0x0, symBinAddr: 0x1000008BC, symSize: 0x14 }
  - { offset: 0xF5, size: 0x8, addend: 0x0, symName: __RNvMs6_NtCs7QfUfi8dEu5_5alloc5boxedINtB5_3BoxINtNtCscyhnFvndzWk_11ffi_c_tests8generics7GenericuEE8from_rawBM_, symObjAddr: 0x14, symBinAddr: 0x1000008D0, symSize: 0x3C }
  - { offset: 0x18D, size: 0x8, addend: 0x0, symName: __RNvMs6_NtCs7QfUfi8dEu5_5alloc5boxedINtB5_3BoxINtNtCscyhnFvndzWk_11ffi_c_tests8generics7GenericyEE8into_rawBM_, symObjAddr: 0x50, symBinAddr: 0x10000090C, symSize: 0x14 }
  - { offset: 0x1C4, size: 0x8, addend: 0x0, symName: __RNvMs6_NtCs7QfUfi8dEu5_5alloc5boxedINtB5_3BoxNtNtCscyhnFvndzWk_11ffi_c_tests7structs18DeallocationStructE8from_rawBL_, symObjAddr: 0x64, symBinAddr: 0x100000920, symSize: 0x3C }
  - { offset: 0x25C, size: 0x8, addend: 0x0, symName: __RNvMs6_NtCs7QfUfi8dEu5_5alloc5boxedINtB5_3BoxNtNtCscyhnFvndzWk_11ffi_c_tests7structs18DeallocationStructE8into_rawBL_, symObjAddr: 0xA0, symBinAddr: 0x10000095C, symSize: 0x14 }
  - { offset: 0x293, size: 0x8, addend: 0x0, symName: __RNvMs6_NtCs7QfUfi8dEu5_5alloc5boxedINtB5_3BoxNtNtCscyhnFvndzWk_11ffi_c_tests7structs3CarE8from_rawBL_, symObjAddr: 0xB4, symBinAddr: 0x100000970, symSize: 0x3C }
  - { offset: 0x32B, size: 0x8, addend: 0x0, symName: __RNvMs6_NtCs7QfUfi8dEu5_5alloc5boxedINtB5_3BoxNtNtCscyhnFvndzWk_11ffi_c_tests7structs3CarE8into_rawBL_, symObjAddr: 0xF0, symBinAddr: 0x1000009AC, symSize: 0x14 }
  - { offset: 0x362, size: 0x8, addend: 0x0, symName: __RNvMs6_NtCs7QfUfi8dEu5_5alloc5boxedINtB5_3BoxNtNtCscyhnFvndzWk_11ffi_c_tests8funcions12SimpleStructE8from_rawBL_, symObjAddr: 0x104, symBinAddr: 0x1000009C0, symSize: 0x3C }
  - { offset: 0x3FA, size: 0x8, addend: 0x0, symName: __RNvMs6_NtCs7QfUfi8dEu5_5alloc5boxedINtB5_3BoxNtNtCscyhnFvndzWk_11ffi_c_tests8funcions12SimpleStructE8into_rawBL_, symObjAddr: 0x140, symBinAddr: 0x1000009FC, symSize: 0x14 }
  - { offset: 0xD38, size: 0x8, addend: 0x0, symName: __RNvMs6_NtCs7QfUfi8dEu5_5alloc2rcINtB5_2RcuE9drop_slowCscyhnFvndzWk_11ffi_c_tests, symObjAddr: 0x0, symBinAddr: 0x100000A10, symSize: 0x44 }
  - { offset: 0xE77, size: 0x8, addend: 0x0, symName: __RNvYINtNtCs7QfUfi8dEu5_5alloc2rc7RcInneruENtB5_10RcInnerPtr10inc_strongCscyhnFvndzWk_11ffi_c_tests, symObjAddr: 0x134, symBinAddr: 0x100000B44, symSize: 0x9C }
  - { offset: 0xF99, size: 0x8, addend: 0x0, symName: __RNvYINtNtCs7QfUfi8dEu5_5alloc2rc7RcInneruENtB5_10RcInnerPtr6strongCscyhnFvndzWk_11ffi_c_tests, symObjAddr: 0x1D0, symBinAddr: 0x100000BE0, symSize: 0x28 }
  - { offset: 0xFF4, size: 0x8, addend: 0x0, symName: __RNvXsx_NtCs7QfUfi8dEu5_5alloc2rcINtB5_2RcuENtNtCs5FIOKSViJ8s_4core5clone5Clone5cloneCscyhnFvndzWk_11ffi_c_tests, symObjAddr: 0xEC, symBinAddr: 0x100000AFC, symSize: 0x48 }
  - { offset: 0x13BC, size: 0x8, addend: 0x0, symName: __RNvMs6_NtCs7QfUfi8dEu5_5alloc2rcINtB5_2RcuE9drop_slowCscyhnFvndzWk_11ffi_c_tests, symObjAddr: 0x0, symBinAddr: 0x100000A10, symSize: 0x44 }
  - { offset: 0x148D, size: 0x8, addend: 0x0, symName: __RNvMs7_NtCs7QfUfi8dEu5_5alloc2rcINtB5_2RcuE3newCscyhnFvndzWk_11ffi_c_tests, symObjAddr: 0x44, symBinAddr: 0x100000A54, symSize: 0x8C }
  - { offset: 0x1633, size: 0x8, addend: 0x0, symName: __RNvMsg_NtCs7QfUfi8dEu5_5alloc2rcINtB5_2RcuE12strong_countCscyhnFvndzWk_11ffi_c_tests, symObjAddr: 0xD0, symBinAddr: 0x100000AE0, symSize: 0x1C }
  - { offset: 0x1799, size: 0x8, addend: 0x0, symName: __RNvXs0_NtCs5FIOKSViJ8s_4core5allocRNtNtCs7QfUfi8dEu5_5alloc5alloc6GlobalNtB5_9Allocator10deallocateCscyhnFvndzWk_11ffi_c_tests, symObjAddr: 0x0, symBinAddr: 0x100000C08, symSize: 0x38 }
  - { offset: 0x1A67, size: 0x8, addend: 0x0, symName: __RNvXs0_NtCs5FIOKSViJ8s_4core5allocRNtNtCs7QfUfi8dEu5_5alloc5alloc6GlobalNtB5_9Allocator10deallocateCscyhnFvndzWk_11ffi_c_tests, symObjAddr: 0x0, symBinAddr: 0x100000C08, symSize: 0x38 }
  - { offset: 0x1B7A, size: 0x8, addend: 0x0, symName: __RNvXs_NtNtCsfu4ZaJS2nTm_5ezffi9std_impls3vecNtB4_8EzFfiVecINtB8_8IntoRustINtNtCs7QfUfi8dEu5_5alloc3vec3VecmEE13into_rust_mutCscyhnFvndzWk_11ffi_c_tests, symObjAddr: 0x0, symBinAddr: 0x100000C40, symSize: 0xA8 }
  - { offset: 0x1C6B, size: 0x8, addend: 0x0, symName: __RNvXs_NtNtCsfu4ZaJS2nTm_5ezffi9std_impls3vecNtB4_8EzFfiVecINtB8_8IntoRustINtNtCs7QfUfi8dEu5_5alloc3vec3VecmEE13into_rust_mutCscyhnFvndzWk_11ffi_c_tests, symObjAddr: 0x0, symBinAddr: 0x100000C40, symSize: 0xA8 }
  - { offset: 0x1CA0, size: 0x8, addend: 0x0, symName: __RNvXs_NtNtCsfu4ZaJS2nTm_5ezffi9std_impls3vecNtB4_8EzFfiVecINtB8_8IntoRustINtNtCs7QfUfi8dEu5_5alloc3vec3VecmEE9into_rustCscyhnFvndzWk_11ffi_c_tests, symObjAddr: 0xA8, symBinAddr: 0x100000CE8, symSize: 0xA8 }
  - { offset: 0x1E30, size: 0x8, addend: 0x0, symName: __RNvMNtCs7QfUfi8dEu5_5alloc5allocNtB2_6Global18alloc_impl_runtimeCscyhnFvndzWk_11ffi_c_tests, symObjAddr: 0x0, symBinAddr: 0x100000D90, symSize: 0x184 }
  - { offset: 0x296B, size: 0x8, addend: 0x0, symName: __RNvXs2_NtCs7QfUfi8dEu5_5alloc5allocNtB5_6GlobalNtNtCs5FIOKSViJ8s_4core5clone5Clone5cloneCscyhnFvndzWk_11ffi_c_tests, symObjAddr: 0x184, symBinAddr: 0x100000F14, symSize: 0x10 }
  - { offset: 0x29BC, size: 0x8, addend: 0x0, symName: __RNvXs_NtCs7QfUfi8dEu5_5alloc5allocNtB4_6GlobalNtNtCs5FIOKSViJ8s_4core5alloc9Allocator10deallocateCscyhnFvndzWk_11ffi_c_tests, symObjAddr: 0x194, symBinAddr: 0x100000F24, symSize: 0x50 }
  - { offset: 0x2AEF, size: 0x8, addend: 0x0, symName: __RNvMNtCs7QfUfi8dEu5_5alloc5allocNtB2_6Global18alloc_impl_runtimeCscyhnFvndzWk_11ffi_c_tests, symObjAddr: 0x0, symBinAddr: 0x100000D90, symSize: 0x184 }
  - { offset: 0x2EDC, size: 0x8, addend: 0x0, symName: __RNvXs0_NtNtCs5FIOKSViJ8s_4core5slice5indexjINtB5_10SliceIndexSmE5indexCscyhnFvndzWk_11ffi_c_tests, symObjAddr: 0x0, symBinAddr: 0x100000F74, symSize: 0x5C }
  - { offset: 0x2EFD, size: 0x8, addend: 0x0, symName: __RNvXs0_NtNtCs5FIOKSViJ8s_4core5slice5indexjINtB5_10SliceIndexSmE5indexCscyhnFvndzWk_11ffi_c_tests, symObjAddr: 0x0, symBinAddr: 0x100000F74, symSize: 0x5C }
  - { offset: 0x2FA7, size: 0x8, addend: 0x0, symName: __RNvNvNtCs5FIOKSViJ8s_4core4hint16assert_unchecked18precondition_checkCscyhnFvndzWk_11ffi_c_tests, symObjAddr: 0x0, symBinAddr: 0x100000FD0, symSize: 0x58 }
  - { offset: 0x2FC3, size: 0x8, addend: 0x0, symName: __RNvNvNtCs5FIOKSViJ8s_4core4hint16assert_unchecked18precondition_checkCscyhnFvndzWk_11ffi_c_tests, symObjAddr: 0x0, symBinAddr: 0x100000FD0, symSize: 0x58 }
  - { offset: 0x3065, size: 0x8, addend: 0x0, symName: __RINvNtCs5FIOKSViJ8s_4core3ptr13drop_in_placeINtNtCs7QfUfi8dEu5_5alloc2rc2RcuEECscyhnFvndzWk_11ffi_c_tests, symObjAddr: 0x0, symBinAddr: 0x100001028, symSize: 0x24 }
  - { offset: 0x359A, size: 0x8, addend: 0x0, symName: __RINvNtCs5FIOKSViJ8s_4core3ptr13drop_in_placeINtNtCs7QfUfi8dEu5_5alloc2rc2RcuEECscyhnFvndzWk_11ffi_c_tests, symObjAddr: 0x0, symBinAddr: 0x100001028, symSize: 0x24 }
  - { offset: 0x35C9, size: 0x8, addend: 0x0, symName: __RINvNtCs5FIOKSViJ8s_4core3ptr13drop_in_placeINtNtCs7QfUfi8dEu5_5alloc2rc4WeakuRNtNtBL_5alloc6GlobalEECscyhnFvndzWk_11ffi_c_tests, symObjAddr: 0x24, symBinAddr: 0x10000104C, symSize: 0x24 }
  - { offset: 0x35F8, size: 0x8, addend: 0x0, symName: __RINvNtCs5FIOKSViJ8s_4core3ptr13drop_in_placeINtNtCs7QfUfi8dEu5_5alloc3vec3VecmEECscyhnFvndzWk_11ffi_c_tests, symObjAddr: 0x48, symBinAddr: 0x100001070, symSize: 0x5C }
  - { offset: 0x3627, size: 0x8, addend: 0x0, symName: __RINvNtCs5FIOKSViJ8s_4core3ptr13drop_in_placeINtNtCs7QfUfi8dEu5_5alloc5boxed3BoxINtNtCscyhnFvndzWk_11ffi_c_tests8generics7GenericuEEEB1k_, symObjAddr: 0xA4, symBinAddr: 0x1000010CC, symSize: 0x2C }
  - { offset: 0x3656, size: 0x8, addend: 0x0, symName: __RINvNtCs5FIOKSViJ8s_4core3ptr13drop_in_placeINtNtCs7QfUfi8dEu5_5alloc5boxed3BoxNtNtCscyhnFvndzWk_11ffi_c_tests7structs18DeallocationStructEEB1j_, symObjAddr: 0xD0, symBinAddr: 0x1000010F8, symSize: 0x60 }
  - { offset: 0x3685, size: 0x8, addend: 0x0, symName: __RINvNtCs5FIOKSViJ8s_4core3ptr13drop_in_placeINtNtCs7QfUfi8dEu5_5alloc5boxed3BoxNtNtCscyhnFvndzWk_11ffi_c_tests7structs3CarEEB1j_, symObjAddr: 0x130, symBinAddr: 0x100001158, symSize: 0x2C }
  - { offset: 0x36B4, size: 0x8, addend: 0x0, symName: __RINvNtCs5FIOKSViJ8s_4core3ptr13drop_in_placeINtNtCs7QfUfi8dEu5_5alloc5boxed3BoxNtNtCscyhnFvndzWk_11ffi_c_tests8funcions12SimpleStructEEB1j_, symObjAddr: 0x15C, symBinAddr: 0x100001184, symSize: 0x2C }
  - { offset: 0x36E3, size: 0x8, addend: 0x0, symName: __RINvNtCs5FIOKSViJ8s_4core3ptr13drop_in_placeINtNtCs7QfUfi8dEu5_5alloc7raw_vec6RawVecmEECscyhnFvndzWk_11ffi_c_tests, symObjAddr: 0x188, symBinAddr: 0x1000011B0, symSize: 0x24 }
  - { offset: 0x3712, size: 0x8, addend: 0x0, symName: __RINvNtCs5FIOKSViJ8s_4core3ptr13drop_in_placeNtNtCscyhnFvndzWk_11ffi_c_tests7structs18DeallocationStructEBK_, symObjAddr: 0x1AC, symBinAddr: 0x1000011D4, symSize: 0x24 }
  - { offset: 0x3DD0, size: 0x8, addend: 0x0, symName: __RNvXs1_NtCs7QfUfi8dEu5_5alloc7raw_vecINtB5_6RawVecmENtNtNtCs5FIOKSViJ8s_4core3ops4drop4Drop4dropCscyhnFvndzWk_11ffi_c_tests, symObjAddr: 0x1D0, symBinAddr: 0x1000011F8, symSize: 0x30 }
  - { offset: 0x4069, size: 0x8, addend: 0x0, symName: __RNvXs1c_NtCs7QfUfi8dEu5_5alloc2rcINtB6_4WeakuRNtNtB8_5alloc6GlobalENtNtNtCs5FIOKSViJ8s_4core3ops4drop4Drop4dropCscyhnFvndzWk_11ffi_c_tests, symObjAddr: 0x200, symBinAddr: 0x100001228, symSize: 0x14C }
  - { offset: 0x435F, size: 0x8, addend: 0x0, symName: __RNvXsw_NtCs7QfUfi8dEu5_5alloc2rcINtB5_2RcuENtNtNtCs5FIOKSViJ8s_4core3ops4drop4Drop4dropCscyhnFvndzWk_11ffi_c_tests, symObjAddr: 0x6A0, symBinAddr: 0x1000016C8, symSize: 0x68 }
  - { offset: 0x453D, size: 0x8, addend: 0x0, symName: __RNvXs8_NtCs7QfUfi8dEu5_5alloc5boxedINtB5_3BoxINtNtCscyhnFvndzWk_11ffi_c_tests8generics7GenericuEENtNtNtCs5FIOKSViJ8s_4core3ops4drop4Drop4dropBM_, symObjAddr: 0x34C, symBinAddr: 0x100001374, symSize: 0xCC }
  - { offset: 0x46CB, size: 0x8, addend: 0x0, symName: __RNvXs8_NtCs7QfUfi8dEu5_5alloc5boxedINtB5_3BoxNtNtCscyhnFvndzWk_11ffi_c_tests7structs18DeallocationStructENtNtNtCs5FIOKSViJ8s_4core3ops4drop4Drop4dropBL_, symObjAddr: 0x418, symBinAddr: 0x100001440, symSize: 0xCC }
  - { offset: 0x4859, size: 0x8, addend: 0x0, symName: __RNvXs8_NtCs7QfUfi8dEu5_5alloc5boxedINtB5_3BoxNtNtCscyhnFvndzWk_11ffi_c_tests7structs3CarENtNtNtCs5FIOKSViJ8s_4core3ops4drop4Drop4dropBL_, symObjAddr: 0x4E4, symBinAddr: 0x10000150C, symSize: 0xCC }
  - { offset: 0x49E7, size: 0x8, addend: 0x0, symName: __RNvXs8_NtCs7QfUfi8dEu5_5alloc5boxedINtB5_3BoxNtNtCscyhnFvndzWk_11ffi_c_tests8funcions12SimpleStructENtNtNtCs5FIOKSViJ8s_4core3ops4drop4Drop4dropBL_, symObjAddr: 0x5B0, symBinAddr: 0x1000015D8, symSize: 0xCC }
  - { offset: 0x4BDC, size: 0x8, addend: 0x0, symName: __RNvXso_NtCs7QfUfi8dEu5_5alloc3vecINtB5_3VecmENtNtNtCs5FIOKSViJ8s_4core3ops4drop4Drop4dropCscyhnFvndzWk_11ffi_c_tests, symObjAddr: 0x67C, symBinAddr: 0x1000016A4, symSize: 0x24 }
  - { offset: 0x5514, size: 0x8, addend: 0x0, symName: __RNvMs4_NtCs5FIOKSViJ8s_4core3fmtNtB5_9Arguments8from_strCscyhnFvndzWk_11ffi_c_tests, symObjAddr: 0x0, symBinAddr: 0x100001730, symSize: 0x20 }
  - { offset: 0x584A, size: 0x8, addend: 0x0, symName: __RNvMs4_NtCs5FIOKSViJ8s_4core3fmtNtB5_9Arguments8from_strCscyhnFvndzWk_11ffi_c_tests, symObjAddr: 0x0, symBinAddr: 0x100001730, symSize: 0x20 }
  - { offset: 0x588B, size: 0x8, addend: 0x0, symName: __RNvMsF_NtCs7QfUfi8dEu5_5alloc3vecINtB5_3VecmE4pushCscyhnFvndzWk_11ffi_c_tests, symObjAddr: 0x0, symBinAddr: 0x100001750, symSize: 0x28 }
  - { offset: 0x5BE1, size: 0x8, addend: 0x0, symName: __RNvXsc_NtCs7QfUfi8dEu5_5alloc3vecINtB5_3VecmEINtNtNtCs5FIOKSViJ8s_4core3ops5index5IndexjE5indexCscyhnFvndzWk_11ffi_c_tests, symObjAddr: 0x198, symBinAddr: 0x1000018E8, symSize: 0x44 }
  - { offset: 0x5EA8, size: 0x8, addend: 0x0, symName: __RNvMsF_NtCs7QfUfi8dEu5_5alloc3vecINtB5_3VecmE4pushCscyhnFvndzWk_11ffi_c_tests, symObjAddr: 0x0, symBinAddr: 0x100001750, symSize: 0x28 }
  - { offset: 0x600D, size: 0x8, addend: 0x0, symName: __RNvMsF_NtCs7QfUfi8dEu5_5alloc3vecINtB5_3VecmE8push_mutCscyhnFvndzWk_11ffi_c_tests, symObjAddr: 0x28, symBinAddr: 0x100001778, symSize: 0xCC }
  - { offset: 0x619C, size: 0x8, addend: 0x0, symName: __RNvMs_NtCs7QfUfi8dEu5_5alloc3vecINtB4_3VecmE3lenCscyhnFvndzWk_11ffi_c_tests, symObjAddr: 0xF4, symBinAddr: 0x100001844, symSize: 0x18 }
  - { offset: 0x61FF, size: 0x8, addend: 0x0, symName: __RNvXNtNtCsfu4ZaJS2nTm_5ezffi9std_impls3vecINtNtCs7QfUfi8dEu5_5alloc3vec3VecmEINtB6_7IntoFfimE14owned_into_ffiCscyhnFvndzWk_11ffi_c_tests, symObjAddr: 0x10C, symBinAddr: 0x10000185C, symSize: 0x8C }
  - { offset: 0x63A3, size: 0x8, addend: 0x0, symName: __RNvNvMs1_NtNtCs5FIOKSViJ8s_4core3ptr8non_nullINtB7_7NonNullpE13new_unchecked18precondition_checkCscyhnFvndzWk_11ffi_c_tests, symObjAddr: 0x0, symBinAddr: 0x10000192C, symSize: 0x58 }
  - { offset: 0x63C9, size: 0x8, addend: 0x0, symName: __RNvNvMs1_NtNtCs5FIOKSViJ8s_4core3ptr8non_nullINtB7_7NonNullpE13new_unchecked18precondition_checkCscyhnFvndzWk_11ffi_c_tests, symObjAddr: 0x0, symBinAddr: 0x10000192C, symSize: 0x58 }
  - { offset: 0x647A, size: 0x8, addend: 0x0, symName: __RNvMs3_NtCs7QfUfi8dEu5_5alloc7raw_vecINtB5_6RawVecmE8grow_oneCscyhnFvndzWk_11ffi_c_tests, symObjAddr: 0x0, symBinAddr: 0x100001984, symSize: 0x84 }
  - { offset: 0x69CE, size: 0x8, addend: 0x0, symName: __RNvMs3_NtCs7QfUfi8dEu5_5alloc7raw_vecINtB5_6RawVecmE8grow_oneCscyhnFvndzWk_11ffi_c_tests, symObjAddr: 0x0, symBinAddr: 0x100001984, symSize: 0x84 }
  - { offset: 0x6A57, size: 0x8, addend: 0x0, symName: __RNvNtCscyhnFvndzWk_11ffi_c_tests3vec10create_vec, symObjAddr: 0x0, symBinAddr: 0x100001A08, symSize: 0x158 }
  - { offset: 0x7153, size: 0x8, addend: 0x0, symName: __RNvNtCscyhnFvndzWk_11ffi_c_tests3vec10create_vec, symObjAddr: 0x0, symBinAddr: 0x100001A08, symSize: 0x158 }
  - { offset: 0x7354, size: 0x8, addend: 0x0, symName: __RNvNtCscyhnFvndzWk_11ffi_c_tests3vec11add_element, symObjAddr: 0x158, symBinAddr: 0x100001B60, symSize: 0x28 }
  - { offset: 0x738A, size: 0x8, addend: 0x0, symName: __RNvNtCscyhnFvndzWk_11ffi_c_tests3vec11get_element, symObjAddr: 0x180, symBinAddr: 0x100001B88, symSize: 0x34 }
  - { offset: 0x73C4, size: 0x8, addend: 0x0, symName: __RNvNtCscyhnFvndzWk_11ffi_c_tests3vec14count_elements, symObjAddr: 0x1B4, symBinAddr: 0x100001BBC, symSize: 0x24 }
  - { offset: 0x73F0, size: 0x8, addend: 0x0, symName: _ffi_add_element, symObjAddr: 0x1D8, symBinAddr: 0x100001BE0, symSize: 0x9C }
  - { offset: 0x7454, size: 0x8, addend: 0x0, symName: _ffi_count_elements, symObjAddr: 0x274, symBinAddr: 0x100001C7C, symSize: 0x9C }
  - { offset: 0x74AE, size: 0x8, addend: 0x0, symName: _ffi_create_vec, symObjAddr: 0x310, symBinAddr: 0x100001D18, symSize: 0x78 }
  - { offset: 0x74DD, size: 0x8, addend: 0x0, symName: _ffi_get_element, symObjAddr: 0x388, symBinAddr: 0x100001D90, symSize: 0xA8 }
  - { offset: 0x75E6, size: 0x8, addend: 0x0, symName: __RNvNvMs_NtCs7QfUfi8dEu5_5alloc3vecINtB6_3VecppE17from_raw_parts_in18precondition_checkCscyhnFvndzWk_11ffi_c_tests, symObjAddr: 0x0, symBinAddr: 0x100001E38, symSize: 0x60 }
  - { offset: 0x7607, size: 0x8, addend: 0x0, symName: __RNvNvMs_NtCs7QfUfi8dEu5_5alloc3vecINtB6_3VecppE17from_raw_parts_in18precondition_checkCscyhnFvndzWk_11ffi_c_tests, symObjAddr: 0x0, symBinAddr: 0x100001E38, symSize: 0x60 }
  - { offset: 0x76B1, size: 0x8, addend: 0x0, symName: __RNvNvMNtNtCs5FIOKSViJ8s_4core3mem9alignmentNtB4_9Alignment13new_unchecked18precondition_checkCscyhnFvndzWk_11ffi_c_tests, symObjAddr: 0x0, symBinAddr: 0x100001E98, symSize: 0x70 }
  - { offset: 0x771D, size: 0x8, addend: 0x0, symName: __RNvNvMNtNtCs5FIOKSViJ8s_4core3mem9alignmentNtB4_9Alignment13new_unchecked18precondition_checkCscyhnFvndzWk_11ffi_c_tests, symObjAddr: 0x0, symBinAddr: 0x100001E98, symSize: 0x70 }
  - { offset: 0x7803, size: 0x8, addend: 0x0, symName: __RNvNvMNtNtCs5FIOKSViJ8s_4core5alloc6layoutNtB4_6Layout29from_size_alignment_unchecked18precondition_checkCscyhnFvndzWk_11ffi_c_tests, symObjAddr: 0x0, symBinAddr: 0x100001F08, symSize: 0x68 }
  - { offset: 0x7B2B, size: 0x8, addend: 0x0, symName: __RNvNvMNtNtCs5FIOKSViJ8s_4core5alloc6layoutNtB4_6Layout29from_size_alignment_unchecked18precondition_checkCscyhnFvndzWk_11ffi_c_tests, symObjAddr: 0x0, symBinAddr: 0x100001F08, symSize: 0x68 }
  - { offset: 0x7C40, size: 0x8, addend: 0x0, symName: __RNvNtCs7QfUfi8dEu5_5alloc5boxed14box_new_uninitCscyhnFvndzWk_11ffi_c_tests, symObjAddr: 0x0, symBinAddr: 0x100001F70, symSize: 0x84 }
  - { offset: 0x805A, size: 0x8, addend: 0x0, symName: __RNvNtCs7QfUfi8dEu5_5alloc5boxed14box_new_uninitCscyhnFvndzWk_11ffi_c_tests, symObjAddr: 0x0, symBinAddr: 0x100001F70, symSize: 0x84 }
  - { offset: 0x817C, size: 0x8, addend: 0x0, symName: __RINvNtCs5FIOKSViJ8s_4core3ptr13drop_in_placeINtNtCs7QfUfi8dEu5_5alloc3vec3VechEECsfu4ZaJS2nTm_5ezffi, symObjAddr: 0x0, symBinAddr: 0x100002008, symSize: 0x5C }
  - { offset: 0x8537, size: 0x8, addend: 0x0, symName: __RINvNtCs5FIOKSViJ8s_4core3ptr13drop_in_placeINtNtCs7QfUfi8dEu5_5alloc3vec3VechEECsfu4ZaJS2nTm_5ezffi, symObjAddr: 0x0, symBinAddr: 0x100002008, symSize: 0x5C }
  - { offset: 0x8566, size: 0x8, addend: 0x0, symName: __RINvNtCs5FIOKSViJ8s_4core3ptr13drop_in_placeINtNtCs7QfUfi8dEu5_5alloc3vec3VecuEECsfu4ZaJS2nTm_5ezffi, symObjAddr: 0x5C, symBinAddr: 0x100002064, symSize: 0x5C }
  - { offset: 0x8595, size: 0x8, addend: 0x0, symName: __RINvNtCs5FIOKSViJ8s_4core3ptr13drop_in_placeINtNtCs7QfUfi8dEu5_5alloc5boxed3BoxINtNtBL_3vec3VecuEEECsfu4ZaJS2nTm_5ezffi, symObjAddr: 0xB8, symBinAddr: 0x1000020C0, symSize: 0x60 }
  - { offset: 0x85C4, size: 0x8, addend: 0x0, symName: __RINvNtCs5FIOKSViJ8s_4core3ptr13drop_in_placeINtNtCs7QfUfi8dEu5_5alloc5boxed3BoxNtNtBL_6string6StringEECsfu4ZaJS2nTm_5ezffi, symObjAddr: 0x118, symBinAddr: 0x100002120, symSize: 0x60 }
  - { offset: 0x85F3, size: 0x8, addend: 0x0, symName: __RINvNtCs5FIOKSViJ8s_4core3ptr13drop_in_placeINtNtCs7QfUfi8dEu5_5alloc7raw_vec6RawVechEECsfu4ZaJS2nTm_5ezffi, symObjAddr: 0x178, symBinAddr: 0x100002180, symSize: 0x24 }
  - { offset: 0x8622, size: 0x8, addend: 0x0, symName: __RINvNtCs5FIOKSViJ8s_4core3ptr13drop_in_placeINtNtCs7QfUfi8dEu5_5alloc7raw_vec6RawVecuEECsfu4ZaJS2nTm_5ezffi, symObjAddr: 0x19C, symBinAddr: 0x1000021A4, symSize: 0x24 }
  - { offset: 0x8651, size: 0x8, addend: 0x0, symName: __RINvNtCs5FIOKSViJ8s_4core3ptr13drop_in_placeNtNtCs7QfUfi8dEu5_5alloc6string6StringECsfu4ZaJS2nTm_5ezffi, symObjAddr: 0x1C0, symBinAddr: 0x1000021C8, symSize: 0x24 }
  - { offset: 0x89C3, size: 0x8, addend: 0x0, symName: __RNvXs1_NtCs7QfUfi8dEu5_5alloc7raw_vecINtB5_6RawVecuENtNtNtCs5FIOKSViJ8s_4core3ops4drop4Drop4dropCsfu4ZaJS2nTm_5ezffi, symObjAddr: 0x1E4, symBinAddr: 0x1000021EC, symSize: 0x30 }
  - { offset: 0x8BAD, size: 0x8, addend: 0x0, symName: __RNvXso_NtCs7QfUfi8dEu5_5alloc3vecINtB5_3VecuENtNtNtCs5FIOKSViJ8s_4core3ops4drop4Drop4dropCsfu4ZaJS2nTm_5ezffi, symObjAddr: 0x3B4, symBinAddr: 0x1000023BC, symSize: 0x24 }
  - { offset: 0x8C77, size: 0x8, addend: 0x0, symName: __RNvXs8_NtCs7QfUfi8dEu5_5alloc5boxedINtB5_3BoxINtNtB7_3vec3VecuEENtNtNtCs5FIOKSViJ8s_4core3ops4drop4Drop4dropCsfu4ZaJS2nTm_5ezffi, symObjAddr: 0x214, symBinAddr: 0x10000221C, symSize: 0xD0 }
  - { offset: 0x8E05, size: 0x8, addend: 0x0, symName: __RNvXs8_NtCs7QfUfi8dEu5_5alloc5boxedINtB5_3BoxNtNtB7_6string6StringENtNtNtCs5FIOKSViJ8s_4core3ops4drop4Drop4dropCsfu4ZaJS2nTm_5ezffi, symObjAddr: 0x2E4, symBinAddr: 0x1000022EC, symSize: 0xD0 }
  - { offset: 0x9357, size: 0x8, addend: 0x0, symName: __RNvNvMs1_NtNtCs5FIOKSViJ8s_4core3ptr8non_nullINtB7_7NonNullpE13new_unchecked18precondition_checkCsfu4ZaJS2nTm_5ezffi, symObjAddr: 0x0, symBinAddr: 0x1000023E0, symSize: 0x58 }
  - { offset: 0x937D, size: 0x8, addend: 0x0, symName: __RNvNvMs1_NtNtCs5FIOKSViJ8s_4core3ptr8non_nullINtB7_7NonNullpE13new_unchecked18precondition_checkCsfu4ZaJS2nTm_5ezffi, symObjAddr: 0x0, symBinAddr: 0x1000023E0, symSize: 0x58 }
  - { offset: 0x942E, size: 0x8, addend: 0x0, symName: __RNvNvMNtNtCs5FIOKSViJ8s_4core5alloc6layoutNtB4_6Layout29from_size_alignment_unchecked18precondition_checkCsfu4ZaJS2nTm_5ezffi, symObjAddr: 0x0, symBinAddr: 0x100002438, symSize: 0x68 }
  - { offset: 0x9756, size: 0x8, addend: 0x0, symName: __RNvNvMNtNtCs5FIOKSViJ8s_4core5alloc6layoutNtB4_6Layout29from_size_alignment_unchecked18precondition_checkCsfu4ZaJS2nTm_5ezffi, symObjAddr: 0x0, symBinAddr: 0x100002438, symSize: 0x68 }
  - { offset: 0x986B, size: 0x8, addend: 0x0, symName: __RNvMs4_NtCs5FIOKSViJ8s_4core3fmtNtB5_9Arguments8from_strCsfu4ZaJS2nTm_5ezffi, symObjAddr: 0x0, symBinAddr: 0x1000024A0, symSize: 0x20 }
  - { offset: 0x9BA1, size: 0x8, addend: 0x0, symName: __RNvMs4_NtCs5FIOKSViJ8s_4core3fmtNtB5_9Arguments8from_strCsfu4ZaJS2nTm_5ezffi, symObjAddr: 0x0, symBinAddr: 0x1000024A0, symSize: 0x20 }
  - { offset: 0x9BE2, size: 0x8, addend: 0x0, symName: __RNvMs6_NtCs7QfUfi8dEu5_5alloc5boxedINtB5_3BoxINtNtB7_3vec3VecuEE8from_rawCsfu4ZaJS2nTm_5ezffi, symObjAddr: 0x0, symBinAddr: 0x1000024C0, symSize: 0x3C }
  - { offset: 0x9FF0, size: 0x8, addend: 0x0, symName: __RNvMs6_NtCs7QfUfi8dEu5_5alloc5boxedINtB5_3BoxINtNtB7_3vec3VecuEE8from_rawCsfu4ZaJS2nTm_5ezffi, symObjAddr: 0x0, symBinAddr: 0x1000024C0, symSize: 0x3C }
  - { offset: 0xA088, size: 0x8, addend: 0x0, symName: __RNvMs6_NtCs7QfUfi8dEu5_5alloc5boxedINtB5_3BoxNtNtB7_6string6StringE8from_rawCsfu4ZaJS2nTm_5ezffi, symObjAddr: 0x3C, symBinAddr: 0x1000024FC, symSize: 0x3C }
  - { offset: 0xA120, size: 0x8, addend: 0x0, symName: __RNvMs6_NtCs7QfUfi8dEu5_5alloc5boxedINtB5_3BoxNtNtB7_6string6StringE8into_rawCsfu4ZaJS2nTm_5ezffi, symObjAddr: 0x78, symBinAddr: 0x100002538, symSize: 0x14 }
  - { offset: 0xA2C8, size: 0x8, addend: 0x0, symName: __RNvMNtCs7QfUfi8dEu5_5alloc5allocNtB2_6Global18alloc_impl_runtimeCsfu4ZaJS2nTm_5ezffi, symObjAddr: 0x0, symBinAddr: 0x10000254C, symSize: 0x184 }
  - { offset: 0xAE26, size: 0x8, addend: 0x0, symName: __RNvXs_NtCs7QfUfi8dEu5_5alloc5allocNtB4_6GlobalNtNtCs5FIOKSViJ8s_4core5alloc9Allocator10deallocateCsfu4ZaJS2nTm_5ezffi, symObjAddr: 0x184, symBinAddr: 0x1000026D0, symSize: 0x50 }
  - { offset: 0xAF59, size: 0x8, addend: 0x0, symName: __RNvMNtCs7QfUfi8dEu5_5alloc5allocNtB2_6Global18alloc_impl_runtimeCsfu4ZaJS2nTm_5ezffi, symObjAddr: 0x0, symBinAddr: 0x10000254C, symSize: 0x184 }
  - { offset: 0xB346, size: 0x8, addend: 0x0, symName: __RNvNvMNtNtCs5FIOKSViJ8s_4core3mem9alignmentNtB4_9Alignment13new_unchecked18precondition_checkCsfu4ZaJS2nTm_5ezffi, symObjAddr: 0x0, symBinAddr: 0x100002720, symSize: 0x70 }
  - { offset: 0xB3B2, size: 0x8, addend: 0x0, symName: __RNvNvMNtNtCs5FIOKSViJ8s_4core3mem9alignmentNtB4_9Alignment13new_unchecked18precondition_checkCsfu4ZaJS2nTm_5ezffi, symObjAddr: 0x0, symBinAddr: 0x100002720, symSize: 0x70 }
  - { offset: 0xB498, size: 0x8, addend: 0x0, symName: _ez_ffi_vec_free, symObjAddr: 0x0, symBinAddr: 0x100002790, symSize: 0x15C }
  - { offset: 0xB4DF, size: 0x8, addend: 0x0, symName: _ez_ffi_vec_free, symObjAddr: 0x0, symBinAddr: 0x100002790, symSize: 0x15C }
  - { offset: 0xB581, size: 0x8, addend: 0x0, symName: __RINvMNtNtCs5FIOKSViJ8s_4core4cell4onceINtB3_8OnceCellINtNtB7_6result6ResultINtNtB7_6option6OptionINtNtCs7QfUfi8dEu5_5alloc5boxed3BoxINtNtCslJahucPx05O_9addr2line4unit7DwoUnitINtNtNtCse47Qg0Fv2Hd_5gimli4read12endian_slice11EndianSliceNtNtB2T_9endianity12LittleEndianEEEENtB2R_5ErrorEE8try_initNCINvB2_11get_or_initNCNCNvMB29_INtB29_7ResUnitB2M_E14dwarf_and_units4_00E0zECsfB93IpvWVaK_3std, symObjAddr: 0x0, symBinAddr: 0x100088E14, symSize: 0x48 }
  - { offset: 0xC689, size: 0x8, addend: 0x0, symName: __RNvXsR_NtCs5FIOKSViJ8s_4core6optionINtB5_6OptionINtNtCs7QfUfi8dEu5_5alloc5boxed3BoxSmEENtNtB7_3fmt5Debug3fmtCsfB93IpvWVaK_3std, symObjAddr: 0x468A0, symBinAddr: 0x100043A24, symSize: 0x5C }
  - { offset: 0xC6A3, size: 0x8, addend: 0x0, symName: __RNvXsR_NtCs5FIOKSViJ8s_4core6optionINtB5_6OptionNtNtCsfB93IpvWVaK_3std7process10ChildStdinENtNtB7_3fmt5Debug3fmtBO_, symObjAddr: 0x468FC, symBinAddr: 0x100043A80, symSize: 0x60 }
  - { offset: 0xC6BD, size: 0x8, addend: 0x0, symName: __RNvXsR_NtCs5FIOKSViJ8s_4core6optionINtB5_6OptionNtNtCsfB93IpvWVaK_3std7process11ChildStderrENtNtB7_3fmt5Debug3fmtBO_, symObjAddr: 0x4695C, symBinAddr: 0x100043AE0, symSize: 0x60 }
  - { offset: 0xC6D7, size: 0x8, addend: 0x0, symName: __RNvXsR_NtCs5FIOKSViJ8s_4core6optionINtB5_6OptionNtNtCsfB93IpvWVaK_3std7process11ChildStdoutENtNtB7_3fmt5Debug3fmtBO_, symObjAddr: 0x469BC, symBinAddr: 0x100043B40, symSize: 0x60 }
  - { offset: 0xC6F1, size: 0x8, addend: 0x0, symName: __RNvXsR_NtCs5FIOKSViJ8s_4core6optionINtB5_6OptionNtNtNtCs7QfUfi8dEu5_5alloc3ffi5c_str7CStringENtNtB7_3fmt5Debug3fmtCsfB93IpvWVaK_3std, symObjAddr: 0x46A1C, symBinAddr: 0x100043BA0, symSize: 0x5C }
  - { offset: 0xC70B, size: 0x8, addend: 0x0, symName: __RNvXsR_NtCs5FIOKSViJ8s_4core6optionINtB5_6OptionNtNtNtNtNtCsfB93IpvWVaK_3std3sys7process4unix6common5StdioENtNtB7_3fmt5Debug3fmtBU_, symObjAddr: 0x46A78, symBinAddr: 0x100043BFC, symSize: 0x60 }
  - { offset: 0xC725, size: 0x8, addend: 0x0, symName: __RNvXsR_NtCs5FIOKSViJ8s_4core6optionINtB5_6OptionReENtNtB7_3fmt5Debug3fmtCsfB93IpvWVaK_3std, symObjAddr: 0x46AD8, symBinAddr: 0x100043C5C, symSize: 0x5C }
  - { offset: 0xC73F, size: 0x8, addend: 0x0, symName: __RNvXsR_NtCs5FIOKSViJ8s_4core6optionINtB5_6OptionlENtNtB7_3fmt5Debug3fmtCsfB93IpvWVaK_3std, symObjAddr: 0x46B34, symBinAddr: 0x100043CB8, symSize: 0x64 }
  - { offset: 0xC759, size: 0x8, addend: 0x0, symName: __RNvXsR_NtCs5FIOKSViJ8s_4core6optionINtB5_6OptionmENtNtB7_3fmt5Debug3fmtCsfB93IpvWVaK_3std, symObjAddr: 0x46B98, symBinAddr: 0x100043D1C, symSize: 0x64 }
  - { offset: 0xC79C, size: 0x8, addend: 0x0, symName: __RINvMNtNtCs5FIOKSViJ8s_4core4cell4onceINtB3_8OnceCellINtNtB7_6result6ResultINtNtB7_6option6OptionINtNtCs7QfUfi8dEu5_5alloc5boxed3BoxINtNtCslJahucPx05O_9addr2line4unit7DwoUnitINtNtNtCse47Qg0Fv2Hd_5gimli4read12endian_slice11EndianSliceNtNtB2T_9endianity12LittleEndianEEEENtB2R_5ErrorEE8try_initNCINvB2_11get_or_initNCNCNvMB29_INtB29_7ResUnitB2M_E14dwarf_and_units4_00E0zECsfB93IpvWVaK_3std, symObjAddr: 0x0, symBinAddr: 0x100088E14, symSize: 0x48 }
  - { offset: 0xC7BA, size: 0x8, addend: 0x0, symName: __RINvMNtNtCs5FIOKSViJ8s_4core4cell4onceINtB3_8OnceCellINtNtB7_6result6ResultINtNtB7_6option6OptionINtNtCs7QfUfi8dEu5_5alloc5boxed3BoxINtNtCslJahucPx05O_9addr2line4unit7DwoUnitINtNtNtCse47Qg0Fv2Hd_5gimli4read12endian_slice11EndianSliceNtNtB2T_9endianity12LittleEndianEEEENtB2R_5ErrorEE8try_initNCINvB2_11get_or_initNCNCNvMB29_INtB29_7ResUnitB2M_E14dwarf_and_units4_00E0zECsfB93IpvWVaK_3std, symObjAddr: 0x0, symBinAddr: 0x100088E14, symSize: 0x48 }
  - { offset: 0xC7CF, size: 0x8, addend: 0x0, symName: __RINvMNtNtCs5FIOKSViJ8s_4core4cell4onceINtB3_8OnceCellINtNtB7_6result6ResultINtNtB7_6option6OptionINtNtCs7QfUfi8dEu5_5alloc5boxed3BoxINtNtCslJahucPx05O_9addr2line4unit7DwoUnitINtNtNtCse47Qg0Fv2Hd_5gimli4read12endian_slice11EndianSliceNtNtB2T_9endianity12LittleEndianEEEENtB2R_5ErrorEE8try_initNCINvB2_11get_or_initNCNCNvMB29_INtB29_7ResUnitB2M_E14dwarf_and_units4_00E0zECsfB93IpvWVaK_3std, symObjAddr: 0x0, symBinAddr: 0x100088E14, symSize: 0x48 }
  - { offset: 0xC7E3, size: 0x8, addend: 0x0, symName: __RINvMNtNtCs5FIOKSViJ8s_4core4cell4onceINtB3_8OnceCellINtNtB7_6result6ResultINtNtB7_6option6OptionINtNtCs7QfUfi8dEu5_5alloc5boxed3BoxINtNtCslJahucPx05O_9addr2line4unit7DwoUnitINtNtNtCse47Qg0Fv2Hd_5gimli4read12endian_slice11EndianSliceNtNtB2T_9endianity12LittleEndianEEEENtB2R_5ErrorEE8try_initNCINvB2_11get_or_initNCNCNvMB29_INtB29_7ResUnitB2M_E14dwarf_and_units4_00E0zECsfB93IpvWVaK_3std, symObjAddr: 0x0, symBinAddr: 0x100088E14, symSize: 0x48 }
  - { offset: 0xC822, size: 0x8, addend: 0x0, symName: __RINvMNtNtCs5FIOKSViJ8s_4core4cell4onceINtB3_8OnceCellINtNtB7_6result6ResultINtNtB7_6option6OptionINtNtCs7QfUfi8dEu5_5alloc5boxed3BoxINtNtCslJahucPx05O_9addr2line4unit7DwoUnitINtNtNtCse47Qg0Fv2Hd_5gimli4read12endian_slice11EndianSliceNtNtB2T_9endianity12LittleEndianEEEENtB2R_5ErrorEE8try_initNCINvB2_11get_or_initNCNvMB29_INtB29_7ResUnitB2M_E14dwarf_and_units2_0E0zECsfB93IpvWVaK_3std, symObjAddr: 0x48, symBinAddr: 0x100088E5C, symSize: 0x68 }
  - { offset: 0xC8BD, size: 0x8, addend: 0x0, symName: __RINvMNtNtCs5FIOKSViJ8s_4core4cell4onceINtB3_8OnceCellINtNtB7_6result6ResultINtNtCslJahucPx05O_9addr2line8function8FunctionINtNtNtCse47Qg0Fv2Hd_5gimli4read12endian_slice11EndianSliceNtNtB23_9endianity12LittleEndianEENtB21_5ErrorEE8try_initNCINvB2_11get_or_initNCNvMs_B1e_INtB1e_12LazyFunctionB1W_E6borrow0E0zECsfB93IpvWVaK_3std, symObjAddr: 0xB0, symBinAddr: 0x100088EC4, symSize: 0x62C }
  - { offset: 0xD59E, size: 0x8, addend: 0x0, symName: __RINvMNtNtCs5FIOKSViJ8s_4core4cell4onceINtB3_8OnceCellINtNtB7_6result6ResultINtNtCslJahucPx05O_9addr2line8function9FunctionsINtNtNtCse47Qg0Fv2Hd_5gimli4read12endian_slice11EndianSliceNtNtB24_9endianity12LittleEndianEENtB22_5ErrorEE8try_initNCINvB2_11get_or_initNCNvMB1e_INtB1e_13LazyFunctionsB1X_E6borrow0E0zECsfB93IpvWVaK_3std, symObjAddr: 0x6DC, symBinAddr: 0x1000894F0, symSize: 0xC08 }
  - { offset: 0xF04C, size: 0x8, addend: 0x0, symName: __RINvMNtNtCs5FIOKSViJ8s_4core4cell4onceINtB3_8OnceCellINtNtB7_6result6ResultNtNtCslJahucPx05O_9addr2line4line5LinesNtNtCse47Qg0Fv2Hd_5gimli4read5ErrorEE8try_initNCINvB2_11get_or_initNCINvMB1d_NtB1d_9LazyLines6borrowINtNtB1Q_12endian_slice11EndianSliceNtNtB1S_9endianity12LittleEndianEE0E0zECsfB93IpvWVaK_3std, symObjAddr: 0x12E4, symBinAddr: 0x10008A0F8, symSize: 0x1868 }
  - { offset: 0x12911, size: 0x8, addend: 0x0, symName: __RINvMNtNtCs5FIOKSViJ8s_4core4cell4onceINtB3_8OnceCellNtNtNtCsfB93IpvWVaK_3std6thread6thread6ThreadE8try_initNCINvB2_11get_or_initNvNtBT_7current18current_or_unnamedE0zEBV_, symObjAddr: 0x2B4C, symBinAddr: 0x10008B960, symSize: 0xFC }
  - { offset: 0x132E8, size: 0x8, addend: 0x0, symName: __RNSNvYNCINvMs0_NtNtCsfB93IpvWVaK_3std4sync4onceNtBd_4Once15call_once_forceNCINvMNtBf_9once_lockINtB1g_8OnceLockINtNtBf_14reentrant_lock13ReentrantLockINtNtCs5FIOKSViJ8s_4core4cell7RefCellINtNtNtNtBh_2io8buffered10linewriter10LineWriterNtNtB36_5stdio9StdoutRawEEEE10initializeNCINvB1f_11get_or_initNCNvB3N_6stdout0E0zE0E0INtNtNtB2t_3ops8function6FnOnceTRNtBd_9OnceStateEE9call_once6vtableBh_, symObjAddr: 0x15C50, symBinAddr: 0x100014CA4, symSize: 0x70 }
  - { offset: 0x13466, size: 0x8, addend: 0x0, symName: __RNSNvYNCINvMs0_NtNtCsfB93IpvWVaK_3std4sync4onceNtBd_4Once15call_once_forceNCINvMNtBf_9once_lockINtB1g_8OnceLockINtNtBf_14reentrant_lock13ReentrantLockINtNtCs5FIOKSViJ8s_4core4cell7RefCellINtNtNtNtBh_2io8buffered10linewriter10LineWriterNtNtB36_5stdio9StdoutRawEEEE10initializeNCINvB1f_11get_or_initNCNvB3N_7cleanup0E0zE0E0INtNtNtB2t_3ops8function6FnOnceTRNtBd_9OnceStateEE9call_once6vtableBh_, symObjAddr: 0x15CC0, symBinAddr: 0x100014D14, symSize: 0x60 }
  - { offset: 0x13547, size: 0x8, addend: 0x0, symName: __RNSNvYNCINvMs0_NtNtCsfB93IpvWVaK_3std4sync4onceNtBd_4Once15call_once_forceNCINvMNtBf_9once_lockINtB1g_8OnceLockINtNtNtBf_6poison5mutex5MutexINtNtNtNtBh_2io8buffered9bufreader9BufReaderNtNtB2l_5stdio8StdinRawEEE10initializeNCINvB1f_11get_or_initNCNvB2Y_5stdin0E0zE0E0INtNtNtCs5FIOKSViJ8s_4core3ops8function6FnOnceTRNtBd_9OnceStateEE9call_once6vtableBh_, symObjAddr: 0x15D20, symBinAddr: 0x100014D74, symSize: 0x6C }
  - { offset: 0x136A9, size: 0x8, addend: 0x0, symName: __RNSNvYNCINvMs0_NtNtCsfB93IpvWVaK_3std4sync4onceNtBd_4Once15call_once_forceNCNvMNtBf_9lazy_lockINtB1f_8LazyLockNtNtBh_9backtrace7CaptureNCNvNtB1M_6helper12lazy_resolve0E5force0E0INtNtNtCs5FIOKSViJ8s_4core3ops8function6FnOnceTRNtBd_9OnceStateEE9call_once6vtableBh_, symObjAddr: 0x15D8C, symBinAddr: 0x100014DE0, symSize: 0x28 }
  - { offset: 0x136E3, size: 0x8, addend: 0x0, symName: __RNSNvYNCINvMs0_NtNtCsfB93IpvWVaK_3std4sync4onceNtBd_4Once9call_onceNCNvNtBh_2rt7cleanup0E0INtNtNtCs5FIOKSViJ8s_4core3ops8function6FnOnceTRNtBd_9OnceStateEE9call_once6vtableBh_, symObjAddr: 0x15DB4, symBinAddr: 0x100014E08, symSize: 0x28 }
  - { offset: 0x1371D, size: 0x8, addend: 0x0, symName: __RNSNvYNCNCNvNtNtCsfB93IpvWVaK_3std3sys9backtrace10__print_fmts_00INtNtNtCs5FIOKSViJ8s_4core3ops8function6FnOnceTRNtNtNtBe_12backtrace_rs9symbolize6SymbolEE9call_once6vtableBe_, symObjAddr: 0x15DDC, symBinAddr: 0x100014E30, symSize: 0x4 }
  - { offset: 0x1373A, size: 0x8, addend: 0x0, symName: __RNSNvYNCNCNvNtNtCsfB93IpvWVaK_3std3sys9backtrace10__print_fmts_00INtNtNtCs5FIOKSViJ8s_4core3ops8function6FnOnceTRNtNtNtBe_12backtrace_rs9symbolize6SymbolEE9call_once6vtableBe_, symObjAddr: 0x15DDC, symBinAddr: 0x100014E30, symSize: 0x4 }
  - { offset: 0x13757, size: 0x8, addend: 0x0, symName: __RNSNvYNCNCNvNtNtCsfB93IpvWVaK_3std9backtrace6helper12lazy_resolve00INtNtNtCs5FIOKSViJ8s_4core3ops8function6FnOnceTRNtNtNtBe_12backtrace_rs9symbolize6SymbolEE9call_once6vtableBe_, symObjAddr: 0x15DE0, symBinAddr: 0x100014E34, symSize: 0x28 }
  - { offset: 0x13791, size: 0x8, addend: 0x0, symName: __RNSNvYNCNvMs2_NtCsfB93IpvWVaK_3std9backtraceNtBc_9Backtrace6create0INtNtNtCs5FIOKSViJ8s_4core3ops8function6FnOnceTRNtNtNtBe_12backtrace_rs9backtrace5FrameEE9call_once6vtableBe_, symObjAddr: 0x15E08, symBinAddr: 0x100014E5C, symSize: 0x18 }
  - { offset: 0x137CB, size: 0x8, addend: 0x0, symName: __RNSNvYNCNvNtNtCsfB93IpvWVaK_3std3sys9backtrace10__print_fmt0INtNtNtCs5FIOKSViJ8s_4core3ops8function6FnOnceTQNtNtB13_3fmt9FormatterNtNtNtBc_12backtrace_rs5types17BytesOrWideStringEE9call_once6vtableBc_, symObjAddr: 0x15E20, symBinAddr: 0x100014E74, symSize: 0xB0 }
  - { offset: 0x13A4D, size: 0x8, addend: 0x0, symName: __RNSNvYNCNvNtNtCsfB93IpvWVaK_3std3sys9backtrace10__print_fmts_0INtNtNtCs5FIOKSViJ8s_4core3ops8function6FnOnceTRNtNtNtBc_12backtrace_rs9backtrace5FrameEE9call_once6vtableBc_, symObjAddr: 0x15ED0, symBinAddr: 0x100014F24, symSize: 0x4 }
  - { offset: 0x13A6A, size: 0x8, addend: 0x0, symName: __RNSNvYNCNvNtNtCsfB93IpvWVaK_3std3sys9backtrace10__print_fmts_0INtNtNtCs5FIOKSViJ8s_4core3ops8function6FnOnceTRNtNtNtBc_12backtrace_rs9backtrace5FrameEE9call_once6vtableBc_, symObjAddr: 0x15ED0, symBinAddr: 0x100014F24, symSize: 0x4 }
  - { offset: 0x13A87, size: 0x8, addend: 0x0, symName: __RNSNvYNCNvNtNtNtCsfB93IpvWVaK_3std3sys11personality3gcc14find_eh_action0INtNtNtCs5FIOKSViJ8s_4core3ops8function6FnOnceuE9call_once6vtableBe_, symObjAddr: 0x15ED4, symBinAddr: 0x100014F28, symSize: 0xC }
  - { offset: 0x13AD6, size: 0x8, addend: 0x0, symName: __RNSNvYNCNvNtNtNtCsfB93IpvWVaK_3std3sys11personality3gcc14find_eh_actions_0INtNtNtCs5FIOKSViJ8s_4core3ops8function6FnOnceuE9call_once6vtableBe_, symObjAddr: 0x15EE0, symBinAddr: 0x100014F34, symSize: 0xC }
  - { offset: 0x13B25, size: 0x8, addend: 0x0, symName: __RNSNvYNCNvXs4_NtCsfB93IpvWVaK_3std9backtraceNtBc_9BacktraceNtNtCs5FIOKSViJ8s_4core3fmt7Display3fmt0INtNtNtBZ_3ops8function6FnOnceTQNtBX_9FormatterNtNtNtBe_12backtrace_rs5types17BytesOrWideStringEE9call_once6vtableBe_, symObjAddr: 0x15EEC, symBinAddr: 0x100014F40, symSize: 0xB0 }
  - { offset: 0x13C9F, size: 0x8, addend: 0x0, symName: __RNSNvYNvNtCsfB93IpvWVaK_3std9panicking12default_hookINtNtNtCs5FIOKSViJ8s_4core3ops8function6FnOnceTRNtNtB8_5panic13PanicHookInfoEE9call_once6vtableB8_, symObjAddr: 0x15F9C, symBinAddr: 0x100014FF0, symSize: 0x8 }
  - { offset: 0x13E6B, size: 0x8, addend: 0x0, symName: __RNvYNvNtCsfB93IpvWVaK_3std9panicking12default_hookINtNtNtCs5FIOKSViJ8s_4core3ops8function2FnTRNtNtB6_5panic13PanicHookInfoEE4callB6_, symObjAddr: 0x4E1FC, symBinAddr: 0x10004B380, symSize: 0x8 }
  - { offset: 0x13E84, size: 0x8, addend: 0x0, symName: __RNvYNvNtNtNtCsfB93IpvWVaK_3std3sys2fs4unix12canonicalizeINtNtNtCs5FIOKSViJ8s_4core3ops8function2FnTRNtNtNtBZ_3ffi5c_str4CStrEE4callBa_, symObjAddr: 0x4E20C, symBinAddr: 0x10004B390, symSize: 0x8 }
  - { offset: 0x13E97, size: 0x8, addend: 0x0, symName: __RNvYNvNtNtNtCsfB93IpvWVaK_3std3sys2fs4unix4statINtNtNtCs5FIOKSViJ8s_4core3ops8function2FnTRNtNtNtBQ_3ffi5c_str4CStrEE4callBa_, symObjAddr: 0x4E214, symBinAddr: 0x10004B398, symSize: 0xAC }
  - { offset: 0x13FA5, size: 0x8, addend: 0x0, symName: __RNvYNvNtNtNtCsfB93IpvWVaK_3std3sys2fs4unix5lstatINtNtNtCs5FIOKSViJ8s_4core3ops8function2FnTRNtNtNtBR_3ffi5c_str4CStrEE4callBa_, symObjAddr: 0x4E2C0, symBinAddr: 0x10004B444, symSize: 0xAC }
  - { offset: 0x140B3, size: 0x8, addend: 0x0, symName: __RNvYNvNtNtNtCsfB93IpvWVaK_3std3sys2fs4unix5rmdirINtNtNtCs5FIOKSViJ8s_4core3ops8function2FnTRNtNtNtBR_3ffi5c_str4CStrEE4callBa_, symObjAddr: 0x4E36C, symBinAddr: 0x10004B4F0, symSize: 0x38 }
  - { offset: 0x14147, size: 0x8, addend: 0x0, symName: __RNvYNvNtNtNtCsfB93IpvWVaK_3std3sys2fs4unix6unlinkINtNtNtCs5FIOKSViJ8s_4core3ops8function2FnTRNtNtNtBS_3ffi5c_str4CStrEE4callBa_, symObjAddr: 0x4E3A4, symBinAddr: 0x10004B528, symSize: 0x38 }
  - { offset: 0x141DB, size: 0x8, addend: 0x0, symName: __RNvYNvNtNtNtCsfB93IpvWVaK_3std3sys2fs4unix8readlinkINtNtNtCs5FIOKSViJ8s_4core3ops8function2FnTRNtNtNtBU_3ffi5c_str4CStrEE4callBa_, symObjAddr: 0x4E3DC, symBinAddr: 0x10004B560, symSize: 0x8 }
  - { offset: 0x141EE, size: 0x8, addend: 0x0, symName: __RNvYNvNtNtNtNtCsfB93IpvWVaK_3std3sys2fs4unix15remove_dir_impl21remove_dir_all_modernINtNtNtCs5FIOKSViJ8s_4core3ops8function2FnTRNtNtNtB1r_3ffi5c_str4CStrEE4callBc_, symObjAddr: 0x4E3E4, symBinAddr: 0x10004B568, symSize: 0xA4 }
  - { offset: 0x143A2, size: 0x8, addend: 0x0, symName: __RNvYNvNtCsfB93IpvWVaK_3std9panicking12default_hookINtNtNtCs5FIOKSViJ8s_4core3ops8function5FnMutTRNtNtB6_5panic13PanicHookInfoEE8call_mutB6_, symObjAddr: 0x4E204, symBinAddr: 0x10004B388, symSize: 0x8 }
  - { offset: 0x16A01, size: 0x8, addend: 0x0, symName: __RINvNtNtNtCs5FIOKSViJ8s_4core5slice4sort6stable14driftsort_mainNtNtCs7r4Y2Wsbri8_6object4read14ObjectMapEntryNCINvMNtCs7QfUfi8dEu5_5alloc5sliceSBZ_11sort_by_keyyNCNvMs7_B11_INtB11_9SymbolMapBZ_E3new0E0INtNtB1R_3vec3VecBZ_EECsfB93IpvWVaK_3std, symObjAddr: 0xAFA8, symBinAddr: 0x10000A890, symSize: 0x148 }
  - { offset: 0x16D3A, size: 0x8, addend: 0x0, symName: __RINvNtNtNtCs5FIOKSViJ8s_4core5slice4sort6stable14driftsort_mainNtNtCslJahucPx05O_9addr2line4line12LineSequenceNCINvMNtCs7QfUfi8dEu5_5alloc5sliceSBZ_11sort_by_keyyNCINvMs_B11_NtB11_5Lines5parseINtNtNtCse47Qg0Fv2Hd_5gimli4read12endian_slice11EndianSliceNtNtB3b_9endianity12LittleEndianEEs_0E0INtNtB1S_3vec3VecBZ_EECsfB93IpvWVaK_3std, symObjAddr: 0xB0F0, symBinAddr: 0x10000A9D8, symSize: 0x128 }
  - { offset: 0x16FC6, size: 0x8, addend: 0x0, symName: __RINvNtNtNtCs5FIOKSViJ8s_4core5slice4sort6stable14driftsort_mainNtNtCslJahucPx05O_9addr2line4unit9UnitRangeNCINvMNtCs7QfUfi8dEu5_5alloc5sliceSBZ_11sort_by_keyyNCNvMs_B11_INtB11_8ResUnitsINtNtNtCse47Qg0Fv2Hd_5gimli4read12endian_slice11EndianSliceNtNtB34_9endianity12LittleEndianEE5parses2_0E0INtNtB1O_3vec3VecBZ_EECsfB93IpvWVaK_3std, symObjAddr: 0xB218, symBinAddr: 0x10000AB00, symSize: 0x124 }
  - { offset: 0x1732A, size: 0x8, addend: 0x0, symName: __RINvNtNtNtCs5FIOKSViJ8s_4core5slice4sort6stable14driftsort_mainNtNtCslJahucPx05O_9addr2line8function15FunctionAddressNCINvMNtCs7QfUfi8dEu5_5alloc5sliceSBZ_11sort_by_keyyNCNvMs0_B11_INtB11_9FunctionsINtNtNtCse47Qg0Fv2Hd_5gimli4read12endian_slice11EndianSliceNtNtB3h_9endianity12LittleEndianEE5parses_0E0INtNtB1Z_3vec3VecBZ_EECsfB93IpvWVaK_3std, symObjAddr: 0xB33C, symBinAddr: 0x10000AC24, symSize: 0x148 }
  - { offset: 0x17663, size: 0x8, addend: 0x0, symName: __RINvNtNtNtCs5FIOKSViJ8s_4core5slice4sort6stable14driftsort_mainNtNtCslJahucPx05O_9addr2line8function22InlinedFunctionAddressNCINvMNtCs7QfUfi8dEu5_5alloc5sliceSBZ_7sort_byNCNvMs1_B11_INtB11_8FunctionINtNtNtCse47Qg0Fv2Hd_5gimli4read12endian_slice11EndianSliceNtNtB3h_9endianity12LittleEndianEE5parse0E0INtNtB26_3vec3VecBZ_EECsfB93IpvWVaK_3std, symObjAddr: 0xB484, symBinAddr: 0x10000AD6C, symSize: 0x124 }
  - { offset: 0x179C7, size: 0x8, addend: 0x0, symName: __RINvNtNtNtCs5FIOKSViJ8s_4core5slice4sort6stable14driftsort_mainTNtNtCse47Qg0Fv2Hd_5gimli6common15DebugInfoOffsetNtB12_18DebugArangesOffsetENCINvMNtCs7QfUfi8dEu5_5alloc5sliceSBZ_11sort_by_keyB10_NCNvMs_NtCslJahucPx05O_9addr2line4unitINtB3d_8ResUnitsINtNtNtB14_4read12endian_slice11EndianSliceNtNtB14_9endianity12LittleEndianEE5parse0E0INtNtB2l_3vec3VecBZ_EECsfB93IpvWVaK_3std, symObjAddr: 0xB5A8, symBinAddr: 0x10000AE90, symSize: 0x124 }
  - { offset: 0x17EF9, size: 0x8, addend: 0x0, symName: __RINvNtNtNtNtCs5FIOKSViJ8s_4core5slice4sort6stable5drift4sortNtNtCs7r4Y2Wsbri8_6object4read14ObjectMapEntryNCINvMNtCs7QfUfi8dEu5_5alloc5sliceSBW_11sort_by_keyyNCNvMs7_BY_INtBY_9SymbolMapBW_E3new0E0ECsfB93IpvWVaK_3std, symObjAddr: 0xD770, symBinAddr: 0x10000CA7C, symSize: 0x534 }
  - { offset: 0x18548, size: 0x8, addend: 0x0, symName: __RINvNtNtNtNtCs5FIOKSViJ8s_4core5slice4sort6stable5drift4sortNtNtCslJahucPx05O_9addr2line4line12LineSequenceNCINvMNtCs7QfUfi8dEu5_5alloc5sliceSBW_11sort_by_keyyNCINvMs_BY_NtBY_5Lines5parseINtNtNtCse47Qg0Fv2Hd_5gimli4read12endian_slice11EndianSliceNtNtB36_9endianity12LittleEndianEEs_0E0ECsfB93IpvWVaK_3std, symObjAddr: 0xDCA4, symBinAddr: 0x10000CFB0, symSize: 0x4EC }
  - { offset: 0x18B83, size: 0x8, addend: 0x0, symName: __RINvNtNtNtNtCs5FIOKSViJ8s_4core5slice4sort6stable5drift4sortNtNtCslJahucPx05O_9addr2line4unit9UnitRangeNCINvMNtCs7QfUfi8dEu5_5alloc5sliceSBW_11sort_by_keyyNCNvMs_BY_INtBY_8ResUnitsINtNtNtCse47Qg0Fv2Hd_5gimli4read12endian_slice11EndianSliceNtNtB2Z_9endianity12LittleEndianEE5parses2_0E0ECsfB93IpvWVaK_3std, symObjAddr: 0xE190, symBinAddr: 0x10000D49C, symSize: 0x4EC }
  - { offset: 0x191BE, size: 0x8, addend: 0x0, symName: __RINvNtNtNtNtCs5FIOKSViJ8s_4core5slice4sort6stable5drift4sortNtNtCslJahucPx05O_9addr2line8function15FunctionAddressNCINvMNtCs7QfUfi8dEu5_5alloc5sliceSBW_11sort_by_keyyNCNvMs0_BY_INtBY_9FunctionsINtNtNtCse47Qg0Fv2Hd_5gimli4read12endian_slice11EndianSliceNtNtB3c_9endianity12LittleEndianEE5parses_0E0ECsfB93IpvWVaK_3std, symObjAddr: 0xE67C, symBinAddr: 0x10000D988, symSize: 0x52C }
  - { offset: 0x197E5, size: 0x8, addend: 0x0, symName: __RINvNtNtNtNtCs5FIOKSViJ8s_4core5slice4sort6stable5drift4sortNtNtCslJahucPx05O_9addr2line8function22InlinedFunctionAddressNCINvMNtCs7QfUfi8dEu5_5alloc5sliceSBW_7sort_byNCNvMs1_BY_INtBY_8FunctionINtNtNtCse47Qg0Fv2Hd_5gimli4read12endian_slice11EndianSliceNtNtB3c_9endianity12LittleEndianEE5parse0E0ECsfB93IpvWVaK_3std, symObjAddr: 0xEBA8, symBinAddr: 0x10000DEB4, symSize: 0x5E0 }
  - { offset: 0x19E60, size: 0x8, addend: 0x0, symName: __RINvNtNtNtNtCs5FIOKSViJ8s_4core5slice4sort6stable5drift4sortTNtNtCse47Qg0Fv2Hd_5gimli6common15DebugInfoOffsetNtBZ_18DebugArangesOffsetENCINvMNtCs7QfUfi8dEu5_5alloc5sliceSBW_11sort_by_keyBX_NCNvMs_NtCslJahucPx05O_9addr2line4unitINtB38_8ResUnitsINtNtNtB11_4read12endian_slice11EndianSliceNtNtB11_9endianity12LittleEndianEE5parse0E0ECsfB93IpvWVaK_3std, symObjAddr: 0xF188, symBinAddr: 0x10000E494, symSize: 0x574 }
  - { offset: 0x1A5E2, size: 0x8, addend: 0x0, symName: __RINvNtNtNtNtCs5FIOKSViJ8s_4core5slice4sort6stable9quicksort9quicksortNtNtCs7r4Y2Wsbri8_6object4read14ObjectMapEntryNCINvMNtCs7QfUfi8dEu5_5alloc5sliceSB15_11sort_by_keyyNCNvMs7_B17_INtB17_9SymbolMapB15_E3new0E0ECsfB93IpvWVaK_3std, symObjAddr: 0xF6FC, symBinAddr: 0x10000EA08, symSize: 0x800 }
  - { offset: 0x1B169, size: 0x8, addend: 0x0, symName: __RINvNtNtNtNtCs5FIOKSViJ8s_4core5slice4sort6stable9quicksort9quicksortNtNtCslJahucPx05O_9addr2line4line12LineSequenceNCINvMNtCs7QfUfi8dEu5_5alloc5sliceSB15_11sort_by_keyyNCINvMs_B17_NtB17_5Lines5parseINtNtNtCse47Qg0Fv2Hd_5gimli4read12endian_slice11EndianSliceNtNtB3i_9endianity12LittleEndianEEs_0E0ECsfB93IpvWVaK_3std, symObjAddr: 0xFEFC, symBinAddr: 0x10000F208, symSize: 0x6AC }
  - { offset: 0x1BBED, size: 0x8, addend: 0x0, symName: __RINvNtNtNtNtCs5FIOKSViJ8s_4core5slice4sort6stable9quicksort9quicksortNtNtCslJahucPx05O_9addr2line4unit9UnitRangeNCINvMNtCs7QfUfi8dEu5_5alloc5sliceSB15_11sort_by_keyyNCNvMs_B17_INtB17_8ResUnitsINtNtNtCse47Qg0Fv2Hd_5gimli4read12endian_slice11EndianSliceNtNtB3b_9endianity12LittleEndianEE5parses2_0E0ECsfB93IpvWVaK_3std, symObjAddr: 0x105A8, symBinAddr: 0x10000F8B4, symSize: 0x6B4 }
  - { offset: 0x1C671, size: 0x8, addend: 0x0, symName: __RINvNtNtNtNtCs5FIOKSViJ8s_4core5slice4sort6stable9quicksort9quicksortNtNtCslJahucPx05O_9addr2line8function15FunctionAddressNCINvMNtCs7QfUfi8dEu5_5alloc5sliceSB15_11sort_by_keyyNCNvMs0_B17_INtB17_9FunctionsINtNtNtCse47Qg0Fv2Hd_5gimli4read12endian_slice11EndianSliceNtNtB3o_9endianity12LittleEndianEE5parses_0E0ECsfB93IpvWVaK_3std, symObjAddr: 0x10C5C, symBinAddr: 0x10000FF68, symSize: 0x7E4 }
  - { offset: 0x1D1EB, size: 0x8, addend: 0x0, symName: __RINvNtNtNtNtCs5FIOKSViJ8s_4core5slice4sort6stable9quicksort9quicksortNtNtCslJahucPx05O_9addr2line8function22InlinedFunctionAddressNCINvMNtCs7QfUfi8dEu5_5alloc5sliceSB15_7sort_byNCNvMs1_B17_INtB17_8FunctionINtNtNtCse47Qg0Fv2Hd_5gimli4read12endian_slice11EndianSliceNtNtB3o_9endianity12LittleEndianEE5parse0E0ECsfB93IpvWVaK_3std, symObjAddr: 0x11440, symBinAddr: 0x10001074C, symSize: 0x718 }
  - { offset: 0x1D8EC, size: 0x8, addend: 0x0, symName: __RINvNtNtNtNtCs5FIOKSViJ8s_4core5slice4sort6stable9quicksort9quicksortTNtNtCse47Qg0Fv2Hd_5gimli6common15DebugInfoOffsetNtB18_18DebugArangesOffsetENCINvMNtCs7QfUfi8dEu5_5alloc5sliceSB15_11sort_by_keyB16_NCNvMs_NtCslJahucPx05O_9addr2line4unitINtB3k_8ResUnitsINtNtNtB1a_4read12endian_slice11EndianSliceNtNtB1a_9endianity12LittleEndianEE5parse0E0ECsfB93IpvWVaK_3std, symObjAddr: 0x11B58, symBinAddr: 0x100010E64, symSize: 0x7F4 }
  - { offset: 0x1E882, size: 0x8, addend: 0x0, symName: __RINvNtNtNtNtCs5FIOKSViJ8s_4core5slice4sort6shared9smallsort12sort4_stableNtNtCslJahucPx05O_9addr2line8function22InlinedFunctionAddressNCINvMNtCs7QfUfi8dEu5_5alloc5sliceSB19_7sort_byNCNvMs1_B1b_INtB1b_8FunctionINtNtNtCse47Qg0Fv2Hd_5gimli4read12endian_slice11EndianSliceNtNtB3s_9endianity12LittleEndianEE5parse0E0ECsfB93IpvWVaK_3std, symObjAddr: 0xC65C, symBinAddr: 0x10000B968, symSize: 0x17C }
  - { offset: 0x1EA25, size: 0x8, addend: 0x0, symName: __RINvNtNtNtNtCs5FIOKSViJ8s_4core5slice4sort6shared9smallsort12sort4_stableTRShyENCINvMB8_SB19_20sort_unstable_by_keyB1a_NCNvMs_NtNtNtNtCsfB93IpvWVaK_3std12backtrace_rs9symbolize5gimli5machoNtB20_6Object5parses_0E0EB28_, symObjAddr: 0xC7D8, symBinAddr: 0x10000BAE4, symSize: 0x180 }
  - { offset: 0x1EE41, size: 0x8, addend: 0x0, symName: __RINvNtNtNtNtCs5FIOKSViJ8s_4core5slice4sort6shared9smallsort12sort8_stableTNtNtCse47Qg0Fv2Hd_5gimli6common15DebugInfoOffsetNtB1c_18DebugArangesOffsetENCINvMNtCs7QfUfi8dEu5_5alloc5sliceSB19_11sort_by_keyB1a_NCNvMs_NtCslJahucPx05O_9addr2line4unitINtB3o_8ResUnitsINtNtNtB1e_4read12endian_slice11EndianSliceNtNtB1e_9endianity12LittleEndianEE5parse0E0ECsfB93IpvWVaK_3std, symObjAddr: 0xC958, symBinAddr: 0x10000BC64, symSize: 0x2B8 }
  - { offset: 0x1F31B, size: 0x8, addend: 0x0, symName: __RINvNtNtNtNtCs5FIOKSViJ8s_4core5slice4sort6shared9smallsort18small_sort_generalTRShyENCINvMB8_SB1f_20sort_unstable_by_keyB1g_NCNvMs_NtNtNtNtCsfB93IpvWVaK_3std12backtrace_rs9symbolize5gimli5machoNtB26_6Object5parses_0E0EB2e_, symObjAddr: 0xCC10, symBinAddr: 0x10000BF1C, symSize: 0x3E8 }
  - { offset: 0x1F884, size: 0x8, addend: 0x0, symName: __RINvNtNtNtNtCs5FIOKSViJ8s_4core5slice4sort6shared9smallsort18small_sort_generalTRShyENCINvMB8_SB1f_20sort_unstable_by_keyyNCNvMs_NtNtNtNtCsfB93IpvWVaK_3std12backtrace_rs9symbolize5gimli5machoNtB23_6Object5parses0_0E0EB2b_, symObjAddr: 0xCFF8, symBinAddr: 0x10000C304, symSize: 0x490 }
  - { offset: 0x1FF62, size: 0x8, addend: 0x0, symName: __RINvNtNtNtNtCs5FIOKSViJ8s_4core5slice4sort6shared9smallsort25insertion_sort_shift_leftNtNtCs7r4Y2Wsbri8_6object4read14ObjectMapEntryNCINvMNtCs7QfUfi8dEu5_5alloc5sliceSB1m_11sort_by_keyyNCNvMs7_B1o_INtB1o_9SymbolMapB1m_E3new0E0ECsfB93IpvWVaK_3std, symObjAddr: 0xD488, symBinAddr: 0x10000C794, symSize: 0xA8 }
  - { offset: 0x20035, size: 0x8, addend: 0x0, symName: __RINvNtNtNtNtCs5FIOKSViJ8s_4core5slice4sort6shared9smallsort25insertion_sort_shift_leftNtNtCslJahucPx05O_9addr2line4line12LineSequenceNCINvMNtCs7QfUfi8dEu5_5alloc5sliceSB1m_11sort_by_keyyNCINvMs_B1o_NtB1o_5Lines5parseINtNtNtCse47Qg0Fv2Hd_5gimli4read12endian_slice11EndianSliceNtNtB3z_9endianity12LittleEndianEEs_0E0ECsfB93IpvWVaK_3std, symObjAddr: 0xD530, symBinAddr: 0x10000C83C, symSize: 0x94 }
  - { offset: 0x20108, size: 0x8, addend: 0x0, symName: __RINvNtNtNtNtCs5FIOKSViJ8s_4core5slice4sort6shared9smallsort25insertion_sort_shift_leftNtNtCslJahucPx05O_9addr2line8function22InlinedFunctionAddressNCINvMNtCs7QfUfi8dEu5_5alloc5sliceSB1m_7sort_byNCNvMs1_B1o_INtB1o_8FunctionINtNtNtCse47Qg0Fv2Hd_5gimli4read12endian_slice11EndianSliceNtNtB3F_9endianity12LittleEndianEE5parse0E0ECsfB93IpvWVaK_3std, symObjAddr: 0xD5C4, symBinAddr: 0x10000C8D0, symSize: 0xB8 }
  - { offset: 0x20224, size: 0x8, addend: 0x0, symName: __RINvNtNtNtNtCs5FIOKSViJ8s_4core5slice4sort6shared9smallsort25insertion_sort_shift_leftTRShyENCINvMB8_SB1m_20sort_unstable_by_keyB1n_NCNvMs_NtNtNtNtCsfB93IpvWVaK_3std12backtrace_rs9symbolize5gimli5machoNtB2d_6Object5parses_0E0EB2l_, symObjAddr: 0xD67C, symBinAddr: 0x10000C988, symSize: 0xF4 }
  - { offset: 0x2060D, size: 0x8, addend: 0x0, symName: __RINvNtNtNtNtCs5FIOKSViJ8s_4core5slice4sort6shared5pivot11median3_recNtNtCs7r4Y2Wsbri8_6object4read14ObjectMapEntryNCINvMNtCs7QfUfi8dEu5_5alloc5sliceSB14_11sort_by_keyyNCNvMs7_B16_INtB16_9SymbolMapB14_E3new0E0ECsfB93IpvWVaK_3std, symObjAddr: 0xBF3C, symBinAddr: 0x10000B248, symSize: 0xD0 }
  - { offset: 0x20702, size: 0x8, addend: 0x0, symName: __RINvNtNtNtNtCs5FIOKSViJ8s_4core5slice4sort6shared5pivot11median3_recNtNtCslJahucPx05O_9addr2line4line12LineSequenceNCINvMNtCs7QfUfi8dEu5_5alloc5sliceSB14_11sort_by_keyyNCINvMs_B16_NtB16_5Lines5parseINtNtNtCse47Qg0Fv2Hd_5gimli4read12endian_slice11EndianSliceNtNtB3h_9endianity12LittleEndianEEs_0E0ECsfB93IpvWVaK_3std, symObjAddr: 0xC00C, symBinAddr: 0x10000B318, symSize: 0xCC }
  - { offset: 0x207F7, size: 0x8, addend: 0x0, symName: __RINvNtNtNtNtCs5FIOKSViJ8s_4core5slice4sort6shared5pivot11median3_recNtNtCslJahucPx05O_9addr2line4unit9UnitRangeNCINvMNtCs7QfUfi8dEu5_5alloc5sliceSB14_11sort_by_keyyNCNvMs_B16_INtB16_8ResUnitsINtNtNtCse47Qg0Fv2Hd_5gimli4read12endian_slice11EndianSliceNtNtB3a_9endianity12LittleEndianEE5parses2_0E0ECsfB93IpvWVaK_3std, symObjAddr: 0xC0D8, symBinAddr: 0x10000B3E4, symSize: 0xCC }
  - { offset: 0x208EC, size: 0x8, addend: 0x0, symName: __RINvNtNtNtNtCs5FIOKSViJ8s_4core5slice4sort6shared5pivot11median3_recNtNtCslJahucPx05O_9addr2line8function15FunctionAddressNCINvMNtCs7QfUfi8dEu5_5alloc5sliceSB14_11sort_by_keyyNCNvMs0_B16_INtB16_9FunctionsINtNtNtCse47Qg0Fv2Hd_5gimli4read12endian_slice11EndianSliceNtNtB3n_9endianity12LittleEndianEE5parses_0E0ECsfB93IpvWVaK_3std, symObjAddr: 0xC1A4, symBinAddr: 0x10000B4B0, symSize: 0xD0 }
  - { offset: 0x209E1, size: 0x8, addend: 0x0, symName: __RINvNtNtNtNtCs5FIOKSViJ8s_4core5slice4sort6shared5pivot11median3_recNtNtCslJahucPx05O_9addr2line8function22InlinedFunctionAddressNCINvMNtCs7QfUfi8dEu5_5alloc5sliceSB14_7sort_byNCNvMs1_B16_INtB16_8FunctionINtNtNtCse47Qg0Fv2Hd_5gimli4read12endian_slice11EndianSliceNtNtB3n_9endianity12LittleEndianEE5parse0E0ECsfB93IpvWVaK_3std, symObjAddr: 0xC274, symBinAddr: 0x10000B580, symSize: 0x118 }
  - { offset: 0x20AD7, size: 0x8, addend: 0x0, symName: __RINvNtNtNtNtCs5FIOKSViJ8s_4core5slice4sort6shared5pivot11median3_recTNtNtCse47Qg0Fv2Hd_5gimli6common15DebugInfoOffsetNtB17_18DebugArangesOffsetENCINvMNtCs7QfUfi8dEu5_5alloc5sliceSB14_11sort_by_keyB15_NCNvMs_NtCslJahucPx05O_9addr2line4unitINtB3j_8ResUnitsINtNtNtB19_4read12endian_slice11EndianSliceNtNtB19_9endianity12LittleEndianEE5parse0E0ECsfB93IpvWVaK_3std, symObjAddr: 0xC38C, symBinAddr: 0x10000B698, symSize: 0xCC }
  - { offset: 0x20BF8, size: 0x8, addend: 0x0, symName: __RINvNtNtNtNtCs5FIOKSViJ8s_4core5slice4sort6shared5pivot11median3_recTRShyENCINvMB8_SB14_20sort_unstable_by_keyB15_NCNvMs_NtNtNtNtCsfB93IpvWVaK_3std12backtrace_rs9symbolize5gimli5machoNtB1V_6Object5parses_0E0EB23_, symObjAddr: 0xC458, symBinAddr: 0x10000B764, symSize: 0x134 }
  - { offset: 0x20E1B, size: 0x8, addend: 0x0, symName: __RINvNtNtNtNtCs5FIOKSViJ8s_4core5slice4sort6shared5pivot11median3_recTRShyENCINvMB8_SB14_20sort_unstable_by_keyyNCNvMs_NtNtNtNtCsfB93IpvWVaK_3std12backtrace_rs9symbolize5gimli5machoNtB1S_6Object5parses0_0E0EB20_, symObjAddr: 0xC58C, symBinAddr: 0x10000B898, symSize: 0xD0 }
  - { offset: 0x20FB5, size: 0x8, addend: 0x0, symName: __RINvNtNtNtCs5FIOKSViJ8s_4core5slice4sort8unstable7ipnsortTRShyENCINvMB6_SBT_20sort_unstable_by_keyBU_NCNvMs_NtNtNtNtCsfB93IpvWVaK_3std12backtrace_rs9symbolize5gimli5machoNtB1I_6Object5parses_0E0EB1Q_, symObjAddr: 0xB6CC, symBinAddr: 0x10000AFB4, symSize: 0x1A8 }
  - { offset: 0x21276, size: 0x8, addend: 0x0, symName: __RINvNtNtNtCs5FIOKSViJ8s_4core5slice4sort8unstable7ipnsortTRShyENCINvMB6_SBT_20sort_unstable_by_keyyNCNvMs_NtNtNtNtCsfB93IpvWVaK_3std12backtrace_rs9symbolize5gimli5machoNtB1G_6Object5parses0_0E0EB1O_, symObjAddr: 0xB874, symBinAddr: 0x10000B15C, symSize: 0xEC }
  - { offset: 0x213C7, size: 0x8, addend: 0x0, symName: __RINvNtNtNtNtCs5FIOKSViJ8s_4core5slice4sort8unstable8heapsort8heapsortTRShyENCINvMB8_SB15_20sort_unstable_by_keyB16_NCNvMs_NtNtNtNtCsfB93IpvWVaK_3std12backtrace_rs9symbolize5gimli5machoNtB1W_6Object5parses_0E0EB24_, symObjAddr: 0x1234C, symBinAddr: 0x100011658, symSize: 0x160 }
  - { offset: 0x216BD, size: 0x8, addend: 0x0, symName: __RINvNtNtNtNtCs5FIOKSViJ8s_4core5slice4sort8unstable8heapsort8heapsortTRShyENCINvMB8_SB15_20sort_unstable_by_keyyNCNvMs_NtNtNtNtCsfB93IpvWVaK_3std12backtrace_rs9symbolize5gimli5machoNtB1T_6Object5parses0_0E0EB21_, symObjAddr: 0x124AC, symBinAddr: 0x1000117B8, symSize: 0x100 }
  - { offset: 0x2194F, size: 0x8, addend: 0x0, symName: __RINvNtNtNtNtCs5FIOKSViJ8s_4core5slice4sort8unstable9quicksort9quicksortTRShyENCINvMB8_SB17_20sort_unstable_by_keyB18_NCNvMs_NtNtNtNtCsfB93IpvWVaK_3std12backtrace_rs9symbolize5gimli5machoNtB1Y_6Object5parses_0E0EB26_, symObjAddr: 0x125AC, symBinAddr: 0x1000118B8, symSize: 0x510 }
  - { offset: 0x2238B, size: 0x8, addend: 0x0, symName: __RINvNtNtNtNtCs5FIOKSViJ8s_4core5slice4sort8unstable9quicksort9quicksortTRShyENCINvMB8_SB17_20sort_unstable_by_keyyNCNvMs_NtNtNtNtCsfB93IpvWVaK_3std12backtrace_rs9symbolize5gimli5machoNtB1V_6Object5parses0_0E0EB23_, symObjAddr: 0x12ABC, symBinAddr: 0x100011DC8, symSize: 0x3D8 }
  - { offset: 0x24DDB, size: 0x8, addend: 0x0, symName: __RINvNtCs5FIOKSViJ8s_4core3ptr13drop_in_placeINtCslJahucPx05O_9addr2line7ContextINtNtNtCse47Qg0Fv2Hd_5gimli4read12endian_slice11EndianSliceNtNtB1m_9endianity12LittleEndianEEECsfB93IpvWVaK_3std, symObjAddr: 0x4F30, symBinAddr: 0x100004920, symSize: 0x70 }
  - { offset: 0x24E85, size: 0x8, addend: 0x0, symName: __RINvNtCs5FIOKSViJ8s_4core3ptr13drop_in_placeINtNtB4_3pin3PinINtNtCs7QfUfi8dEu5_5alloc5boxed3BoxNtNtNtNtNtNtCsfB93IpvWVaK_3std3sys3pal4unix4sync5mutex5MutexEEEB1H_, symObjAddr: 0x4FA0, symBinAddr: 0x100004990, symSize: 0x2C }
  - { offset: 0x24F53, size: 0x8, addend: 0x0, symName: __RINvNtCs5FIOKSViJ8s_4core3ptr13drop_in_placeINtNtB4_6option6OptionINtNtCs7QfUfi8dEu5_5alloc5boxed3BoxSmEEECsfB93IpvWVaK_3std, symObjAddr: 0x4FCC, symBinAddr: 0x1000049BC, symSize: 0x24 }
  - { offset: 0x25013, size: 0x8, addend: 0x0, symName: __RINvNtCs5FIOKSViJ8s_4core3ptr13drop_in_placeINtNtB4_6option6OptionINtNtNtCse47Qg0Fv2Hd_5gimli4read4line21IncompleteLineProgramINtNtB17_12endian_slice11EndianSliceNtNtB19_9endianity12LittleEndianEjEEECsfB93IpvWVaK_3std, symObjAddr: 0x4FF0, symBinAddr: 0x1000049E0, symSize: 0x98 }
  - { offset: 0x25365, size: 0x8, addend: 0x0, symName: __RINvNtCs5FIOKSViJ8s_4core3ptr13drop_in_placeINtNtB4_6option6OptionNtNtCs7r4Y2Wsbri8_6object4read9ObjectMapEECsfB93IpvWVaK_3std, symObjAddr: 0x5088, symBinAddr: 0x100004A78, symSize: 0x64 }
  - { offset: 0x25526, size: 0x8, addend: 0x0, symName: __RINvNtCs5FIOKSViJ8s_4core3ptr13drop_in_placeINtNtB4_6option6OptionNtNtCsfB93IpvWVaK_3std7process10ChildStdinEEB16_, symObjAddr: 0x50EC, symBinAddr: 0x100004ADC, symSize: 0x14 }
  - { offset: 0x255AB, size: 0x8, addend: 0x0, symName: __RINvNtCs5FIOKSViJ8s_4core3ptr13drop_in_placeINtNtB4_6option6OptionNtNtNtCs7QfUfi8dEu5_5alloc3ffi5c_str7CStringEECsfB93IpvWVaK_3std, symObjAddr: 0x5100, symBinAddr: 0x100004AF0, symSize: 0x24 }
  - { offset: 0x25686, size: 0x8, addend: 0x0, symName: __RINvNtCs5FIOKSViJ8s_4core3ptr13drop_in_placeINtNtB4_6option6OptionNtNtNtNtCsfB93IpvWVaK_3std12backtrace_rs9symbolize5gimli7MappingEEB1a_, symObjAddr: 0x5124, symBinAddr: 0x100004B14, symSize: 0x6C }
  - { offset: 0x25713, size: 0x8, addend: 0x0, symName: __RINvNtCs5FIOKSViJ8s_4core3ptr13drop_in_placeINtNtB4_6option6OptionNtNtNtNtNtCsfB93IpvWVaK_3std3sys7process4unix6common5StdioEEB1c_, symObjAddr: 0x5190, symBinAddr: 0x100004B80, symSize: 0x18 }
  - { offset: 0x257BF, size: 0x8, addend: 0x0, symName: __RINvNtCs5FIOKSViJ8s_4core3ptr13drop_in_placeINtNtB4_6result6ResultINtNtB4_6option6OptionINtNtCs7QfUfi8dEu5_5alloc5boxed3BoxINtNtCslJahucPx05O_9addr2line4unit7DwoUnitINtNtNtCse47Qg0Fv2Hd_5gimli4read12endian_slice11EndianSliceNtNtB2K_9endianity12LittleEndianEEEENtB2I_5ErrorEECsfB93IpvWVaK_3std, symObjAddr: 0x51A8, symBinAddr: 0x100004B98, symSize: 0xD4 }
  - { offset: 0x25A39, size: 0x8, addend: 0x0, symName: __RINvNtCs5FIOKSViJ8s_4core3ptr13drop_in_placeINtNtB4_6result6ResultINtNtCslJahucPx05O_9addr2line5frame9FrameIterINtNtNtCse47Qg0Fv2Hd_5gimli4read12endian_slice11EndianSliceNtNtB1S_9endianity12LittleEndianEENtB1Q_5ErrorEECsfB93IpvWVaK_3std, symObjAddr: 0x527C, symBinAddr: 0x100004C6C, symSize: 0x2C }
  - { offset: 0x25B8E, size: 0x8, addend: 0x0, symName: __RINvNtCs5FIOKSViJ8s_4core3ptr13drop_in_placeINtNtB4_6result6ResultINtNtCslJahucPx05O_9addr2line8function9FunctionsINtNtNtCse47Qg0Fv2Hd_5gimli4read12endian_slice11EndianSliceNtNtB1V_9endianity12LittleEndianEENtB1T_5ErrorEECsfB93IpvWVaK_3std, symObjAddr: 0x52A8, symBinAddr: 0x100004C98, symSize: 0xD8 }
  - { offset: 0x25EC9, size: 0x8, addend: 0x0, symName: __RINvNtCs5FIOKSViJ8s_4core3ptr13drop_in_placeINtNtB4_6result6ResultINtNtNtNtCsfB93IpvWVaK_3std4sync6poison5mutex10MutexGuarduEINtB17_11PoisonErrorB12_EEEB1b_, symObjAddr: 0x5380, symBinAddr: 0x100004D70, symSize: 0x4C }
  - { offset: 0x25F03, size: 0x8, addend: 0x0, symName: __RINvNtCs5FIOKSViJ8s_4core3ptr13drop_in_placeINtNtB4_6result6ResultNtNtCsfB93IpvWVaK_3std4path7PathBufNtNtNtB16_2io5error5ErrorEEB16_, symObjAddr: 0x53CC, symBinAddr: 0x100004DBC, symSize: 0x2C }
  - { offset: 0x2601B, size: 0x8, addend: 0x0, symName: __RINvNtCs5FIOKSViJ8s_4core3ptr13drop_in_placeINtNtB4_6result6ResultNtNtCslJahucPx05O_9addr2line4line5LinesNtNtCse47Qg0Fv2Hd_5gimli4read5ErrorEECsfB93IpvWVaK_3std, symObjAddr: 0x53F8, symBinAddr: 0x100004DE8, symSize: 0xE4 }
  - { offset: 0x26318, size: 0x8, addend: 0x0, symName: __RINvNtCs5FIOKSViJ8s_4core3ptr13drop_in_placeINtNtB4_6result6ResultRIBH_INtNtB4_6option6OptionINtNtCs7QfUfi8dEu5_5alloc5boxed3BoxINtNtCslJahucPx05O_9addr2line4unit7DwoUnitINtNtNtCse47Qg0Fv2Hd_5gimli4read12endian_slice11EndianSliceNtNtB2P_9endianity12LittleEndianEEEENtB2N_5ErrorETB12_B13_EEECsfB93IpvWVaK_3std, symObjAddr: 0x54DC, symBinAddr: 0x100004ECC, symSize: 0x14 }
  - { offset: 0x26355, size: 0x8, addend: 0x0, symName: __RINvNtCs5FIOKSViJ8s_4core3ptr13drop_in_placeINtNtB4_6result6ResultRIBH_INtNtCslJahucPx05O_9addr2line8function8FunctionINtNtNtCse47Qg0Fv2Hd_5gimli4read12endian_slice11EndianSliceNtNtB1Z_9endianity12LittleEndianEENtB1X_5ErrorETB12_B13_EEECsfB93IpvWVaK_3std, symObjAddr: 0x54F0, symBinAddr: 0x100004EE0, symSize: 0x64 }
  - { offset: 0x26507, size: 0x8, addend: 0x0, symName: __RINvNtCs5FIOKSViJ8s_4core3ptr13drop_in_placeINtNtB4_6result6ResultRIBH_INtNtCslJahucPx05O_9addr2line8function9FunctionsINtNtNtCse47Qg0Fv2Hd_5gimli4read12endian_slice11EndianSliceNtNtB20_9endianity12LittleEndianEENtB1Y_5ErrorETB12_B13_EEECsfB93IpvWVaK_3std, symObjAddr: 0x5554, symBinAddr: 0x100004F44, symSize: 0x10 }
  - { offset: 0x26544, size: 0x8, addend: 0x0, symName: __RINvNtCs5FIOKSViJ8s_4core3ptr13drop_in_placeINtNtB4_6result6ResultRIBH_NtNtCslJahucPx05O_9addr2line4line5LinesNtNtCse47Qg0Fv2Hd_5gimli4read5ErrorETB12_B13_EEECsfB93IpvWVaK_3std, symObjAddr: 0x5564, symBinAddr: 0x100004F54, symSize: 0x10 }
  - { offset: 0x265A8, size: 0x8, addend: 0x0, symName: __RINvNtCs5FIOKSViJ8s_4core3ptr13drop_in_placeINtNtB4_6result6ResultRNtNtNtCsfB93IpvWVaK_3std6thread6thread6ThreadTB12_B13_EEEB19_, symObjAddr: 0x5574, symBinAddr: 0x100004F64, symSize: 0x28 }
  - { offset: 0x2669B, size: 0x8, addend: 0x0, symName: __RINvNtCs5FIOKSViJ8s_4core3ptr13drop_in_placeINtNtB4_6result6ResultjNtNtNtCsfB93IpvWVaK_3std2io5error5ErrorEEB19_, symObjAddr: 0x559C, symBinAddr: 0x100004F8C, symSize: 0x10 }
  - { offset: 0x266AE, size: 0x8, addend: 0x0, symName: __RINvNtCs5FIOKSViJ8s_4core3ptr13drop_in_placeINtNtB4_6result6ResultuNtNtNtCsfB93IpvWVaK_3std2io5error5ErrorEEB19_, symObjAddr: 0x55AC, symBinAddr: 0x100004F9C, symSize: 0x10 }
  - { offset: 0x266CE, size: 0x8, addend: 0x0, symName: __RINvNtCs5FIOKSViJ8s_4core3ptr13drop_in_placeINtNtCs7QfUfi8dEu5_5alloc3vec3VecINtNtB4_6option6OptionIB1e_NtNtNtNtCsfB93IpvWVaK_3std12backtrace_rs9symbolize5gimli7MappingEEEEB1M_, symObjAddr: 0x55BC, symBinAddr: 0x100004FAC, symSize: 0x78 }
  - { offset: 0x2688A, size: 0x8, addend: 0x0, symName: __RINvNtCs5FIOKSViJ8s_4core3ptr13drop_in_placeINtNtCs7QfUfi8dEu5_5alloc3vec3VecINtNtBL_5boxed3BoxDINtNtNtB4_3ops8function6FnOnceuEp6OutputuNtNtB4_6marker4SendEL_EEECsfB93IpvWVaK_3std, symObjAddr: 0x5634, symBinAddr: 0x100005024, symSize: 0x70 }
  - { offset: 0x26A5A, size: 0x8, addend: 0x0, symName: __RINvNtCs5FIOKSViJ8s_4core3ptr13drop_in_placeINtNtCs7QfUfi8dEu5_5alloc3vec3VecINtNtCslJahucPx05O_9addr2line4unit7ResUnitINtNtNtCse47Qg0Fv2Hd_5gimli4read12endian_slice11EndianSliceNtNtB20_9endianity12LittleEndianEEEECsfB93IpvWVaK_3std, symObjAddr: 0x56A4, symBinAddr: 0x100005094, symSize: 0xC4 }
  - { offset: 0x26C36, size: 0x8, addend: 0x0, symName: __RINvNtCs5FIOKSViJ8s_4core3ptr13drop_in_placeINtNtCs7QfUfi8dEu5_5alloc3vec3VecINtNtCslJahucPx05O_9addr2line4unit7SupUnitINtNtNtCse47Qg0Fv2Hd_5gimli4read12endian_slice11EndianSliceNtNtB20_9endianity12LittleEndianEEEECsfB93IpvWVaK_3std, symObjAddr: 0x5768, symBinAddr: 0x100005158, symSize: 0xF4 }
  - { offset: 0x26E95, size: 0x8, addend: 0x0, symName: __RINvNtCs5FIOKSViJ8s_4core3ptr13drop_in_placeINtNtCs7QfUfi8dEu5_5alloc3vec3VecINtNtCslJahucPx05O_9addr2line8function12LazyFunctionINtNtNtCse47Qg0Fv2Hd_5gimli4read12endian_slice11EndianSliceNtNtB2a_9endianity12LittleEndianEEEECsfB93IpvWVaK_3std, symObjAddr: 0x585C, symBinAddr: 0x10000524C, symSize: 0xAC }
  - { offset: 0x27144, size: 0x8, addend: 0x0, symName: __RINvNtCs5FIOKSViJ8s_4core3ptr13drop_in_placeINtNtCs7QfUfi8dEu5_5alloc3vec3VecNtNtBL_6string6StringEECsfB93IpvWVaK_3std, symObjAddr: 0x5908, symBinAddr: 0x1000052F8, symSize: 0x80 }
  - { offset: 0x272F0, size: 0x8, addend: 0x0, symName: __RINvNtCs5FIOKSViJ8s_4core3ptr13drop_in_placeINtNtCs7QfUfi8dEu5_5alloc3vec3VecNtNtCslJahucPx05O_9addr2line4line12LineSequenceEECsfB93IpvWVaK_3std, symObjAddr: 0x5988, symBinAddr: 0x100005378, symSize: 0x84 }
  - { offset: 0x274B7, size: 0x8, addend: 0x0, symName: __RINvNtCs5FIOKSViJ8s_4core3ptr13drop_in_placeINtNtCs7QfUfi8dEu5_5alloc3vec3VecNtNtNtCsfB93IpvWVaK_3std3ffi6os_str8OsStringEEB1j_, symObjAddr: 0x5A0C, symBinAddr: 0x1000053FC, symSize: 0x80 }
  - { offset: 0x2769F, size: 0x8, addend: 0x0, symName: __RINvNtCs5FIOKSViJ8s_4core3ptr13drop_in_placeINtNtCs7QfUfi8dEu5_5alloc3vec3VecTNtNtNtCsfB93IpvWVaK_3std3ffi6os_str8OsStringB1e_EEEB1k_, symObjAddr: 0x5A8C, symBinAddr: 0x10000547C, symSize: 0x94 }
  - { offset: 0x27935, size: 0x8, addend: 0x0, symName: __RINvNtCs5FIOKSViJ8s_4core3ptr13drop_in_placeINtNtCs7QfUfi8dEu5_5alloc3vec3VechEECsfB93IpvWVaK_3std, symObjAddr: 0x5B20, symBinAddr: 0x100005510, symSize: 0x18 }
  - { offset: 0x279DE, size: 0x8, addend: 0x0, symName: __RINvNtCs5FIOKSViJ8s_4core3ptr13drop_in_placeINtNtCs7QfUfi8dEu5_5alloc4sync3ArcINtNtNtNtCsfB93IpvWVaK_3std4sync6poison5mutex5MutexINtNtBL_3vec3VechEEEEB1n_, symObjAddr: 0x5B38, symBinAddr: 0x100005528, symSize: 0x20 }
  - { offset: 0x279F5, size: 0x8, addend: 0x0, symName: __RINvNtCs5FIOKSViJ8s_4core3ptr13drop_in_placeINtNtCs7QfUfi8dEu5_5alloc4sync3ArcINtNtNtNtCsfB93IpvWVaK_3std4sync6poison5mutex5MutexINtNtBL_3vec3VechEEEEB1n_, symObjAddr: 0x5B38, symBinAddr: 0x100005528, symSize: 0x20 }
  - { offset: 0x27A0A, size: 0x8, addend: 0x0, symName: __RINvNtCs5FIOKSViJ8s_4core3ptr13drop_in_placeINtNtCs7QfUfi8dEu5_5alloc4sync3ArcINtNtNtNtCsfB93IpvWVaK_3std4sync6poison5mutex5MutexINtNtBL_3vec3VechEEEEB1n_, symObjAddr: 0x5B38, symBinAddr: 0x100005528, symSize: 0x20 }
  - { offset: 0x27A1F, size: 0x8, addend: 0x0, symName: __RINvNtCs5FIOKSViJ8s_4core3ptr13drop_in_placeINtNtCs7QfUfi8dEu5_5alloc4sync3ArcINtNtNtNtCsfB93IpvWVaK_3std4sync6poison5mutex5MutexINtNtBL_3vec3VechEEEEB1n_, symObjAddr: 0x5B38, symBinAddr: 0x100005528, symSize: 0x20 }
  - { offset: 0x27A72, size: 0x8, addend: 0x0, symName: __RINvNtCs5FIOKSViJ8s_4core3ptr13drop_in_placeINtNtCs7QfUfi8dEu5_5alloc4sync3ArcNtNtNtCsfB93IpvWVaK_3std6thread9spawnhook9SpawnHookEEB1k_, symObjAddr: 0x5B58, symBinAddr: 0x100005548, symSize: 0x20 }
  - { offset: 0x27A89, size: 0x8, addend: 0x0, symName: __RINvNtCs5FIOKSViJ8s_4core3ptr13drop_in_placeINtNtCs7QfUfi8dEu5_5alloc4sync3ArcNtNtNtCsfB93IpvWVaK_3std6thread9spawnhook9SpawnHookEEB1k_, symObjAddr: 0x5B58, symBinAddr: 0x100005548, symSize: 0x20 }
  - { offset: 0x27A9E, size: 0x8, addend: 0x0, symName: __RINvNtCs5FIOKSViJ8s_4core3ptr13drop_in_placeINtNtCs7QfUfi8dEu5_5alloc4sync3ArcNtNtNtCsfB93IpvWVaK_3std6thread9spawnhook9SpawnHookEEB1k_, symObjAddr: 0x5B58, symBinAddr: 0x100005548, symSize: 0x20 }
  - { offset: 0x27AB3, size: 0x8, addend: 0x0, symName: __RINvNtCs5FIOKSViJ8s_4core3ptr13drop_in_placeINtNtCs7QfUfi8dEu5_5alloc4sync3ArcNtNtNtCsfB93IpvWVaK_3std6thread9spawnhook9SpawnHookEEB1k_, symObjAddr: 0x5B58, symBinAddr: 0x100005548, symSize: 0x20 }
  - { offset: 0x27B20, size: 0x8, addend: 0x0, symName: __RINvNtCs5FIOKSViJ8s_4core3ptr13drop_in_placeINtNtCs7QfUfi8dEu5_5alloc4sync8ArcInnerINtNtNtCse47Qg0Fv2Hd_5gimli4read5dwarf5DwarfINtNtB1o_12endian_slice11EndianSliceNtNtB1q_9endianity12LittleEndianEEEECsfB93IpvWVaK_3std, symObjAddr: 0x5B78, symBinAddr: 0x100005568, symSize: 0x5C }
  - { offset: 0x27BD4, size: 0x8, addend: 0x0, symName: __RINvNtCs5FIOKSViJ8s_4core3ptr13drop_in_placeINtNtCs7QfUfi8dEu5_5alloc4sync8ArcInnerNtNtNtNtCsfB93IpvWVaK_3std3sys2fs4unix12InnerReadDirEEB1r_, symObjAddr: 0x5BD4, symBinAddr: 0x1000055C4, symSize: 0x60 }
  - { offset: 0x27DCC, size: 0x8, addend: 0x0, symName: __RINvNtCs5FIOKSViJ8s_4core3ptr13drop_in_placeINtNtCs7QfUfi8dEu5_5alloc5boxed3BoxDG0_INtNtNtB4_3ops8function2FnTRL1_INtNtCsfB93IpvWVaK_3std5panic13PanicHookInfoL0_EEEp6OutputuNtNtB4_6marker4SyncNtB2N_4SendEL_EEB1T_, symObjAddr: 0x5C34, symBinAddr: 0x100005624, symSize: 0x78 }
  - { offset: 0x27F68, size: 0x8, addend: 0x0, symName: __RINvNtCs5FIOKSViJ8s_4core3ptr13drop_in_placeINtNtCs7QfUfi8dEu5_5alloc5boxed3BoxNtNtNtCsfB93IpvWVaK_3std6thread9lifecycle10ThreadInitEEB1l_, symObjAddr: 0x5CAC, symBinAddr: 0x10000569C, symSize: 0xAC }
  - { offset: 0x282C1, size: 0x8, addend: 0x0, symName: __RINvNtCs5FIOKSViJ8s_4core3ptr13drop_in_placeINtNtCs7QfUfi8dEu5_5alloc5boxed3BoxSINtNtB4_6option6OptionIB1h_NtNtNtNtCsfB93IpvWVaK_3std12backtrace_rs9symbolize5gimli7MappingEEEEB1P_, symObjAddr: 0x5D58, symBinAddr: 0x100005748, symSize: 0xF8 }
  - { offset: 0x28431, size: 0x8, addend: 0x0, symName: __RINvNtCs5FIOKSViJ8s_4core3ptr13drop_in_placeINtNtCs7QfUfi8dEu5_5alloc5boxed3BoxSINtNtCslJahucPx05O_9addr2line8function12LazyFunctionINtNtNtCse47Qg0Fv2Hd_5gimli4read12endian_slice11EndianSliceNtNtB2d_9endianity12LittleEndianEEEECsfB93IpvWVaK_3std, symObjAddr: 0x5E50, symBinAddr: 0x100005840, symSize: 0x9C }
  - { offset: 0x28448, size: 0x8, addend: 0x0, symName: __RINvNtCs5FIOKSViJ8s_4core3ptr13drop_in_placeINtNtCs7QfUfi8dEu5_5alloc5boxed3BoxSINtNtCslJahucPx05O_9addr2line8function12LazyFunctionINtNtNtCse47Qg0Fv2Hd_5gimli4read12endian_slice11EndianSliceNtNtB2d_9endianity12LittleEndianEEEECsfB93IpvWVaK_3std, symObjAddr: 0x5E50, symBinAddr: 0x100005840, symSize: 0x9C }
  - { offset: 0x2869D, size: 0x8, addend: 0x0, symName: __RINvNtCs5FIOKSViJ8s_4core3ptr13drop_in_placeINtNtCs7QfUfi8dEu5_5alloc5boxed3BoxSNtNtBL_6string6StringEECsfB93IpvWVaK_3std, symObjAddr: 0x5EEC, symBinAddr: 0x1000058DC, symSize: 0x70 }
  - { offset: 0x286B4, size: 0x8, addend: 0x0, symName: __RINvNtCs5FIOKSViJ8s_4core3ptr13drop_in_placeINtNtCs7QfUfi8dEu5_5alloc5boxed3BoxSNtNtBL_6string6StringEECsfB93IpvWVaK_3std, symObjAddr: 0x5EEC, symBinAddr: 0x1000058DC, symSize: 0x70 }
  - { offset: 0x28895, size: 0x8, addend: 0x0, symName: __RINvNtCs5FIOKSViJ8s_4core3ptr13drop_in_placeINtNtCslJahucPx05O_9addr2line4unit7ResUnitINtNtNtCse47Qg0Fv2Hd_5gimli4read12endian_slice11EndianSliceNtNtB1t_9endianity12LittleEndianEEECsfB93IpvWVaK_3std, symObjAddr: 0x5F5C, symBinAddr: 0x10000594C, symSize: 0xE4 }
  - { offset: 0x28AB2, size: 0x8, addend: 0x0, symName: __RINvNtCs5FIOKSViJ8s_4core3ptr13drop_in_placeINtNtCslJahucPx05O_9addr2line4unit7SupUnitINtNtNtCse47Qg0Fv2Hd_5gimli4read12endian_slice11EndianSliceNtNtB1t_9endianity12LittleEndianEEECsfB93IpvWVaK_3std, symObjAddr: 0x6040, symBinAddr: 0x100005A30, symSize: 0x54 }
  - { offset: 0x28B7C, size: 0x8, addend: 0x0, symName: __RINvNtCs5FIOKSViJ8s_4core3ptr13drop_in_placeINtNtCslJahucPx05O_9addr2line4unit8ResUnitsINtNtNtCse47Qg0Fv2Hd_5gimli4read12endian_slice11EndianSliceNtNtB1u_9endianity12LittleEndianEEECsfB93IpvWVaK_3std, symObjAddr: 0x6094, symBinAddr: 0x100005A84, symSize: 0xD0 }
  - { offset: 0x28D87, size: 0x8, addend: 0x0, symName: __RINvNtCs5FIOKSViJ8s_4core3ptr13drop_in_placeINtNtCslJahucPx05O_9addr2line4unit8SupUnitsINtNtNtCse47Qg0Fv2Hd_5gimli4read12endian_slice11EndianSliceNtNtB1u_9endianity12LittleEndianEEECsfB93IpvWVaK_3std, symObjAddr: 0x6164, symBinAddr: 0x100005B54, symSize: 0xE4 }
  - { offset: 0x28F8C, size: 0x8, addend: 0x0, symName: __RINvNtCs5FIOKSViJ8s_4core3ptr13drop_in_placeINtNtCslJahucPx05O_9addr2line8function12LazyFunctionINtNtNtCse47Qg0Fv2Hd_5gimli4read12endian_slice11EndianSliceNtNtB1D_9endianity12LittleEndianEEECsfB93IpvWVaK_3std, symObjAddr: 0x6248, symBinAddr: 0x100005C38, symSize: 0x64 }
  - { offset: 0x28FA3, size: 0x8, addend: 0x0, symName: __RINvNtCs5FIOKSViJ8s_4core3ptr13drop_in_placeINtNtCslJahucPx05O_9addr2line8function12LazyFunctionINtNtNtCse47Qg0Fv2Hd_5gimli4read12endian_slice11EndianSliceNtNtB1D_9endianity12LittleEndianEEECsfB93IpvWVaK_3std, symObjAddr: 0x6248, symBinAddr: 0x100005C38, symSize: 0x64 }
  - { offset: 0x28FB8, size: 0x8, addend: 0x0, symName: __RINvNtCs5FIOKSViJ8s_4core3ptr13drop_in_placeINtNtCslJahucPx05O_9addr2line8function12LazyFunctionINtNtNtCse47Qg0Fv2Hd_5gimli4read12endian_slice11EndianSliceNtNtB1D_9endianity12LittleEndianEEECsfB93IpvWVaK_3std, symObjAddr: 0x6248, symBinAddr: 0x100005C38, symSize: 0x64 }
  - { offset: 0x28FCD, size: 0x8, addend: 0x0, symName: __RINvNtCs5FIOKSViJ8s_4core3ptr13drop_in_placeINtNtCslJahucPx05O_9addr2line8function12LazyFunctionINtNtNtCse47Qg0Fv2Hd_5gimli4read12endian_slice11EndianSliceNtNtB1D_9endianity12LittleEndianEEECsfB93IpvWVaK_3std, symObjAddr: 0x6248, symBinAddr: 0x100005C38, symSize: 0x64 }
  - { offset: 0x29156, size: 0x8, addend: 0x0, symName: __RINvNtCs5FIOKSViJ8s_4core3ptr13drop_in_placeINtNtNtB4_3mem10drop_guard9DropGuardQINtNtBL_12maybe_uninit11MaybeUninitNtNtNtNtNtNtNtCs4URNVEKf7z4_4libc3new5apple10libpthread3sys8__pthread14__pthread_types14pthread_attr_tENCNvMs0_NtNtNtCsfB93IpvWVaK_3std3sys6thread4unixNtB3D_6Thread3new0EEB3J_, symObjAddr: 0x62AC, symBinAddr: 0x100005C9C, symSize: 0x44 }
  - { offset: 0x29191, size: 0x8, addend: 0x0, symName: __RINvNtCs5FIOKSViJ8s_4core3ptr13drop_in_placeINtNtNtCs7QfUfi8dEu5_5alloc3vec9into_iter8IntoIterINtNtBN_5boxed3BoxDINtNtNtB4_3ops8function6FnOnceuEp6OutputuNtNtB4_6marker4SendEL_EEECsfB93IpvWVaK_3std, symObjAddr: 0x62F0, symBinAddr: 0x100005CE0, symSize: 0x74 }
  - { offset: 0x293E6, size: 0x8, addend: 0x0, symName: __RINvNtCs5FIOKSViJ8s_4core3ptr13drop_in_placeINtNtNtCse47Qg0Fv2Hd_5gimli4read4line8LineRowsINtNtBL_12endian_slice11EndianSliceNtNtBN_9endianity12LittleEndianEINtBJ_21IncompleteLineProgramB1q_jEjEECsfB93IpvWVaK_3std, symObjAddr: 0x6364, symBinAddr: 0x100005D54, symSize: 0x8C }
  - { offset: 0x296EA, size: 0x8, addend: 0x0, symName: __RINvNtCs5FIOKSViJ8s_4core3ptr13drop_in_placeINtNtNtCse47Qg0Fv2Hd_5gimli4read5dwarf4UnitINtNtBL_12endian_slice11EndianSliceNtNtBN_9endianity12LittleEndianEjEECsfB93IpvWVaK_3std, symObjAddr: 0x63F0, symBinAddr: 0x100005DE0, symSize: 0x54 }
  - { offset: 0x29784, size: 0x8, addend: 0x0, symName: __RINvNtCs5FIOKSViJ8s_4core3ptr13drop_in_placeINtNtNtCse47Qg0Fv2Hd_5gimli4read5dwarf5DwarfINtNtBL_12endian_slice11EndianSliceNtNtBN_9endianity12LittleEndianEEECsfB93IpvWVaK_3std, symObjAddr: 0x6444, symBinAddr: 0x100005E34, symSize: 0x58 }
  - { offset: 0x29840, size: 0x8, addend: 0x0, symName: __RINvNtCs5FIOKSViJ8s_4core3ptr13drop_in_placeINtNtNtNtCs7QfUfi8dEu5_5alloc11collections5btree3map8BTreeMapNtNtNtCsfB93IpvWVaK_3std3ffi6os_str8OsStringB1F_EEB1L_, symObjAddr: 0x649C, symBinAddr: 0x100005E8C, symSize: 0xB8 }
  - { offset: 0x29AF3, size: 0x8, addend: 0x0, symName: __RINvNtCs5FIOKSViJ8s_4core3ptr13drop_in_placeINtNtNtNtCs7QfUfi8dEu5_5alloc11collections5btree3map8BTreeMapNtNtNtCsfB93IpvWVaK_3std3ffi6os_str8OsStringINtNtB4_6option6OptionB1F_EEEB1L_, symObjAddr: 0x6554, symBinAddr: 0x100005F44, symSize: 0xBC }
  - { offset: 0x29D93, size: 0x8, addend: 0x0, symName: __RINvNtCs5FIOKSViJ8s_4core3ptr13drop_in_placeINtNtNtNtCs7QfUfi8dEu5_5alloc11collections5btree3map8IntoIterNtNtNtCsfB93IpvWVaK_3std3ffi6os_str8OsStringB1F_EEB1L_, symObjAddr: 0x6610, symBinAddr: 0x100006000, symSize: 0x90 }
  - { offset: 0x29FD3, size: 0x8, addend: 0x0, symName: __RINvNtCs5FIOKSViJ8s_4core3ptr13drop_in_placeINtNtNtNtCsfB93IpvWVaK_3std2io8buffered10linewriter10LineWriterNtNtBN_5stdio9StdoutRawEEBP_, symObjAddr: 0x66A0, symBinAddr: 0x100006090, symSize: 0x84 }
  - { offset: 0x2A176, size: 0x8, addend: 0x0, symName: __RINvNtCs5FIOKSViJ8s_4core3ptr13drop_in_placeINtNtNtNtCsfB93IpvWVaK_3std3sys16platform_version6darwin8DeferredNCNvBJ_18string_version_key0EEBP_, symObjAddr: 0x6724, symBinAddr: 0x100006114, symSize: 0x7C }
  - { offset: 0x2A239, size: 0x8, addend: 0x0, symName: __RINvNtCs5FIOKSViJ8s_4core3ptr13drop_in_placeINtNtNtNtCsfB93IpvWVaK_3std4sync6poison5mutex10MutexGuardINtNtCs7QfUfi8dEu5_5alloc3vec3VechEEEBP_, symObjAddr: 0x67A0, symBinAddr: 0x100006190, symSize: 0x54 }
  - { offset: 0x2A250, size: 0x8, addend: 0x0, symName: __RINvNtCs5FIOKSViJ8s_4core3ptr13drop_in_placeINtNtNtNtCsfB93IpvWVaK_3std4sync6poison5mutex10MutexGuardINtNtCs7QfUfi8dEu5_5alloc3vec3VechEEEBP_, symObjAddr: 0x67A0, symBinAddr: 0x100006190, symSize: 0x54 }
  - { offset: 0x2A32F, size: 0x8, addend: 0x0, symName: __RINvNtCs5FIOKSViJ8s_4core3ptr13drop_in_placeINtNtNtNtCsfB93IpvWVaK_3std4sync6poison6rwlock15RwLockReadGuarduEEBP_, symObjAddr: 0x67F4, symBinAddr: 0x1000061E4, symSize: 0x58 }
  - { offset: 0x2A3C8, size: 0x8, addend: 0x0, symName: __RINvNtCs5FIOKSViJ8s_4core3ptr13drop_in_placeINtNvNtCsfB93IpvWVaK_3std2io17default_write_fmt7AdapterINtNtBL_6cursor6CursorQShEEEBN_, symObjAddr: 0x684C, symBinAddr: 0x10000623C, symSize: 0x10 }
  - { offset: 0x2A3DF, size: 0x8, addend: 0x0, symName: __RINvNtCs5FIOKSViJ8s_4core3ptr13drop_in_placeINtNvNtCsfB93IpvWVaK_3std2io17default_write_fmt7AdapterINtNtBL_6cursor6CursorQShEEEBN_, symObjAddr: 0x684C, symBinAddr: 0x10000623C, symSize: 0x10 }
  - { offset: 0x2A40B, size: 0x8, addend: 0x0, symName: __RINvNtCs5FIOKSViJ8s_4core3ptr13drop_in_placeINtNvXsy_NtNtNtCs7QfUfi8dEu5_5alloc11collections5btree3mapINtBP_8IntoIterpppENtNtNtB4_3ops4drop4Drop4drop9DropGuardyINtNtB4_6result6ResultINtNtBV_4sync3ArcNtNtNtCse47Qg0Fv2Hd_5gimli4read6abbrev13AbbreviationsENtB3f_5ErrorENtNtBV_5alloc6GlobalEECsfB93IpvWVaK_3std, symObjAddr: 0x685C, symBinAddr: 0x10000624C, symSize: 0x84 }
  - { offset: 0x2A579, size: 0x8, addend: 0x0, symName: __RINvNtCs5FIOKSViJ8s_4core3ptr13drop_in_placeNCNvNtNtCsfB93IpvWVaK_3std3sys9backtrace10__print_fmt0EBO_, symObjAddr: 0x68E0, symBinAddr: 0x1000062D0, symSize: 0x1C }
  - { offset: 0x2A698, size: 0x8, addend: 0x0, symName: __RINvNtCs5FIOKSViJ8s_4core3ptr13drop_in_placeNCNvXs4_NtCsfB93IpvWVaK_3std9backtraceNtBO_9BacktraceNtNtB4_3fmt7Display3fmt0EBQ_, symObjAddr: 0x68FC, symBinAddr: 0x1000062EC, symSize: 0x2C }
  - { offset: 0x2A6AF, size: 0x8, addend: 0x0, symName: __RINvNtCs5FIOKSViJ8s_4core3ptr13drop_in_placeNCNvXs4_NtCsfB93IpvWVaK_3std9backtraceNtBO_9BacktraceNtNtB4_3fmt7Display3fmt0EBQ_, symObjAddr: 0x68FC, symBinAddr: 0x1000062EC, symSize: 0x2C }
  - { offset: 0x2A79F, size: 0x8, addend: 0x0, symName: __RINvNtCs5FIOKSViJ8s_4core3ptr13drop_in_placeNtNtCs7QfUfi8dEu5_5alloc6string6StringECsfB93IpvWVaK_3std, symObjAddr: 0x6928, symBinAddr: 0x100006318, symSize: 0x18 }
  - { offset: 0x2A7B6, size: 0x8, addend: 0x0, symName: __RINvNtCs5FIOKSViJ8s_4core3ptr13drop_in_placeNtNtCs7QfUfi8dEu5_5alloc6string6StringECsfB93IpvWVaK_3std, symObjAddr: 0x6928, symBinAddr: 0x100006318, symSize: 0x18 }
  - { offset: 0x2A85E, size: 0x8, addend: 0x0, symName: __RINvNtCs5FIOKSViJ8s_4core3ptr13drop_in_placeNtNtCs7r4Y2Wsbri8_6object4read9ObjectMapECsfB93IpvWVaK_3std, symObjAddr: 0x6940, symBinAddr: 0x100006330, symSize: 0x58 }
  - { offset: 0x2AA09, size: 0x8, addend: 0x0, symName: __RINvNtCs5FIOKSViJ8s_4core3ptr13drop_in_placeNtNtCsfB93IpvWVaK_3std3env6VarsOsEBK_, symObjAddr: 0x6998, symBinAddr: 0x100006388, symSize: 0xAC }
  - { offset: 0x2ACC8, size: 0x8, addend: 0x0, symName: __RINvNtCs5FIOKSViJ8s_4core3ptr13drop_in_placeNtNtCsfB93IpvWVaK_3std4path7PathBufEBK_, symObjAddr: 0x6A44, symBinAddr: 0x100006434, symSize: 0x18 }
  - { offset: 0x2ACDF, size: 0x8, addend: 0x0, symName: __RINvNtCs5FIOKSViJ8s_4core3ptr13drop_in_placeNtNtCsfB93IpvWVaK_3std4path7PathBufEBK_, symObjAddr: 0x6A44, symBinAddr: 0x100006434, symSize: 0x18 }
  - { offset: 0x2ADB0, size: 0x8, addend: 0x0, symName: __RINvNtCs5FIOKSViJ8s_4core3ptr13drop_in_placeNtNtCsfB93IpvWVaK_3std7process10StdioPipesEBK_, symObjAddr: 0x6A5C, symBinAddr: 0x10000644C, symSize: 0x54 }
  - { offset: 0x2AF0A, size: 0x8, addend: 0x0, symName: __RINvNtCs5FIOKSViJ8s_4core3ptr13drop_in_placeNtNtCsfB93IpvWVaK_3std7process5ChildEBK_, symObjAddr: 0x6AB0, symBinAddr: 0x1000064A0, symSize: 0x54 }
  - { offset: 0x2B0DA, size: 0x8, addend: 0x0, symName: __RINvNtCs5FIOKSViJ8s_4core3ptr13drop_in_placeNtNtCsfB93IpvWVaK_3std9backtrace14BacktraceFrameEBK_, symObjAddr: 0x6B04, symBinAddr: 0x1000064F4, symSize: 0xC0 }
  - { offset: 0x2B43C, size: 0x8, addend: 0x0, symName: __RINvNtCs5FIOKSViJ8s_4core3ptr13drop_in_placeNtNtCsfB93IpvWVaK_3std9backtrace15BacktraceSymbolEBK_, symObjAddr: 0x6BC4, symBinAddr: 0x1000065B4, symSize: 0x78 }
  - { offset: 0x2B6B3, size: 0x8, addend: 0x0, symName: __RINvNtCs5FIOKSViJ8s_4core3ptr13drop_in_placeNtNtCsfB93IpvWVaK_3std9backtrace7CaptureEBK_, symObjAddr: 0x6C3C, symBinAddr: 0x10000662C, symSize: 0x6C }
  - { offset: 0x2B7DF, size: 0x8, addend: 0x0, symName: __RINvNtCs5FIOKSViJ8s_4core3ptr13drop_in_placeNtNtCsfB93IpvWVaK_3std9panicking4HookEBK_, symObjAddr: 0x6CA8, symBinAddr: 0x100006698, symSize: 0x7C }
  - { offset: 0x2B96F, size: 0x8, addend: 0x0, symName: __RINvNtCs5FIOKSViJ8s_4core3ptr13drop_in_placeNtNtNtCs7QfUfi8dEu5_5alloc3ffi5c_str7CStringECsfB93IpvWVaK_3std, symObjAddr: 0x6D24, symBinAddr: 0x100006714, symSize: 0x20 }
  - { offset: 0x2BA1A, size: 0x8, addend: 0x0, symName: __RINvNtCs5FIOKSViJ8s_4core3ptr13drop_in_placeNtNtNtCs7QfUfi8dEu5_5alloc3ffi5c_str8NulErrorECsfB93IpvWVaK_3std, symObjAddr: 0x6D44, symBinAddr: 0x100006734, symSize: 0x18 }
  - { offset: 0x2BA31, size: 0x8, addend: 0x0, symName: __RINvNtCs5FIOKSViJ8s_4core3ptr13drop_in_placeNtNtNtCs7QfUfi8dEu5_5alloc3ffi5c_str8NulErrorECsfB93IpvWVaK_3std, symObjAddr: 0x6D44, symBinAddr: 0x100006734, symSize: 0x18 }
  - { offset: 0x2BB68, size: 0x8, addend: 0x0, symName: __RINvNtCs5FIOKSViJ8s_4core3ptr13drop_in_placeNtNtNtCse47Qg0Fv2Hd_5gimli4read6abbrev13AbbreviationsECsfB93IpvWVaK_3std, symObjAddr: 0x6D5C, symBinAddr: 0x10000674C, symSize: 0x118 }
  - { offset: 0x2BF62, size: 0x8, addend: 0x0, symName: __RINvNtCs5FIOKSViJ8s_4core3ptr13drop_in_placeNtNtNtCse47Qg0Fv2Hd_5gimli4read6abbrev18AbbreviationsCacheECsfB93IpvWVaK_3std, symObjAddr: 0x6E74, symBinAddr: 0x100006864, symSize: 0xCC }
  - { offset: 0x2C14B, size: 0x8, addend: 0x0, symName: __RINvNtCs5FIOKSViJ8s_4core3ptr13drop_in_placeNtNtNtCsfB93IpvWVaK_3std2io5error5ErrorEBM_, symObjAddr: 0x6F40, symBinAddr: 0x100006930, symSize: 0xB4 }
  - { offset: 0x2C423, size: 0x8, addend: 0x0, symName: __RINvNtCs5FIOKSViJ8s_4core3ptr13drop_in_placeNtNtNtCsfB93IpvWVaK_3std3ffi6os_str8OsStringEBM_, symObjAddr: 0x6FF4, symBinAddr: 0x1000069E4, symSize: 0x18 }
  - { offset: 0x2C4E8, size: 0x8, addend: 0x0, symName: __RINvNtCs5FIOKSViJ8s_4core3ptr13drop_in_placeNtNtNtCsfB93IpvWVaK_3std6thread6thread6ThreadEBM_, symObjAddr: 0x700C, symBinAddr: 0x1000069FC, symSize: 0x20 }
  - { offset: 0x2C4FF, size: 0x8, addend: 0x0, symName: __RINvNtCs5FIOKSViJ8s_4core3ptr13drop_in_placeNtNtNtCsfB93IpvWVaK_3std6thread6thread6ThreadEBM_, symObjAddr: 0x700C, symBinAddr: 0x1000069FC, symSize: 0x20 }
  - { offset: 0x2C514, size: 0x8, addend: 0x0, symName: __RINvNtCs5FIOKSViJ8s_4core3ptr13drop_in_placeNtNtNtCsfB93IpvWVaK_3std6thread6thread6ThreadEBM_, symObjAddr: 0x700C, symBinAddr: 0x1000069FC, symSize: 0x20 }
  - { offset: 0x2C529, size: 0x8, addend: 0x0, symName: __RINvNtCs5FIOKSViJ8s_4core3ptr13drop_in_placeNtNtNtCsfB93IpvWVaK_3std6thread6thread6ThreadEBM_, symObjAddr: 0x700C, symBinAddr: 0x1000069FC, symSize: 0x20 }
  - { offset: 0x2C53E, size: 0x8, addend: 0x0, symName: __RINvNtCs5FIOKSViJ8s_4core3ptr13drop_in_placeNtNtNtCsfB93IpvWVaK_3std6thread6thread6ThreadEBM_, symObjAddr: 0x700C, symBinAddr: 0x1000069FC, symSize: 0x20 }
  - { offset: 0x2C553, size: 0x8, addend: 0x0, symName: __RINvNtCs5FIOKSViJ8s_4core3ptr13drop_in_placeNtNtNtCsfB93IpvWVaK_3std6thread6thread6ThreadEBM_, symObjAddr: 0x700C, symBinAddr: 0x1000069FC, symSize: 0x20 }
  - { offset: 0x2C5C2, size: 0x8, addend: 0x0, symName: __RINvNtCs5FIOKSViJ8s_4core3ptr13drop_in_placeNtNtNtCsfB93IpvWVaK_3std6thread9spawnhook10SpawnHooksEBM_, symObjAddr: 0x702C, symBinAddr: 0x100006A1C, symSize: 0x80 }
  - { offset: 0x2C6E5, size: 0x8, addend: 0x0, symName: __RINvNtCs5FIOKSViJ8s_4core3ptr13drop_in_placeNtNtNtCsfB93IpvWVaK_3std6thread9spawnhook9SpawnHookEBM_, symObjAddr: 0x70AC, symBinAddr: 0x100006A9C, symSize: 0xB4 }
  - { offset: 0x2C912, size: 0x8, addend: 0x0, symName: __RINvNtCs5FIOKSViJ8s_4core3ptr13drop_in_placeNtNtNtNtCsfB93IpvWVaK_3std12backtrace_rs9backtrace9libunwind4BombEBO_, symObjAddr: 0x7160, symBinAddr: 0x100006B50, symSize: 0x28 }
  - { offset: 0x2C97B, size: 0x8, addend: 0x0, symName: __RINvNtCs5FIOKSViJ8s_4core3ptr13drop_in_placeNtNtNtNtCsfB93IpvWVaK_3std12backtrace_rs9symbolize5gimli7ContextEBO_, symObjAddr: 0x7188, symBinAddr: 0x100006B78, symSize: 0xE8 }
  - { offset: 0x2CC8D, size: 0x8, addend: 0x0, symName: __RINvNtCs5FIOKSViJ8s_4core3ptr13drop_in_placeNtNtNtNtCsfB93IpvWVaK_3std3sys2fd4unix8FileDescEBO_, symObjAddr: 0x7270, symBinAddr: 0x100006C60, symSize: 0x8 }
  - { offset: 0x2CCCC, size: 0x8, addend: 0x0, symName: __RINvNtCs5FIOKSViJ8s_4core3ptr13drop_in_placeNtNtNtNtCsfB93IpvWVaK_3std3sys3env6common3EnvEBO_, symObjAddr: 0x7278, symBinAddr: 0x100006C68, symSize: 0xAC }
  - { offset: 0x2CF8F, size: 0x8, addend: 0x0, symName: __RINvNtCs5FIOKSViJ8s_4core3ptr13drop_in_placeNtNtNtNtCsfB93IpvWVaK_3std3sys4args6common4ArgsEBO_, symObjAddr: 0x7324, symBinAddr: 0x100006D14, symSize: 0x98 }
  - { offset: 0x2D177, size: 0x8, addend: 0x0, symName: __RINvNtCs5FIOKSViJ8s_4core3ptr13drop_in_placeNtNtNtNtCsfB93IpvWVaK_3std3sys7process3env10CommandEnvEBO_, symObjAddr: 0x73BC, symBinAddr: 0x100006DAC, symSize: 0xBC }
  - { offset: 0x2D441, size: 0x8, addend: 0x0, symName: __RINvNtCs5FIOKSViJ8s_4core3ptr13drop_in_placeNtNtNtNtNtCsfB93IpvWVaK_3std12backtrace_rs9symbolize5gimli5macho6ObjectEBQ_, symObjAddr: 0x7478, symBinAddr: 0x100006E68, symSize: 0xD8 }
  - { offset: 0x2D844, size: 0x8, addend: 0x0, symName: __RINvNtCs5FIOKSViJ8s_4core3ptr13drop_in_placeNtNtNtNtNtCsfB93IpvWVaK_3std12backtrace_rs9symbolize5gimli5stash5StashEBQ_, symObjAddr: 0x7550, symBinAddr: 0x100006F40, symSize: 0xB8 }
  - { offset: 0x2DB5B, size: 0x8, addend: 0x0, symName: __RINvNtCs5FIOKSViJ8s_4core3ptr13drop_in_placeNtNtNtNtNtCsfB93IpvWVaK_3std3sys3pal4unix14stack_overflow7HandlerEBQ_, symObjAddr: 0x7608, symBinAddr: 0x100006FF8, symSize: 0x4 }
  - { offset: 0x2DB72, size: 0x8, addend: 0x0, symName: __RINvNtCs5FIOKSViJ8s_4core3ptr13drop_in_placeNtNtNtNtNtCsfB93IpvWVaK_3std3sys3pal4unix14stack_overflow7HandlerEBQ_, symObjAddr: 0x7608, symBinAddr: 0x100006FF8, symSize: 0x4 }
  - { offset: 0x2DB84, size: 0x8, addend: 0x0, symName: __RINvNtCs5FIOKSViJ8s_4core3ptr13drop_in_placeNtNtNtNtNtCsfB93IpvWVaK_3std3sys4sync4once5queue11WaiterQueueEBQ_, symObjAddr: 0x760C, symBinAddr: 0x100006FFC, symSize: 0xD4 }
  - { offset: 0x2DD73, size: 0x8, addend: 0x0, symName: __RINvNtCs5FIOKSViJ8s_4core3ptr13drop_in_placeNtNtNtNtNtCsfB93IpvWVaK_3std3sys7process4unix6common10ChildPipesEBQ_, symObjAddr: 0x76E0, symBinAddr: 0x1000070D0, symSize: 0x78 }
  - { offset: 0x2DE74, size: 0x8, addend: 0x0, symName: __RINvNtCs5FIOKSViJ8s_4core3ptr13drop_in_placeNtNtNtNtNtNtCsfB93IpvWVaK_3std3sys3pal4unix4sync5mutex9AttrGuardEBS_, symObjAddr: 0x7758, symBinAddr: 0x100007148, symSize: 0x44 }
  - { offset: 0x2DEAF, size: 0x8, addend: 0x0, symName: __RINvNtCs5FIOKSViJ8s_4core3ptr13drop_in_placeNtNtNtNtNtNtCsfB93IpvWVaK_3std3sys7process4unix6common13cstring_array12CStringArrayEBS_, symObjAddr: 0x779C, symBinAddr: 0x10000718C, symSize: 0xD4 }
  - { offset: 0x2E296, size: 0x8, addend: 0x0, symName: __RINvNtCs5FIOKSViJ8s_4core3ptr13drop_in_placeNtNvMs_NtNtNtCsfB93IpvWVaK_3std2io8buffered9bufwriterINtBN_9BufWriterpE9flush_buf8BufGuardEBT_, symObjAddr: 0x7870, symBinAddr: 0x100007260, symSize: 0x5C }
  - { offset: 0x2E40C, size: 0x8, addend: 0x0, symName: __RINvNtCs5FIOKSViJ8s_4core3ptr13drop_in_placeNtNvNtCsfB93IpvWVaK_3std9panicking13resume_unwind9RewrapBoxEBM_, symObjAddr: 0x78CC, symBinAddr: 0x1000072BC, symSize: 0x7C }
  - { offset: 0x2E594, size: 0x8, addend: 0x0, symName: __RINvNtCs5FIOKSViJ8s_4core3ptr13drop_in_placeNtNvXsf_NtNtCs7QfUfi8dEu5_5alloc5boxed7convertINtBQ_3BoxDNtNtB4_5error5ErrorNtNtB4_6marker4SyncNtB1W_4SendEL_EINtNtB4_7convert4FromNtNtBS_6string6StringE4from11StringErrorECsfB93IpvWVaK_3std, symObjAddr: 0x7948, symBinAddr: 0x100007338, symSize: 0x18 }
  - { offset: 0x2E5AB, size: 0x8, addend: 0x0, symName: __RINvNtCs5FIOKSViJ8s_4core3ptr13drop_in_placeNtNvXsf_NtNtCs7QfUfi8dEu5_5alloc5boxed7convertINtBQ_3BoxDNtNtB4_5error5ErrorNtNtB4_6marker4SyncNtB1W_4SendEL_EINtNtB4_7convert4FromNtNtBS_6string6StringE4from11StringErrorECsfB93IpvWVaK_3std, symObjAddr: 0x7948, symBinAddr: 0x100007338, symSize: 0x18 }
  - { offset: 0x2E5C0, size: 0x8, addend: 0x0, symName: __RINvNtCs5FIOKSViJ8s_4core3ptr13drop_in_placeNtNvXsf_NtNtCs7QfUfi8dEu5_5alloc5boxed7convertINtBQ_3BoxDNtNtB4_5error5ErrorNtNtB4_6marker4SyncNtB1W_4SendEL_EINtNtB4_7convert4FromNtNtBS_6string6StringE4from11StringErrorECsfB93IpvWVaK_3std, symObjAddr: 0x7948, symBinAddr: 0x100007338, symSize: 0x18 }
  - { offset: 0x2E676, size: 0x8, addend: 0x0, symName: __RINvNtCs5FIOKSViJ8s_4core3ptr13drop_in_placeSINtNtB4_6option6OptionIBI_NtNtNtNtCsfB93IpvWVaK_3std12backtrace_rs9symbolize5gimli7MappingEEEB1f_, symObjAddr: 0x7960, symBinAddr: 0x100007350, symSize: 0xD0 }
  - { offset: 0x2E71F, size: 0x8, addend: 0x0, symName: __RINvNtCs5FIOKSViJ8s_4core3ptr13drop_in_placeSINtNtCs7QfUfi8dEu5_5alloc5boxed3BoxDINtNtNtB4_3ops8function6FnOnceuEp6OutputuNtNtB4_6marker4SendEL_EECsfB93IpvWVaK_3std, symObjAddr: 0x7A30, symBinAddr: 0x100007420, symSize: 0xAC }
  - { offset: 0x2E8B6, size: 0x8, addend: 0x0, symName: __RINvNtCs5FIOKSViJ8s_4core3ptr13drop_in_placeTNtNtNtCsfB93IpvWVaK_3std3ffi6os_str8OsStringBH_EEBN_, symObjAddr: 0x7ADC, symBinAddr: 0x1000074CC, symSize: 0x4C }
  - { offset: 0x2EA58, size: 0x8, addend: 0x0, symName: __RINvNtCs5FIOKSViJ8s_4core3ptr13drop_in_placeTNtNtNtCsfB93IpvWVaK_3std3ffi6os_str8OsStringINtNtB4_6option6OptionBH_EEEBN_, symObjAddr: 0x7B28, symBinAddr: 0x100007518, symSize: 0x50 }
  - { offset: 0x30FCF, size: 0x8, addend: 0x0, symName: __RNvXsF_NtNtCs5FIOKSViJ8s_4core3num7nonzeroINtB5_7NonZerolENtNtB9_3fmt5Debug3fmtCsfB93IpvWVaK_3std, symObjAddr: 0x46758, symBinAddr: 0x1000438DC, symSize: 0x48 }
  - { offset: 0x31308, size: 0x8, addend: 0x0, symName: __RNvXs5_NtNtCs5FIOKSViJ8s_4core3num5errorNtB5_15TryFromIntErrorNtNtB9_3fmt5Debug3fmt, symObjAddr: 0x43C7C, symBinAddr: 0x100040E00, symSize: 0x40 }
  - { offset: 0x366C8, size: 0x8, addend: 0x0, symName: __RNvXsa_NtCs5FIOKSViJ8s_4core5arrayAhj8_NtNtB7_3fmt5Debug3fmtCsfB93IpvWVaK_3std, symObjAddr: 0x48D18, symBinAddr: 0x100045E9C, symSize: 0xFC }
  - { offset: 0x37031, size: 0x8, addend: 0x0, symName: __RNvXsu_NtNtCs5FIOKSViJ8s_4core3ffi5c_strNtB5_22FromBytesUntilNulErrorNtNtB9_3fmt5Debug3fmt, symObjAddr: 0x4CE34, symBinAddr: 0x100049FB8, symSize: 0x40 }
  - { offset: 0x37052, size: 0x8, addend: 0x0, symName: __RINvNtCs5FIOKSViJ8s_4core9panicking13assert_failedAhj4_RShECsfB93IpvWVaK_3std, symObjAddr: 0x7B78, symBinAddr: 0x10008BD10, symSize: 0x38 }
  - { offset: 0x3706C, size: 0x8, addend: 0x0, symName: __RINvNtCs5FIOKSViJ8s_4core9panicking13assert_failedINtNtB4_6option6OptionhEBM_ECsfB93IpvWVaK_3std, symObjAddr: 0x7BB0, symBinAddr: 0x10008BD48, symSize: 0x28 }
  - { offset: 0x37086, size: 0x8, addend: 0x0, symName: __RINvNtCs5FIOKSViJ8s_4core9panicking13assert_failedhhECsfB93IpvWVaK_3std, symObjAddr: 0x7BD8, symBinAddr: 0x10008BD70, symSize: 0x28 }
  - { offset: 0x370A0, size: 0x8, addend: 0x0, symName: __RINvNtCs5FIOKSViJ8s_4core9panicking13assert_failedllECsfB93IpvWVaK_3std, symObjAddr: 0x7C00, symBinAddr: 0x10008BD98, symSize: 0x28 }
  - { offset: 0x374E2, size: 0x8, addend: 0x0, symName: __RNvXs1i_NtCs5FIOKSViJ8s_4core3fmtRNtNtNtB8_5panic8location8LocationNtB6_7Display3fmtCsfB93IpvWVaK_3std, symObjAddr: 0x410B4, symBinAddr: 0x10003E238, symSize: 0x60 }
  - { offset: 0x37555, size: 0x8, addend: 0x0, symName: __RNvXs1i_NtCs5FIOKSViJ8s_4core3fmtReNtB6_7Display3fmtCsfB93IpvWVaK_3std, symObjAddr: 0x41114, symBinAddr: 0x10003E298, symSize: 0x10 }
  - { offset: 0x37582, size: 0x8, addend: 0x0, symName: __RNvXs1G_NtCs5FIOKSViJ8s_4core3fmtTRNtNtNtCsfB93IpvWVaK_3std3ffi6os_str8OsStringRINtNtB8_6option6OptionBx_EENtB6_5Debug3fmtBD_, symObjAddr: 0x3FAA0, symBinAddr: 0x10003CC24, symSize: 0x74 }
  - { offset: 0x375F6, size: 0x8, addend: 0x0, symName: __RNvXs1g_NtCs5FIOKSViJ8s_4core3fmtRAhj4_NtB6_5Debug3fmtCsfB93IpvWVaK_3std, symObjAddr: 0x40548, symBinAddr: 0x10003D6CC, symSize: 0x9C }
  - { offset: 0x37684, size: 0x8, addend: 0x0, symName: __RNvXs1g_NtCs5FIOKSViJ8s_4core3fmtRINtNtB8_6option6OptionNtNtNtCsfB93IpvWVaK_3std3ffi6os_str8OsStringENtB6_5Debug3fmtBY_, symObjAddr: 0x405E4, symBinAddr: 0x10003D768, symSize: 0x68 }
  - { offset: 0x376AD, size: 0x8, addend: 0x0, symName: __RNvXs1g_NtCs5FIOKSViJ8s_4core3fmtRINtNtB8_6option6OptionhENtB6_5Debug3fmtCsfB93IpvWVaK_3std, symObjAddr: 0x4064C, symBinAddr: 0x10003D7D0, symSize: 0x64 }
  - { offset: 0x376D5, size: 0x8, addend: 0x0, symName: __RNvXs1g_NtCs5FIOKSViJ8s_4core3fmtRINtNtCs7QfUfi8dEu5_5alloc3vec3VechENtB6_5Debug3fmtCsfB93IpvWVaK_3std, symObjAddr: 0x406B0, symBinAddr: 0x10003D834, symSize: 0x70 }
  - { offset: 0x377EC, size: 0x8, addend: 0x0, symName: __RNvXs1g_NtCs5FIOKSViJ8s_4core3fmtRINtNtCs7QfUfi8dEu5_5alloc5boxed3BoxDNtNtB8_5error5ErrorNtNtB8_6marker4SyncNtB1r_4SendEL_ENtB6_5Debug3fmtCsfB93IpvWVaK_3std, symObjAddr: 0x40720, symBinAddr: 0x10003D8A4, symSize: 0x10 }
  - { offset: 0x3781C, size: 0x8, addend: 0x0, symName: __RNvXs1g_NtCs5FIOKSViJ8s_4core3fmtRINtNtCs7QfUfi8dEu5_5alloc5boxed3BoxSmENtB6_5Debug3fmtCsfB93IpvWVaK_3std, symObjAddr: 0x40730, symBinAddr: 0x10003D8B4, symSize: 0x74 }
  - { offset: 0x378B0, size: 0x8, addend: 0x0, symName: __RNvXs1g_NtCs5FIOKSViJ8s_4core3fmtRINtNtNtB8_3num7nonzero7NonZeroyENtB6_5Debug3fmtCsfB93IpvWVaK_3std, symObjAddr: 0x407A4, symBinAddr: 0x10003D928, symSize: 0x4C }
  - { offset: 0x3791F, size: 0x8, addend: 0x0, symName: __RNvXs1g_NtCs5FIOKSViJ8s_4core3fmtRINtNtNtNtCs7QfUfi8dEu5_5alloc11collections5btree3map4IterNtNtNtCsfB93IpvWVaK_3std3ffi6os_str8OsStringINtNtB8_6option6OptionB1r_EENtB6_5Debug3fmtB1x_, symObjAddr: 0x407F0, symBinAddr: 0x10003D974, symSize: 0x14C }
  - { offset: 0x37BF8, size: 0x8, addend: 0x0, symName: __RNvXs1g_NtCs5FIOKSViJ8s_4core3fmtRNtNtCsfB93IpvWVaK_3std4path15PrefixComponentNtB6_5Debug3fmtBA_, symObjAddr: 0x4093C, symBinAddr: 0x10003DAC0, symSize: 0x70 }
  - { offset: 0x37C28, size: 0x8, addend: 0x0, symName: __RNvXs1g_NtCs5FIOKSViJ8s_4core3fmtRNtNtCsfB93IpvWVaK_3std4path6PrefixNtB6_5Debug3fmtBA_, symObjAddr: 0x409AC, symBinAddr: 0x10003DB30, symSize: 0x144 }
  - { offset: 0x37C58, size: 0x8, addend: 0x0, symName: __RNvXs1g_NtCs5FIOKSViJ8s_4core3fmtRNtNtCsfB93IpvWVaK_3std7process10ChildStdinNtB6_5Debug3fmtBA_, symObjAddr: 0x40AF0, symBinAddr: 0x10003DC74, symSize: 0x38 }
  - { offset: 0x37C88, size: 0x8, addend: 0x0, symName: __RNvXs1g_NtCs5FIOKSViJ8s_4core3fmtRNtNtCsfB93IpvWVaK_3std7process11ChildStderrNtB6_5Debug3fmtBA_, symObjAddr: 0x40B28, symBinAddr: 0x10003DCAC, symSize: 0x38 }
  - { offset: 0x37CB8, size: 0x8, addend: 0x0, symName: __RNvXs1g_NtCs5FIOKSViJ8s_4core3fmtRNtNtCsfB93IpvWVaK_3std7process11ChildStdoutNtB6_5Debug3fmtBA_, symObjAddr: 0x40B60, symBinAddr: 0x10003DCE4, symSize: 0x38 }
  - { offset: 0x37CE8, size: 0x8, addend: 0x0, symName: __RNvXs1g_NtCs5FIOKSViJ8s_4core3fmtRNtNtCsfB93IpvWVaK_3std9backtrace11BytesOrWideNtB6_5Debug3fmtBA_, symObjAddr: 0x40B98, symBinAddr: 0x10003DD1C, symSize: 0x8 }
  - { offset: 0x37D02, size: 0x8, addend: 0x0, symName: __RNvXs1g_NtCs5FIOKSViJ8s_4core3fmtRNtNtCsfB93IpvWVaK_3std9backtrace15BacktraceSymbolNtB6_5Debug3fmtBA_, symObjAddr: 0x40BA0, symBinAddr: 0x10003DD24, symSize: 0x8 }
  - { offset: 0x37D1C, size: 0x8, addend: 0x0, symName: __RNvXs1g_NtCs5FIOKSViJ8s_4core3fmtRNtNtNtB8_3ffi5c_str4CStrNtB6_5Debug3fmtCsfB93IpvWVaK_3std, symObjAddr: 0x40BA8, symBinAddr: 0x10003DD2C, symSize: 0x10 }
  - { offset: 0x37D36, size: 0x8, addend: 0x0, symName: __RNvXs1g_NtCs5FIOKSViJ8s_4core3fmtRNtNtNtCs7QfUfi8dEu5_5alloc3ffi5c_str7CStringNtB6_5Debug3fmtCsfB93IpvWVaK_3std, symObjAddr: 0x40BB8, symBinAddr: 0x10003DD3C, symSize: 0x8 }
  - { offset: 0x37D50, size: 0x8, addend: 0x0, symName: __RNvXs1g_NtCs5FIOKSViJ8s_4core3fmtRNtNtNtCsfB93IpvWVaK_3std3ffi6os_str8OsStringNtB6_5Debug3fmtBC_, symObjAddr: 0x40BC0, symBinAddr: 0x10003DD44, symSize: 0x2C }
  - { offset: 0x37E68, size: 0x8, addend: 0x0, symName: __RNvXs1g_NtCs5FIOKSViJ8s_4core3fmtRNtNtNtNtCsfB93IpvWVaK_3std2os2fd5owned10BorrowedFdNtB6_5Debug3fmtBE_, symObjAddr: 0x40BEC, symBinAddr: 0x10003DD70, symSize: 0x64 }
  - { offset: 0x37E98, size: 0x8, addend: 0x0, symName: __RNvXs1g_NtCs5FIOKSViJ8s_4core3fmtRNtNtNtNtCsfB93IpvWVaK_3std2os2fd5owned7OwnedFdNtB6_5Debug3fmtBE_, symObjAddr: 0x40C50, symBinAddr: 0x10003DDD4, symSize: 0x64 }
  - { offset: 0x37EC8, size: 0x8, addend: 0x0, symName: __RNvXs1g_NtCs5FIOKSViJ8s_4core3fmtRNtNtNtNtCsfB93IpvWVaK_3std3sys2fd4unix8FileDescNtB6_5Debug3fmtBE_, symObjAddr: 0x40CB4, symBinAddr: 0x10003DE38, symSize: 0x44 }
  - { offset: 0x37EF8, size: 0x8, addend: 0x0, symName: __RNvXs1g_NtCs5FIOKSViJ8s_4core3fmtRNtNtNtNtCsfB93IpvWVaK_3std3sys2fs4unix15FilePermissionsNtB6_5Debug3fmtBE_, symObjAddr: 0x40CF8, symBinAddr: 0x10003DE7C, symSize: 0x6C }
  - { offset: 0x37F28, size: 0x8, addend: 0x0, symName: __RNvXs1g_NtCs5FIOKSViJ8s_4core3fmtRNtNtNtNtNtCsfB93IpvWVaK_3std3sys7process4unix4unix10ExitStatusNtB6_5Debug3fmtBG_, symObjAddr: 0x40D64, symBinAddr: 0x10003DEE8, symSize: 0x58 }
  - { offset: 0x37F58, size: 0x8, addend: 0x0, symName: __RNvXs1g_NtCs5FIOKSViJ8s_4core3fmtRNtNtNtNtNtCsfB93IpvWVaK_3std3sys7process4unix6common5StdioNtB6_5Debug3fmtBG_, symObjAddr: 0x40DBC, symBinAddr: 0x10003DF40, symSize: 0xC4 }
  - { offset: 0x37F8D, size: 0x8, addend: 0x0, symName: __RNvXs1g_NtCs5FIOKSViJ8s_4core3fmtRRINtNtB8_6option6OptionNtNtNtCsfB93IpvWVaK_3std3ffi6os_str8OsStringENtB6_5Debug3fmtBZ_, symObjAddr: 0x40E80, symBinAddr: 0x10003E004, symSize: 0x6C }
  - { offset: 0x37FE0, size: 0x8, addend: 0x0, symName: __RNvXs1g_NtCs5FIOKSViJ8s_4core3fmtRRNtNtNtCsfB93IpvWVaK_3std3ffi6os_str5OsStrNtB6_5Debug3fmtBD_, symObjAddr: 0x40EEC, symBinAddr: 0x10003E070, symSize: 0x2C }
  - { offset: 0x3805E, size: 0x8, addend: 0x0, symName: __RNvXs1g_NtCs5FIOKSViJ8s_4core3fmtRRNtNtNtCsfB93IpvWVaK_3std3ffi6os_str8OsStringNtB6_5Debug3fmtBD_, symObjAddr: 0x40F18, symBinAddr: 0x10003E09C, symSize: 0x30 }
  - { offset: 0x381A0, size: 0x8, addend: 0x0, symName: __RNvXs1g_NtCs5FIOKSViJ8s_4core3fmtRRShNtB6_5Debug3fmtCsfB93IpvWVaK_3std, symObjAddr: 0x40F48, symBinAddr: 0x10003E0CC, symSize: 0x70 }
  - { offset: 0x38241, size: 0x8, addend: 0x0, symName: __RNvXs1g_NtCs5FIOKSViJ8s_4core3fmtRReNtB6_5Debug3fmtCsfB93IpvWVaK_3std, symObjAddr: 0x40FB8, symBinAddr: 0x10003E13C, symSize: 0x10 }
  - { offset: 0x38271, size: 0x8, addend: 0x0, symName: __RNvXs1g_NtCs5FIOKSViJ8s_4core3fmtRTNtNtNtCsfB93IpvWVaK_3std3ffi6os_str8OsStringBx_ENtB6_5Debug3fmtBD_, symObjAddr: 0x40FC8, symBinAddr: 0x10003E14C, symSize: 0x74 }
  - { offset: 0x382A1, size: 0x8, addend: 0x0, symName: __RNvXs1g_NtCs5FIOKSViJ8s_4core3fmtReNtB6_5Debug3fmtCsfB93IpvWVaK_3std, symObjAddr: 0x4103C, symBinAddr: 0x10003E1C0, symSize: 0x10 }
  - { offset: 0x382B4, size: 0x8, addend: 0x0, symName: __RNvXs1g_NtCs5FIOKSViJ8s_4core3fmtRhNtB6_5Debug3fmtCsfB93IpvWVaK_3std, symObjAddr: 0x4104C, symBinAddr: 0x10003E1D0, symSize: 0x1C }
  - { offset: 0x382FA, size: 0x8, addend: 0x0, symName: __RNvXs1g_NtCs5FIOKSViJ8s_4core3fmtRlNtB6_5Debug3fmtCsfB93IpvWVaK_3std, symObjAddr: 0x41068, symBinAddr: 0x10003E1EC, symSize: 0x1C }
  - { offset: 0x38340, size: 0x8, addend: 0x0, symName: __RNvXs1g_NtCs5FIOKSViJ8s_4core3fmtRmNtB6_5Debug3fmtCsfB93IpvWVaK_3std, symObjAddr: 0x41084, symBinAddr: 0x10003E208, symSize: 0x1C }
  - { offset: 0x38386, size: 0x8, addend: 0x0, symName: __RNvXs1g_NtCs5FIOKSViJ8s_4core3fmtRuNtB6_5Debug3fmtCsfB93IpvWVaK_3std, symObjAddr: 0x410A0, symBinAddr: 0x10003E224, symSize: 0x14 }
  - { offset: 0x383E8, size: 0x8, addend: 0x0, symName: __RNvXsX_NtNtCs5FIOKSViJ8s_4core3fmt3numyNtB7_5Debug3fmt, symObjAddr: 0x46C84, symBinAddr: 0x100043E08, symSize: 0x18 }
  - { offset: 0x383FF, size: 0x8, addend: 0x0, symName: __RNvXsX_NtNtCs5FIOKSViJ8s_4core3fmt3numyNtB7_5Debug3fmt, symObjAddr: 0x46C84, symBinAddr: 0x100043E08, symSize: 0x18 }
  - { offset: 0x38424, size: 0x8, addend: 0x0, symName: __RNvXsU_NtNtCs5FIOKSViJ8s_4core3fmt3numhNtB7_5Debug3fmt, symObjAddr: 0x46C54, symBinAddr: 0x100043DD8, symSize: 0x18 }
  - { offset: 0x3843B, size: 0x8, addend: 0x0, symName: __RNvXsU_NtNtCs5FIOKSViJ8s_4core3fmt3numhNtB7_5Debug3fmt, symObjAddr: 0x46C54, symBinAddr: 0x100043DD8, symSize: 0x18 }
  - { offset: 0x38460, size: 0x8, addend: 0x0, symName: __RNvXsQ_NtNtCs5FIOKSViJ8s_4core3fmt3numlNtB7_5Debug3fmt, symObjAddr: 0x46878, symBinAddr: 0x1000439FC, symSize: 0x18 }
  - { offset: 0x38477, size: 0x8, addend: 0x0, symName: __RNvXsQ_NtNtCs5FIOKSViJ8s_4core3fmt3numlNtB7_5Debug3fmt, symObjAddr: 0x46878, symBinAddr: 0x1000439FC, symSize: 0x18 }
  - { offset: 0x3849C, size: 0x8, addend: 0x0, symName: __RNvXsW_NtNtCs5FIOKSViJ8s_4core3fmt3nummNtB7_5Debug3fmt, symObjAddr: 0x46C6C, symBinAddr: 0x100043DF0, symSize: 0x18 }
  - { offset: 0x384B3, size: 0x8, addend: 0x0, symName: __RNvXsW_NtNtCs5FIOKSViJ8s_4core3fmt3nummNtB7_5Debug3fmt, symObjAddr: 0x46C6C, symBinAddr: 0x100043DF0, symSize: 0x18 }
  - { offset: 0x384CB, size: 0x8, addend: 0x0, symName: __RNvXsR_NtNtCs5FIOKSViJ8s_4core3fmt3numxNtB7_5Debug3fmt, symObjAddr: 0x46BFC, symBinAddr: 0x100043D80, symSize: 0x18 }
  - { offset: 0x384E9, size: 0x8, addend: 0x0, symName: __RNvXsR_NtNtCs5FIOKSViJ8s_4core3fmt3numxNtB7_5Debug3fmt, symObjAddr: 0x46BFC, symBinAddr: 0x100043D80, symSize: 0x18 }
  - { offset: 0x38501, size: 0x8, addend: 0x0, symName: __RNvXsZ_NtNtCs5FIOKSViJ8s_4core3fmt3numjNtB7_5Debug3fmt, symObjAddr: 0x46E88, symBinAddr: 0x10004400C, symSize: 0x18 }
  - { offset: 0x38518, size: 0x8, addend: 0x0, symName: __RNvXsZ_NtNtCs5FIOKSViJ8s_4core3fmt3numjNtB7_5Debug3fmt, symObjAddr: 0x46E88, symBinAddr: 0x10004400C, symSize: 0x18 }
  - { offset: 0x3854B, size: 0x8, addend: 0x0, symName: __RNvXss_NtCs5FIOKSViJ8s_4core3fmtuNtB5_5Debug3fmt, symObjAddr: 0x4C494, symBinAddr: 0x100049618, symSize: 0x14 }
  - { offset: 0x38564, size: 0x8, addend: 0x0, symName: __RNvXs1j_NtCs5FIOKSViJ8s_4core3fmtQDNtNtB8_5panic12PanicPayloadEL_NtB6_7Display3fmtCsfB93IpvWVaK_3std, symObjAddr: 0x41124, symBinAddr: 0x10003E2A8, symSize: 0x10 }
  - { offset: 0x38584, size: 0x8, addend: 0x0, symName: __RNvXsf_NtCs5FIOKSViJ8s_4core3fmtbNtB5_5Debug3fmt, symObjAddr: 0x4A324, symBinAddr: 0x1000474A8, symSize: 0x4 }
  - { offset: 0x385CA, size: 0x8, addend: 0x0, symName: __RNvXsq_NtCs5FIOKSViJ8s_4core3fmtONtNtB7_3ffi6c_voidNtB5_5Debug3fmtCsfB93IpvWVaK_3std, symObjAddr: 0x4C05C, symBinAddr: 0x1000491E0, symSize: 0x8 }
  - { offset: 0x385E8, size: 0x8, addend: 0x0, symName: __RNvXsq_NtCs5FIOKSViJ8s_4core3fmtONtNtB7_3ffi6c_voidNtB5_5Debug3fmtCsfB93IpvWVaK_3std, symObjAddr: 0x4C05C, symBinAddr: 0x1000491E0, symSize: 0x8 }
  - { offset: 0x38616, size: 0x8, addend: 0x0, symName: __RNvYINtNvNtCsfB93IpvWVaK_3std2io17default_write_fmt7AdapterINtNtB7_6cursor6CursorQShEENtNtCs5FIOKSViJ8s_4core3fmt5Write10write_charB9_, symObjAddr: 0x4D7D8, symBinAddr: 0x10004A95C, symSize: 0x138 }
  - { offset: 0x387FE, size: 0x8, addend: 0x0, symName: __RNvYINtNvNtCsfB93IpvWVaK_3std2io17default_write_fmt7AdapterINtNtB7_6cursor6CursorQShEENtNtCs5FIOKSViJ8s_4core3fmt5Write9write_fmtB9_, symObjAddr: 0x4D910, symBinAddr: 0x10004AA94, symSize: 0x14 }
  - { offset: 0x3882C, size: 0x8, addend: 0x0, symName: __RNvYINtNvNtCsfB93IpvWVaK_3std2io17default_write_fmt7AdapterINtNtCs7QfUfi8dEu5_5alloc3vec3VechEENtNtCs5FIOKSViJ8s_4core3fmt5Write10write_charB9_, symObjAddr: 0x4D924, symBinAddr: 0x10004AAA8, symSize: 0x110 }
  - { offset: 0x389DF, size: 0x8, addend: 0x0, symName: __RNvYINtNvNtCsfB93IpvWVaK_3std2io17default_write_fmt7AdapterINtNtCs7QfUfi8dEu5_5alloc3vec3VechEENtNtCs5FIOKSViJ8s_4core3fmt5Write9write_fmtB9_, symObjAddr: 0x4DA34, symBinAddr: 0x10004ABB8, symSize: 0x14 }
  - { offset: 0x38A0D, size: 0x8, addend: 0x0, symName: __RNvYINtNvNtCsfB93IpvWVaK_3std2io17default_write_fmt7AdapterNtNtB7_5stdio10StderrLockENtNtCs5FIOKSViJ8s_4core3fmt5Write10write_charB9_, symObjAddr: 0x4DA48, symBinAddr: 0x10004ABCC, symSize: 0x130 }
  - { offset: 0x38C3F, size: 0x8, addend: 0x0, symName: __RNvYINtNvNtCsfB93IpvWVaK_3std2io17default_write_fmt7AdapterNtNtB7_5stdio10StderrLockENtNtCs5FIOKSViJ8s_4core3fmt5Write9write_fmtB9_, symObjAddr: 0x4DB78, symBinAddr: 0x10004ACFC, symSize: 0x14 }
  - { offset: 0x38C6D, size: 0x8, addend: 0x0, symName: __RNvYINtNvNtCsfB93IpvWVaK_3std2io17default_write_fmt7AdapterNtNtB7_5stdio10StdoutLockENtNtCs5FIOKSViJ8s_4core3fmt5Write10write_charB9_, symObjAddr: 0x4DB8C, symBinAddr: 0x10004AD10, symSize: 0x128 }
  - { offset: 0x38CE6, size: 0x8, addend: 0x0, symName: __RNvYINtNvNtCsfB93IpvWVaK_3std2io17default_write_fmt7AdapterNtNtB7_5stdio10StdoutLockENtNtCs5FIOKSViJ8s_4core3fmt5Write9write_fmtB9_, symObjAddr: 0x4DCB4, symBinAddr: 0x10004AE38, symSize: 0x14 }
  - { offset: 0x38D14, size: 0x8, addend: 0x0, symName: __RNvYINtNvNtCsfB93IpvWVaK_3std2io17default_write_fmt7AdapterNtNtNtNtB9_3sys5stdio4unix6StderrENtNtCs5FIOKSViJ8s_4core3fmt5Write10write_charB9_, symObjAddr: 0x4DCC8, symBinAddr: 0x10004AE4C, symSize: 0xB0 }
  - { offset: 0x38D83, size: 0x8, addend: 0x0, symName: __RNvYINtNvNtCsfB93IpvWVaK_3std2io17default_write_fmt7AdapterNtNtNtNtB9_3sys5stdio4unix6StderrENtNtCs5FIOKSViJ8s_4core3fmt5Write9write_fmtB9_, symObjAddr: 0x4DD78, symBinAddr: 0x10004AEFC, symSize: 0x14 }
  - { offset: 0x38DB1, size: 0x8, addend: 0x0, symName: __RNvYINtNvNtCsfB93IpvWVaK_3std2io17default_write_fmt7AdapterNtNtNtNtB9_3sys5stdio4unix6StdoutENtNtCs5FIOKSViJ8s_4core3fmt5Write10write_charB9_, symObjAddr: 0x4DD8C, symBinAddr: 0x10004AF10, symSize: 0xB0 }
  - { offset: 0x38E20, size: 0x8, addend: 0x0, symName: __RNvYINtNvNtCsfB93IpvWVaK_3std2io17default_write_fmt7AdapterNtNtNtNtB9_3sys5stdio4unix6StdoutENtNtCs5FIOKSViJ8s_4core3fmt5Write9write_fmtB9_, symObjAddr: 0x4DE3C, symBinAddr: 0x10004AFC0, symSize: 0x14 }
  - { offset: 0x38E4E, size: 0x8, addend: 0x0, symName: __RNvYNtNtCs7QfUfi8dEu5_5alloc6string6StringNtNtCs5FIOKSViJ8s_4core3fmt5Write9write_fmtCsfB93IpvWVaK_3std, symObjAddr: 0x4DE58, symBinAddr: 0x10004AFDC, symSize: 0x14 }
  - { offset: 0x38F08, size: 0x8, addend: 0x0, symName: __RNCNvNtNtCs5FIOKSViJ8s_4core3str7pattern13simd_containss0_0CsfB93IpvWVaK_3std, symObjAddr: 0x14D60, symBinAddr: 0x10008C4E4, symSize: 0x100 }
  - { offset: 0x3911E, size: 0x8, addend: 0x0, symName: __RNvXst_NtNtCs5FIOKSViJ8s_4core3str7patternReNtB5_7Pattern15is_contained_in, symObjAddr: 0x4C5C8, symBinAddr: 0x10004974C, symSize: 0x760 }
  - { offset: 0x399A1, size: 0x8, addend: 0x0, symName: __RNvYINtNvNtCsfB93IpvWVaK_3std9panicking11begin_panic7PayloadReENtNtCs5FIOKSViJ8s_4core5panic12PanicPayload6as_strB9_, symObjAddr: 0x4DE50, symBinAddr: 0x10004AFD4, symSize: 0x8 }
  - { offset: 0x39C26, size: 0x8, addend: 0x0, symName: __RNvXNtCs5FIOKSViJ8s_4core3anyNtNtCs7QfUfi8dEu5_5alloc6string6StringNtB2_3Any7type_idCsfB93IpvWVaK_3std, symObjAddr: 0x3CC68, symBinAddr: 0x100039E7C, symSize: 0x14 }
  - { offset: 0x39C44, size: 0x8, addend: 0x0, symName: __RNvXNtCs5FIOKSViJ8s_4core3anyNtNtCs7QfUfi8dEu5_5alloc6string6StringNtB2_3Any7type_idCsfB93IpvWVaK_3std, symObjAddr: 0x3CC68, symBinAddr: 0x100039E7C, symSize: 0x14 }
  - { offset: 0x39C56, size: 0x8, addend: 0x0, symName: __RNvXNtCs5FIOKSViJ8s_4core3anyReNtB2_3Any7type_idCsfB93IpvWVaK_3std, symObjAddr: 0x3CC7C, symBinAddr: 0x100039E90, symSize: 0x14 }
  - { offset: 0x39C74, size: 0x8, addend: 0x0, symName: __RNvXNtCs5FIOKSViJ8s_4core3anyReNtB2_3Any7type_idCsfB93IpvWVaK_3std, symObjAddr: 0x3CC7C, symBinAddr: 0x100039E90, symSize: 0x14 }
  - { offset: 0x39C86, size: 0x8, addend: 0x0, symName: __RNvXNtCs5FIOKSViJ8s_4core3anyuNtB2_3Any7type_idCsfB93IpvWVaK_3std, symObjAddr: 0x3CC90, symBinAddr: 0x100039EA4, symSize: 0x14 }
  - { offset: 0x39CA4, size: 0x8, addend: 0x0, symName: __RNvXNtCs5FIOKSViJ8s_4core3anyuNtB2_3Any7type_idCsfB93IpvWVaK_3std, symObjAddr: 0x3CC90, symBinAddr: 0x100039EA4, symSize: 0x14 }
  - { offset: 0x39D42, size: 0x8, addend: 0x0, symName: __RNvYNtNtNtCs5FIOKSViJ8s_4core3num5error15TryFromIntErrorNtNtB8_5error5Error11descriptionCsfB93IpvWVaK_3std, symObjAddr: 0x4DE6C, symBinAddr: 0x10004AFF0, symSize: 0x10 }
  - { offset: 0x39D5C, size: 0x8, addend: 0x0, symName: __RNvYNtNtNtCs5FIOKSViJ8s_4core3num5error15TryFromIntErrorNtNtB8_5error5Error5causeCsfB93IpvWVaK_3std, symObjAddr: 0x4DE7C, symBinAddr: 0x10004B000, symSize: 0x8 }
  - { offset: 0x39D76, size: 0x8, addend: 0x0, symName: __RNvYNtNtNtCs5FIOKSViJ8s_4core3num5error15TryFromIntErrorNtNtB8_5error5Error7provideCsfB93IpvWVaK_3std, symObjAddr: 0x4DE84, symBinAddr: 0x10004B008, symSize: 0x4 }
  - { offset: 0x39D91, size: 0x8, addend: 0x0, symName: __RNvYNtNtNtCs5FIOKSViJ8s_4core3num5error15TryFromIntErrorNtNtB8_5error5Error7type_idCsfB93IpvWVaK_3std, symObjAddr: 0x4DE88, symBinAddr: 0x10004B00C, symSize: 0x14 }
  - { offset: 0x39DAF, size: 0x8, addend: 0x0, symName: __RNvYNtNtNtCs5FIOKSViJ8s_4core3num5error15TryFromIntErrorNtNtB8_5error5Error7type_idCsfB93IpvWVaK_3std, symObjAddr: 0x4DE88, symBinAddr: 0x10004B00C, symSize: 0x14 }
  - { offset: 0x39DC1, size: 0x8, addend: 0x0, symName: __RNvYNtNvXsf_NtNtCs7QfUfi8dEu5_5alloc5boxed7convertINtBc_3BoxDNtNtCs5FIOKSViJ8s_4core5error5ErrorNtNtB11_6marker4SyncNtB1y_4SendEL_EINtNtB11_7convert4FromNtNtBe_6string6StringE4from11StringErrorBX_11descriptionCsfB93IpvWVaK_3std, symObjAddr: 0x4E1CC, symBinAddr: 0x10004B350, symSize: 0x10 }
  - { offset: 0x39DDB, size: 0x8, addend: 0x0, symName: __RNvYNtNvXsf_NtNtCs7QfUfi8dEu5_5alloc5boxed7convertINtBc_3BoxDNtNtCs5FIOKSViJ8s_4core5error5ErrorNtNtB11_6marker4SyncNtB1y_4SendEL_EINtNtB11_7convert4FromNtNtBe_6string6StringE4from11StringErrorBX_5causeCsfB93IpvWVaK_3std, symObjAddr: 0x4E1DC, symBinAddr: 0x10004B360, symSize: 0x8 }
  - { offset: 0x39DF5, size: 0x8, addend: 0x0, symName: __RNvYNtNvXsf_NtNtCs7QfUfi8dEu5_5alloc5boxed7convertINtBc_3BoxDNtNtCs5FIOKSViJ8s_4core5error5ErrorNtNtB11_6marker4SyncNtB1y_4SendEL_EINtNtB11_7convert4FromNtNtBe_6string6StringE4from11StringErrorBX_7provideCsfB93IpvWVaK_3std, symObjAddr: 0x4E1E4, symBinAddr: 0x10004B368, symSize: 0x4 }
  - { offset: 0x39E10, size: 0x8, addend: 0x0, symName: __RNvYNtNvXsf_NtNtCs7QfUfi8dEu5_5alloc5boxed7convertINtBc_3BoxDNtNtCs5FIOKSViJ8s_4core5error5ErrorNtNtB11_6marker4SyncNtB1y_4SendEL_EINtNtB11_7convert4FromNtNtBe_6string6StringE4from11StringErrorBX_7type_idCsfB93IpvWVaK_3std, symObjAddr: 0x4E1E8, symBinAddr: 0x10004B36C, symSize: 0x14 }
  - { offset: 0x39E2E, size: 0x8, addend: 0x0, symName: __RNvYNtNvXsf_NtNtCs7QfUfi8dEu5_5alloc5boxed7convertINtBc_3BoxDNtNtCs5FIOKSViJ8s_4core5error5ErrorNtNtB11_6marker4SyncNtB1y_4SendEL_EINtNtB11_7convert4FromNtNtBe_6string6StringE4from11StringErrorBX_7type_idCsfB93IpvWVaK_3std, symObjAddr: 0x4E1E8, symBinAddr: 0x10004B36C, symSize: 0x14 }
  - { offset: 0x39E83, size: 0x8, addend: 0x0, symName: __RNvMs1_NtCslJahucPx05O_9addr2line8functionINtB5_8FunctionINtNtNtCse47Qg0Fv2Hd_5gimli4read12endian_slice11EndianSliceNtNtB10_9endianity12LittleEndianEE14parse_childrenCsfB93IpvWVaK_3std, symObjAddr: 0x1D870, symBinAddr: 0x10001C328, symSize: 0xEA8 }
  - { offset: 0x3B6AA, size: 0x8, addend: 0x0, symName: __RINvNtCslJahucPx05O_9addr2line8function10name_entryINtNtNtCse47Qg0Fv2Hd_5gimli4read12endian_slice11EndianSliceNtNtBU_9endianity12LittleEndianEECsfB93IpvWVaK_3std, symObjAddr: 0x8B00, symBinAddr: 0x1000083F4, symSize: 0x364 }
  - { offset: 0x3BB52, size: 0x8, addend: 0x0, symName: __RINvNtCslJahucPx05O_9addr2line8function9name_attrINtNtNtCse47Qg0Fv2Hd_5gimli4read12endian_slice11EndianSliceNtNtBS_9endianity12LittleEndianEECsfB93IpvWVaK_3std, symObjAddr: 0x8E64, symBinAddr: 0x100008758, symSize: 0x1C0 }
  - { offset: 0x3BE8E, size: 0x8, addend: 0x0, symName: __RINvNtCslJahucPx05O_9addr2line4line11render_fileINtNtNtCse47Qg0Fv2Hd_5gimli4read12endian_slice11EndianSliceNtNtBR_9endianity12LittleEndianEECsfB93IpvWVaK_3std, symObjAddr: 0x8678, symBinAddr: 0x100007F6C, symSize: 0x488 }
  - { offset: 0x3C86E, size: 0x8, addend: 0x0, symName: __RNvMs0_CslJahucPx05O_9addr2lineINtB5_7ContextINtNtNtCse47Qg0Fv2Hd_5gimli4read12endian_slice11EndianSliceNtNtBO_9endianity12LittleEndianEE9find_unitCsfB93IpvWVaK_3std, symObjAddr: 0x1A4CC, symBinAddr: 0x100018F84, symSize: 0x15C }
  - { offset: 0x3CAE8, size: 0x8, addend: 0x0, symName: __RNvMNtCslJahucPx05O_9addr2line4unitINtB2_7ResUnitINtNtNtCse47Qg0Fv2Hd_5gimli4read12endian_slice11EndianSliceNtNtBS_9endianity12LittleEndianEE25find_function_or_locationCsfB93IpvWVaK_3std, symObjAddr: 0x16568, symBinAddr: 0x100015550, symSize: 0x380 }
  - { offset: 0x3CFC8, size: 0x8, addend: 0x0, symName: __RNCNvMNtCslJahucPx05O_9addr2line4unitINtB4_7ResUnitINtNtNtCse47Qg0Fv2Hd_5gimli4read12endian_slice11EndianSliceNtNtBU_9endianity12LittleEndianEE25find_function_or_location0CsfB93IpvWVaK_3std, symObjAddr: 0x142B4, symBinAddr: 0x100013504, symSize: 0x328 }
  - { offset: 0x3D403, size: 0x8, addend: 0x0, symName: __RNvMs2_NtCslJahucPx05O_9addr2line6lookupINtB5_13LoopingLookupINtNtCs5FIOKSViJ8s_4core6result6ResultINtNtB7_5frame9FrameIterINtNtNtCse47Qg0Fv2Hd_5gimli4read12endian_slice11EndianSliceNtNtB24_9endianity12LittleEndianEENtB22_5ErrorEINtB5_12MappedLookupIBY_TINtNtB12_6option6OptionRINtNtB7_8function8FunctionB1X_EEIB45_NtB1C_8LocationEEB3s_EINtB5_12SimpleLookupIBY_TNtB7_9DebugFileINtNtB22_5dwarf7UnitRefB1X_EEB3s_EB1X_NCNvMNtB7_4unitINtB6K_7ResUnitB1X_E14dwarf_and_units4_0ENCNvB6J_25find_function_or_location0ENCNvMs_B7_INtB7_7ContextB1X_E11find_frames0E10new_lookupCsfB93IpvWVaK_3std, symObjAddr: 0x1F6C4, symBinAddr: 0x10001DE04, symSize: 0x44C }
  - { offset: 0x3D956, size: 0x8, addend: 0x0, symName: __RNvMNtCslJahucPx05O_9addr2line5frameINtB2_9FrameIterINtNtNtCse47Qg0Fv2Hd_5gimli4read12endian_slice11EndianSliceNtNtBV_9endianity12LittleEndianEE4nextCsfB93IpvWVaK_3std, symObjAddr: 0x168E8, symBinAddr: 0x1000158D0, symSize: 0x2C0 }
  - { offset: 0x3E15B, size: 0x8, addend: 0x0, symName: __RNvMsb_NtNtCse47Qg0Fv2Hd_5gimli4read4unitINtB5_9AttributeINtNtB7_12endian_slice11EndianSliceNtNtB9_9endianity12LittleEndianEE5valueCsfB93IpvWVaK_3std, symObjAddr: 0x2A8A8, symBinAddr: 0x10002879C, symSize: 0x654 }
  - { offset: 0x3E504, size: 0x8, addend: 0x0, symName: __RNvXsJ_NtNtCse47Qg0Fv2Hd_5gimli4read4unitINtB5_14AttributeValueINtNtB7_12endian_slice11EndianSliceNtNtB9_9endianity12LittleEndianEjENtNtCs5FIOKSViJ8s_4core5clone5Clone5cloneCsfB93IpvWVaK_3std, symObjAddr: 0x467A0, symBinAddr: 0x100043924, symSize: 0x68 }
  - { offset: 0x3E56B, size: 0x8, addend: 0x0, symName: __RNvMsc_NtNtCse47Qg0Fv2Hd_5gimli4read4unitINtB5_14AttributeValueINtNtB7_12endian_slice11EndianSliceNtNtB9_9endianity12LittleEndianEjE8u8_valueCsfB93IpvWVaK_3std, symObjAddr: 0x2AEFC, symBinAddr: 0x100028DF0, symSize: 0x94 }
  - { offset: 0x3E5A0, size: 0x8, addend: 0x0, symName: __RNvMsc_NtNtCse47Qg0Fv2Hd_5gimli4read4unitINtB5_14AttributeValueINtNtB7_12endian_slice11EndianSliceNtNtB9_9endianity12LittleEndianEjE9u16_valueCsfB93IpvWVaK_3std, symObjAddr: 0x2AF90, symBinAddr: 0x100028E84, symSize: 0x94 }
  - { offset: 0x3E60A, size: 0x8, addend: 0x0, symName: __RINvNtNtCse47Qg0Fv2Hd_5gimli4read4unit15parse_attributeINtNtB4_12endian_slice11EndianSliceNtNtB6_9endianity12LittleEndianEECsfB93IpvWVaK_3std, symObjAddr: 0x9BB0, symBinAddr: 0x1000094A4, symSize: 0xF34 }
  - { offset: 0x40CEB, size: 0x8, addend: 0x0, symName: __RINvNtNtCse47Qg0Fv2Hd_5gimli4read4unit15skip_attributesINtNtB4_12endian_slice11EndianSliceNtNtB6_9endianity12LittleEndianEECsfB93IpvWVaK_3std, symObjAddr: 0xAAE4, symBinAddr: 0x10000A3D8, symSize: 0x4A0 }
  - { offset: 0x41542, size: 0x8, addend: 0x0, symName: __RNvMsf_NtNtCse47Qg0Fv2Hd_5gimli4read4unitINtB5_13EntriesCursorINtNtB7_12endian_slice11EndianSliceNtNtB9_9endianity12LittleEndianEE10next_entryCsfB93IpvWVaK_3std, symObjAddr: 0x2BEEC, symBinAddr: 0x100029DE0, symSize: 0x2B8 }
  - { offset: 0x41B5D, size: 0x8, addend: 0x0, symName: __RNvMs6_NtNtCse47Qg0Fv2Hd_5gimli4read4unitINtB5_24DebugInfoUnitHeadersIterINtNtB7_12endian_slice11EndianSliceNtNtB9_9endianity12LittleEndianEE4nextCsfB93IpvWVaK_3std, symObjAddr: 0x226AC, symBinAddr: 0x10002072C, symSize: 0x434 }
  - { offset: 0x42B13, size: 0x8, addend: 0x0, symName: __RNvMs4_NtNtCse47Qg0Fv2Hd_5gimli4read5dwarfINtB5_4UnitINtNtB7_12endian_slice11EndianSliceNtNtB9_9endianity12LittleEndianEjE3newCsfB93IpvWVaK_3std, symObjAddr: 0x2054C, symBinAddr: 0x10001E5CC, symSize: 0x1B88 }
  - { offset: 0x46367, size: 0x8, addend: 0x0, symName: __RNvMs0_NtNtCse47Qg0Fv2Hd_5gimli4read5dwarfINtB5_5DwarfINtNtB7_12endian_slice11EndianSliceNtNtB9_9endianity12LittleEndianEE11attr_stringCsfB93IpvWVaK_3std, symObjAddr: 0x1A628, symBinAddr: 0x1000190E0, symSize: 0x220 }
  - { offset: 0x46C75, size: 0x8, addend: 0x0, symName: __RNvYINtNtNtCse47Qg0Fv2Hd_5gimli4read12endian_slice11EndianSliceNtNtB9_9endianity12LittleEndianENtNtB7_6reader6Reader11read_offsetCsfB93IpvWVaK_3std, symObjAddr: 0x4D33C, symBinAddr: 0x10004A4C0, symSize: 0x88 }
  - { offset: 0x46E78, size: 0x8, addend: 0x0, symName: __RNvYINtNtNtCse47Qg0Fv2Hd_5gimli4read12endian_slice11EndianSliceNtNtB9_9endianity12LittleEndianENtNtB7_6reader6Reader12read_sleb128CsfB93IpvWVaK_3std, symObjAddr: 0x4D3C4, symBinAddr: 0x10004A548, symSize: 0x23C }
  - { offset: 0x46F42, size: 0x8, addend: 0x0, symName: __RNvYINtNtNtCse47Qg0Fv2Hd_5gimli4read12endian_slice11EndianSliceNtNtB9_9endianity12LittleEndianENtNtB7_6reader6Reader12read_uleb128CsfB93IpvWVaK_3std, symObjAddr: 0x4D600, symBinAddr: 0x10004A784, symSize: 0xB8 }
  - { offset: 0x46FFC, size: 0x8, addend: 0x0, symName: __RNvYINtNtNtCse47Qg0Fv2Hd_5gimli4read12endian_slice11EndianSliceNtNtB9_9endianity12LittleEndianENtNtB7_6reader6Reader17read_sized_offsetCsfB93IpvWVaK_3std, symObjAddr: 0x4D6B8, symBinAddr: 0x10004A83C, symSize: 0x120 }
  - { offset: 0x4761A, size: 0x8, addend: 0x0, symName: __RNvMsc_NtNtCse47Qg0Fv2Hd_5gimli4read8rnglistsINtB5_11RngListIterINtNtB7_12endian_slice11EndianSliceNtNtB9_9endianity12LittleEndianEE4nextCsfB93IpvWVaK_3std, symObjAddr: 0x2B024, symBinAddr: 0x100028F18, symSize: 0xCAC }
  - { offset: 0x49EAF, size: 0x8, addend: 0x0, symName: __RNvMsd_NtNtCse47Qg0Fv2Hd_5gimli4read4lineINtB5_9FileEntryINtNtB7_12endian_slice11EndianSliceNtNtB9_9endianity12LittleEndianEjE5parseCsfB93IpvWVaK_3std, symObjAddr: 0x2BCD0, symBinAddr: 0x100029BC4, symSize: 0x21C }
  - { offset: 0x4A132, size: 0x8, addend: 0x0, symName: __RINvMse_NtNtCse47Qg0Fv2Hd_5gimli4read4lineNtB6_15FileEntryFormat5parseINtNtB8_12endian_slice11EndianSliceNtNtBa_9endianity12LittleEndianEECsfB93IpvWVaK_3std, symObjAddr: 0x4A1C, symBinAddr: 0x10000440C, symSize: 0x368 }
  - { offset: 0x4A8AC, size: 0x8, addend: 0x0, symName: __RINvNtNtCse47Qg0Fv2Hd_5gimli4read4line13parse_file_v5INtNtB4_12endian_slice11EndianSliceNtNtB6_9endianity12LittleEndianEECsfB93IpvWVaK_3std, symObjAddr: 0x9024, symBinAddr: 0x100008918, symSize: 0x2A8 }
  - { offset: 0x4AA39, size: 0x8, addend: 0x0, symName: __RINvNtNtCse47Qg0Fv2Hd_5gimli4read4line15parse_attributeINtNtB4_12endian_slice11EndianSliceNtNtB6_9endianity12LittleEndianEECsfB93IpvWVaK_3std, symObjAddr: 0x92CC, symBinAddr: 0x100008BC0, symSize: 0x800 }
  - { offset: 0x4BDED, size: 0x8, addend: 0x0, symName: __RINvNtNtCse47Qg0Fv2Hd_5gimli4read4line18parse_directory_v5INtNtB4_12endian_slice11EndianSliceNtNtB6_9endianity12LittleEndianEECsfB93IpvWVaK_3std, symObjAddr: 0x9ACC, symBinAddr: 0x1000093C0, symSize: 0xE4 }
  - { offset: 0x4BEA8, size: 0x8, addend: 0x0, symName: __RNvXs11_NtNtCse47Qg0Fv2Hd_5gimli4read4lineINtB6_9FileEntryINtNtB8_12endian_slice11EndianSliceNtNtBa_9endianity12LittleEndianEjENtNtCs5FIOKSViJ8s_4core5clone5Clone5cloneCsfB93IpvWVaK_3std, symObjAddr: 0x3F8A4, symBinAddr: 0x10003CA28, symSize: 0x1D4 }
  - { offset: 0x4BF6D, size: 0x8, addend: 0x0, symName: __RNvMs4_NtNtCse47Qg0Fv2Hd_5gimli4read7arangesINtB5_12ArangeHeaderINtNtB7_12endian_slice11EndianSliceNtNtB9_9endianity12LittleEndianEjE5parseCsfB93IpvWVaK_3std, symObjAddr: 0x220D4, symBinAddr: 0x100020154, symSize: 0x2BC }
  - { offset: 0x4BF96, size: 0x8, addend: 0x0, symName: __RNvMs4_NtNtCse47Qg0Fv2Hd_5gimli4read7arangesINtB5_12ArangeHeaderINtNtB7_12endian_slice11EndianSliceNtNtB9_9endianity12LittleEndianEjE5parseCsfB93IpvWVaK_3std, symObjAddr: 0x220D4, symBinAddr: 0x100020154, symSize: 0x2BC }
  - { offset: 0x4BFAB, size: 0x8, addend: 0x0, symName: __RNvMs4_NtNtCse47Qg0Fv2Hd_5gimli4read7arangesINtB5_12ArangeHeaderINtNtB7_12endian_slice11EndianSliceNtNtB9_9endianity12LittleEndianEjE5parseCsfB93IpvWVaK_3std, symObjAddr: 0x220D4, symBinAddr: 0x100020154, symSize: 0x2BC }
  - { offset: 0x4BFC0, size: 0x8, addend: 0x0, symName: __RNvMs4_NtNtCse47Qg0Fv2Hd_5gimli4read7arangesINtB5_12ArangeHeaderINtNtB7_12endian_slice11EndianSliceNtNtB9_9endianity12LittleEndianEjE5parseCsfB93IpvWVaK_3std, symObjAddr: 0x220D4, symBinAddr: 0x100020154, symSize: 0x2BC }
  - { offset: 0x4C6BF, size: 0x8, addend: 0x0, symName: __RNvMs8_NtNtCse47Qg0Fv2Hd_5gimli4read5indexINtB5_9UnitIndexINtNtB7_12endian_slice11EndianSliceNtNtB9_9endianity12LittleEndianEE5parseCsfB93IpvWVaK_3std, symObjAddr: 0x23100, symBinAddr: 0x100021180, symSize: 0x7D0 }
  - { offset: 0x4D236, size: 0x8, addend: 0x0, symName: __RNvMsn_NtCs7QfUfi8dEu5_5alloc4syncINtB5_3ArcINtNtNtCs5FIOKSViJ8s_4core3mem12maybe_uninit11MaybeUninitNtNtNtCsfB93IpvWVaK_3std6thread6thread5InnerENtNtB1H_5alloc6SystemE9drop_slowB1H_, symObjAddr: 0x2E570, symBinAddr: 0x10002C464, symSize: 0x2C }
  - { offset: 0x4D312, size: 0x8, addend: 0x0, symName: __RNvMsn_NtCs7QfUfi8dEu5_5alloc4syncINtB5_3ArcINtNtNtCse47Qg0Fv2Hd_5gimli4read5dwarf5DwarfINtNtBL_12endian_slice11EndianSliceNtNtBN_9endianity12LittleEndianEEE9drop_slowCsfB93IpvWVaK_3std, symObjAddr: 0x2E59C, symBinAddr: 0x10002C490, symSize: 0xD0 }
  - { offset: 0x4D57E, size: 0x8, addend: 0x0, symName: __RNvMsn_NtCs7QfUfi8dEu5_5alloc4syncINtB5_3ArcINtNtNtNtCsfB93IpvWVaK_3std4sync6poison5mutex5MutexINtNtB7_3vec3VechEEE9drop_slowBP_, symObjAddr: 0x2E66C, symBinAddr: 0x10002C560, symSize: 0xA0 }
  - { offset: 0x4D8F7, size: 0x8, addend: 0x0, symName: __RNvMsn_NtCs7QfUfi8dEu5_5alloc4syncINtB5_3ArcNtNtNtCse47Qg0Fv2Hd_5gimli4read6abbrev13AbbreviationsE9drop_slowCsfB93IpvWVaK_3std, symObjAddr: 0x2E70C, symBinAddr: 0x10002C600, symSize: 0x98 }
  - { offset: 0x4DAEC, size: 0x8, addend: 0x0, symName: __RNvMsn_NtCs7QfUfi8dEu5_5alloc4syncINtB5_3ArcNtNtNtCsfB93IpvWVaK_3std6thread6thread5InnerNtNtBM_5alloc6SystemE9drop_slowBM_, symObjAddr: 0x2E7A4, symBinAddr: 0x10002C698, symSize: 0x70 }
  - { offset: 0x4DCE2, size: 0x8, addend: 0x0, symName: __RNvMsn_NtCs7QfUfi8dEu5_5alloc4syncINtB5_3ArcNtNtNtCsfB93IpvWVaK_3std6thread9spawnhook9SpawnHookE9drop_slowBM_, symObjAddr: 0x2E814, symBinAddr: 0x10002C708, symSize: 0x98 }
  - { offset: 0x4DED7, size: 0x8, addend: 0x0, symName: __RNvMsn_NtCs7QfUfi8dEu5_5alloc4syncINtB5_3ArcNtNtNtNtCsfB93IpvWVaK_3std3sys2fs4unix12InnerReadDirE9drop_slowBO_, symObjAddr: 0x2E8AC, symBinAddr: 0x10002C7A0, symSize: 0xC0 }
  - { offset: 0x50268, size: 0x8, addend: 0x0, symName: __RNvXsq_NtCs7QfUfi8dEu5_5alloc3vecINtB5_3VechENtNtCs5FIOKSViJ8s_4core3fmt5Debug3fmtCsfB93IpvWVaK_3std, symObjAddr: 0x4C064, symBinAddr: 0x1000491E8, symSize: 0x6C }
  - { offset: 0x5091D, size: 0x8, addend: 0x0, symName: __RNvMs4_NtCs7QfUfi8dEu5_5alloc7raw_vecINtB5_11RawVecInnerNtNtCsfB93IpvWVaK_3std5alloc6SystemE11finish_growBW_, symObjAddr: 0x20394, symBinAddr: 0x10008D4C8, symSize: 0x94 }
  - { offset: 0x50A30, size: 0x8, addend: 0x0, symName: __RNvMs4_NtCs7QfUfi8dEu5_5alloc7raw_vecINtB5_11RawVecInnerNtNtCsfB93IpvWVaK_3std5alloc6SystemE14grow_amortizedBW_, symObjAddr: 0x20428, symBinAddr: 0x10008D55C, symSize: 0x70 }
  - { offset: 0x50AD9, size: 0x8, addend: 0x0, symName: __RNvMs4_NtCs7QfUfi8dEu5_5alloc7raw_vecNtB5_11RawVecInner11finish_growCsfB93IpvWVaK_3std, symObjAddr: 0x20498, symBinAddr: 0x10008D5CC, symSize: 0xB4 }
  - { offset: 0x518C8, size: 0x8, addend: 0x0, symName: __RNvMs3_NtCs7QfUfi8dEu5_5alloc7raw_vecINtB5_6RawVecINtNtB7_5boxed3BoxDINtNtNtCs5FIOKSViJ8s_4core3ops8function5FnMutuEp6OutputINtNtB1c_6result6ResultuNtNtNtCsfB93IpvWVaK_3std2io5error5ErrorENtNtB1c_6marker4SyncNtB32_4SendEL_EE8grow_oneB2s_, symObjAddr: 0x1FB78, symBinAddr: 0x10008CFC0, symSize: 0x68 }
  - { offset: 0x5194A, size: 0x8, addend: 0x0, symName: __RNvMs3_NtCs7QfUfi8dEu5_5alloc7raw_vecINtB5_6RawVecINtNtCslJahucPx05O_9addr2line4unit7ResUnitINtNtNtCse47Qg0Fv2Hd_5gimli4read12endian_slice11EndianSliceNtNtB1z_9endianity12LittleEndianEEE8grow_oneCsfB93IpvWVaK_3std, symObjAddr: 0x1FBE0, symBinAddr: 0x10008D028, symSize: 0x68 }
  - { offset: 0x519CC, size: 0x8, addend: 0x0, symName: __RNvMs3_NtCs7QfUfi8dEu5_5alloc7raw_vecINtB5_6RawVecINtNtCslJahucPx05O_9addr2line4unit7SupUnitINtNtNtCse47Qg0Fv2Hd_5gimli4read12endian_slice11EndianSliceNtNtB1z_9endianity12LittleEndianEEE8grow_oneCsfB93IpvWVaK_3std, symObjAddr: 0x1FC48, symBinAddr: 0x10008D090, symSize: 0x68 }
  - { offset: 0x51A4E, size: 0x8, addend: 0x0, symName: __RNvMs3_NtCs7QfUfi8dEu5_5alloc7raw_vecINtB5_6RawVecINtNtCslJahucPx05O_9addr2line8function12LazyFunctionINtNtNtCse47Qg0Fv2Hd_5gimli4read12endian_slice11EndianSliceNtNtB1J_9endianity12LittleEndianEEE8grow_oneCsfB93IpvWVaK_3std, symObjAddr: 0x1FCB0, symBinAddr: 0x10008D0F8, symSize: 0x68 }
  - { offset: 0x51AD0, size: 0x8, addend: 0x0, symName: __RNvMs3_NtCs7QfUfi8dEu5_5alloc7raw_vecINtB5_6RawVecINtNtCslJahucPx05O_9addr2line8function15InlinedFunctionINtNtNtCse47Qg0Fv2Hd_5gimli4read12endian_slice11EndianSliceNtNtB1M_9endianity12LittleEndianEEE8grow_oneCsfB93IpvWVaK_3std, symObjAddr: 0x1FD18, symBinAddr: 0x10008D160, symSize: 0x68 }
  - { offset: 0x51B52, size: 0x8, addend: 0x0, symName: __RNvMs3_NtCs7QfUfi8dEu5_5alloc7raw_vecINtB5_6RawVecINtNtNtCse47Qg0Fv2Hd_5gimli4read4line9FileEntryINtNtBR_12endian_slice11EndianSliceNtNtBT_9endianity12LittleEndianEjEE8grow_oneCsfB93IpvWVaK_3std, symObjAddr: 0x1FD80, symBinAddr: 0x10008D1C8, symSize: 0x68 }
  - { offset: 0x51BD4, size: 0x8, addend: 0x0, symName: __RNvMs3_NtCs7QfUfi8dEu5_5alloc7raw_vecINtB5_6RawVecINtNtNtCse47Qg0Fv2Hd_5gimli4read4unit14AttributeValueINtNtBR_12endian_slice11EndianSliceNtNtBT_9endianity12LittleEndianEjEE8grow_oneCsfB93IpvWVaK_3std, symObjAddr: 0x1FDE8, symBinAddr: 0x10008D230, symSize: 0x68 }
  - { offset: 0x51C56, size: 0x8, addend: 0x0, symName: __RNvMs3_NtCs7QfUfi8dEu5_5alloc7raw_vecINtB5_6RawVecNtNtCs7r4Y2Wsbri8_6object4read13ObjectMapFileE8grow_oneCsfB93IpvWVaK_3std, symObjAddr: 0x1FE50, symBinAddr: 0x10008D298, symSize: 0x68 }
  - { offset: 0x51CD8, size: 0x8, addend: 0x0, symName: __RNvMs3_NtCs7QfUfi8dEu5_5alloc7raw_vecINtB5_6RawVecNtNtCs7r4Y2Wsbri8_6object4read14ObjectMapEntryE8grow_oneCsfB93IpvWVaK_3std, symObjAddr: 0x1FEB8, symBinAddr: 0x10008D300, symSize: 0x68 }
  - { offset: 0x51D5A, size: 0x8, addend: 0x0, symName: __RNvMs3_NtCs7QfUfi8dEu5_5alloc7raw_vecINtB5_6RawVecNtNtCsfB93IpvWVaK_3std9backtrace14BacktraceFrameE8grow_oneBQ_, symObjAddr: 0x1FF20, symBinAddr: 0x10008D368, symSize: 0x68 }
  - { offset: 0x51DDC, size: 0x8, addend: 0x0, symName: __RNvMs3_NtCs7QfUfi8dEu5_5alloc7raw_vecINtB5_6RawVecNtNtNtCse47Qg0Fv2Hd_5gimli4read4line15FileEntryFormatE8grow_oneCsfB93IpvWVaK_3std, symObjAddr: 0x1FF88, symBinAddr: 0x10008D3D0, symSize: 0x68 }
  - { offset: 0x51E5E, size: 0x8, addend: 0x0, symName: __RNvMs3_NtCs7QfUfi8dEu5_5alloc7raw_vecINtB5_6RawVecPaE8grow_oneCsfB93IpvWVaK_3std, symObjAddr: 0x1FFF0, symBinAddr: 0x10008D438, symSize: 0x68 }
  - { offset: 0x51EE0, size: 0x8, addend: 0x0, symName: __RNvMs3_NtCs7QfUfi8dEu5_5alloc7raw_vecINtB5_6RawVecTOhFUKCBN_EuENtNtCsfB93IpvWVaK_3std5alloc6SystemE8grow_oneB13_, symObjAddr: 0x20058, symBinAddr: 0x10008D4A0, symSize: 0x28 }
  - { offset: 0x5270F, size: 0x8, addend: 0x0, symName: __RINvNvMs2_NtCs7QfUfi8dEu5_5alloc7raw_vecINtB8_11RawVecInnerpE7reserve21do_reserve_and_handleNtNtBa_5alloc6GlobalECsfB93IpvWVaK_3std, symObjAddr: 0x12F44, symBinAddr: 0x10008C3F4, symSize: 0x8C }
  - { offset: 0x52896, size: 0x8, addend: 0x0, symName: __RNvMsi_NtNtNtCs7QfUfi8dEu5_5alloc11collections5btree3mapINtB5_8BTreeMapNtNtNtCsfB93IpvWVaK_3std3ffi6os_str8OsStringB17_E6insertB1d_, symObjAddr: 0x2C1A4, symBinAddr: 0x10002A098, symSize: 0xB28 }
  - { offset: 0x54ADB, size: 0x8, addend: 0x0, symName: __RNvMsi_NtNtNtCs7QfUfi8dEu5_5alloc11collections5btree3mapINtB5_8BTreeMapNtNtNtCsfB93IpvWVaK_3std3ffi6os_str8OsStringINtNtCs5FIOKSViJ8s_4core6option6OptionB17_EE6insertB1d_, symObjAddr: 0x2CCCC, symBinAddr: 0x10002ABC0, symSize: 0xB58 }
  - { offset: 0x56F6E, size: 0x8, addend: 0x0, symName: __RNvXsk_NtNtNtCs7QfUfi8dEu5_5alloc11collections5btree3mapINtB5_4IterNtNtNtCsfB93IpvWVaK_3std3ffi6os_str8OsStringINtNtCs5FIOKSViJ8s_4core6option6OptionB13_EENtNtNtNtB1Q_4iter6traits8iterator8Iterator4nextB19_, symObjAddr: 0x4B498, symBinAddr: 0x10004861C, symSize: 0x108 }
  - { offset: 0x5724E, size: 0x8, addend: 0x0, symName: __RNvMsz_NtNtNtCs7QfUfi8dEu5_5alloc11collections5btree3mapINtB5_8IntoIterNtNtNtCsfB93IpvWVaK_3std3ffi6os_str8OsStringB17_E10dying_nextB1d_, symObjAddr: 0x2F64C, symBinAddr: 0x10002D540, symSize: 0x200 }
  - { offset: 0x5764D, size: 0x8, addend: 0x0, symName: __RNvMsz_NtNtNtCs7QfUfi8dEu5_5alloc11collections5btree3mapINtB5_8IntoIteryINtNtCs5FIOKSViJ8s_4core6result6ResultINtNtBb_4sync3ArcNtNtNtCse47Qg0Fv2Hd_5gimli4read6abbrev13AbbreviationsENtB25_5ErrorEE10dying_nextCsfB93IpvWVaK_3std, symObjAddr: 0x2F84C, symBinAddr: 0x10002D740, symSize: 0x200 }
  - { offset: 0x57A4C, size: 0x8, addend: 0x0, symName: __RNvMsz_NtNtNtCs7QfUfi8dEu5_5alloc11collections5btree3mapINtB5_8IntoIteryNtNtNtCse47Qg0Fv2Hd_5gimli4read6abbrev12AbbreviationE10dying_nextCsfB93IpvWVaK_3std, symObjAddr: 0x2FA4C, symBinAddr: 0x10002D940, symSize: 0x200 }
  - { offset: 0x57E77, size: 0x8, addend: 0x0, symName: __RNvXs1x_NtNtNtCs7QfUfi8dEu5_5alloc11collections5btree3mapINtB6_8BTreeMapNtNtNtCsfB93IpvWVaK_3std3ffi6os_str8OsStringINtNtCs5FIOKSViJ8s_4core6option6OptionB18_EENtNtB1V_3fmt5Debug3fmtB1e_, symObjAddr: 0x4115C, symBinAddr: 0x10003E2E0, symSize: 0x14C }
  - { offset: 0x59210, size: 0x8, addend: 0x0, symName: __RINvMs_NtNtNtCs7QfUfi8dEu5_5alloc11collections5btree6removeINtNtB7_4node6HandleINtBY_7NodeRefNtNtBY_6marker3MutNtNtNtCsfB93IpvWVaK_3std3ffi6os_str8OsStringB1L_NtB1v_4LeafENtB1v_2KVE14remove_leaf_kvNCNvMs7_NtNtB7_3map5entryINtB3h_13OccupiedEntryB1L_B1L_E9remove_kv0NtNtBb_5alloc6GlobalEB1R_, symObjAddr: 0x3B54, symBinAddr: 0x100003544, symSize: 0x50C }
  - { offset: 0x59DDD, size: 0x8, addend: 0x0, symName: __RINvMs_NtNtNtCs7QfUfi8dEu5_5alloc11collections5btree6removeINtNtB7_4node6HandleINtBY_7NodeRefNtNtBY_6marker3MutNtNtNtCsfB93IpvWVaK_3std3ffi6os_str8OsStringINtNtCs5FIOKSViJ8s_4core6option6OptionB1L_ENtB1v_4LeafENtB1v_2KVE14remove_leaf_kvNCNvMs7_NtNtB7_3map5entryINtB3U_13OccupiedEntryB1L_B2t_E9remove_kv0NtNtBb_5alloc6GlobalEB1R_, symObjAddr: 0x4060, symBinAddr: 0x100003A50, symSize: 0x50C }
  - { offset: 0x5A990, size: 0x8, addend: 0x0, symName: __RINvMs_NtNtNtCs7QfUfi8dEu5_5alloc11collections5btree6removeINtNtB7_4node6HandleINtBY_7NodeRefNtNtBY_6marker3MutjNtNtNtNtNtNtCsfB93IpvWVaK_3std3sys3pal4unix14stack_overflow11thread_info10ThreadInfoNtB1v_4LeafENtB1v_2KVE14remove_leaf_kvNCNvMs7_NtNtB7_3map5entryINtB3S_13OccupiedEntryjB1M_E9remove_kv0NtNtBb_5alloc6GlobalEB1Y_, symObjAddr: 0x456C, symBinAddr: 0x100003F5C, symSize: 0x4B0 }
  - { offset: 0x5BBCD, size: 0x8, addend: 0x0, symName: __RINvMs10_NtNtNtCs7QfUfi8dEu5_5alloc11collections5btree4nodeINtB7_16BalancingContextNtNtNtCsfB93IpvWVaK_3std3ffi6os_str8OsStringB1j_E25merge_tracking_child_edgeNtNtBd_5alloc6GlobalEB1p_, symObjAddr: 0x34A8, symBinAddr: 0x100002E98, symSize: 0x2B0 }
  - { offset: 0x5C2B6, size: 0x8, addend: 0x0, symName: __RINvMs10_NtNtNtCs7QfUfi8dEu5_5alloc11collections5btree4nodeINtB7_16BalancingContextjNtNtNtNtNtNtCsfB93IpvWVaK_3std3sys3pal4unix14stack_overflow11thread_info10ThreadInfoE25merge_tracking_child_edgeNtNtBd_5alloc6GlobalEB1w_, symObjAddr: 0x3758, symBinAddr: 0x100003148, symSize: 0x264 }
  - { offset: 0x5CA51, size: 0x8, addend: 0x0, symName: __RNvMs10_NtNtNtCs7QfUfi8dEu5_5alloc11collections5btree4nodeINtB6_16BalancingContextNtNtNtCsfB93IpvWVaK_3std3ffi6os_str8OsStringB1i_E15bulk_steal_leftB1o_, symObjAddr: 0x1B8B0, symBinAddr: 0x10001A368, symSize: 0x280 }
  - { offset: 0x5CFA4, size: 0x8, addend: 0x0, symName: __RNvMs10_NtNtNtCs7QfUfi8dEu5_5alloc11collections5btree4nodeINtB6_16BalancingContextNtNtNtCsfB93IpvWVaK_3std3ffi6os_str8OsStringB1i_E16bulk_steal_rightB1o_, symObjAddr: 0x1BB30, symBinAddr: 0x10001A5E8, symSize: 0x2B0 }
  - { offset: 0x5D5D5, size: 0x8, addend: 0x0, symName: __RNvMs10_NtNtNtCs7QfUfi8dEu5_5alloc11collections5btree4nodeINtB6_16BalancingContextjNtNtNtNtNtNtCsfB93IpvWVaK_3std3sys3pal4unix14stack_overflow11thread_info10ThreadInfoE15bulk_steal_leftB1v_, symObjAddr: 0x1BDE0, symBinAddr: 0x10001A898, symSize: 0x22C }
  - { offset: 0x5DB2B, size: 0x8, addend: 0x0, symName: __RNvMs10_NtNtNtCs7QfUfi8dEu5_5alloc11collections5btree4nodeINtB6_16BalancingContextjNtNtNtNtNtNtCsfB93IpvWVaK_3std3sys3pal4unix14stack_overflow11thread_info10ThreadInfoE16bulk_steal_rightB1v_, symObjAddr: 0x1C00C, symBinAddr: 0x10001AAC4, symSize: 0x274 }
  - { offset: 0x5EFA9, size: 0x8, addend: 0x0, symName: __RNvNtCs7QfUfi8dEu5_5alloc5boxed14box_new_uninit, symObjAddr: 0x2FC4C, symBinAddr: 0x10002DB40, symSize: 0x48 }
  - { offset: 0x5F2D9, size: 0x8, addend: 0x0, symName: __RNvXsZ_NtCs7QfUfi8dEu5_5alloc6stringNtB5_6StringNtNtCs5FIOKSViJ8s_4core3fmt5Write10write_char, symObjAddr: 0x46CE8, symBinAddr: 0x100043E6C, symSize: 0x11C }
  - { offset: 0x5F478, size: 0x8, addend: 0x0, symName: __RNvXsZ_NtCs7QfUfi8dEu5_5alloc6stringNtB5_6StringNtNtCs5FIOKSViJ8s_4core3fmt5Write9write_str, symObjAddr: 0x46E04, symBinAddr: 0x100043F88, symSize: 0x84 }
  - { offset: 0x5F5D0, size: 0x8, addend: 0x0, symName: __RNvXsq_NtCs7QfUfi8dEu5_5alloc6stringNtB5_6StringNtNtCs5FIOKSViJ8s_4core3fmt7Display3fmt, symObjAddr: 0x4C0D0, symBinAddr: 0x100049254, symSize: 0x10 }
  - { offset: 0x5F68A, size: 0x8, addend: 0x0, symName: __RNvXsr_NtCs7QfUfi8dEu5_5alloc6stringNtB5_6StringNtNtCs5FIOKSViJ8s_4core3fmt5Debug3fmt, symObjAddr: 0x4C130, symBinAddr: 0x1000492B4, symSize: 0x10 }
  - { offset: 0x5F8E4, size: 0x8, addend: 0x0, symName: __RNvXsX_NtNtCs7QfUfi8dEu5_5alloc3ffi5c_strNtB5_8NulErrorNtNtCs5FIOKSViJ8s_4core3fmt5Debug3fmt, symObjAddr: 0x46C9C, symBinAddr: 0x100043E20, symSize: 0x4C }
  - { offset: 0x5F91D, size: 0x8, addend: 0x0, symName: __RNvXsa_NtCs7QfUfi8dEu5_5alloc6borrowINtB5_3CowNtNtCsfB93IpvWVaK_3std4path4PathENtNtCs5FIOKSViJ8s_4core3fmt5Debug3fmtBM_, symObjAddr: 0x48E14, symBinAddr: 0x100045F98, symSize: 0x34 }
  - { offset: 0x5F93D, size: 0x8, addend: 0x0, symName: __RNvXsb_NtCs7QfUfi8dEu5_5alloc6borrowINtB5_3CoweENtNtCs5FIOKSViJ8s_4core3fmt7Display3fmtCsfB93IpvWVaK_3std, symObjAddr: 0x49298, symBinAddr: 0x10004641C, symSize: 0x10 }
  - { offset: 0x5FAAF, size: 0x8, addend: 0x0, symName: __RNCINvNtNtCsfB93IpvWVaK_3std6thread7current17with_current_nameNCNCNvNtB8_9panicking12default_hook00uE0B8_, symObjAddr: 0x13A04, symBinAddr: 0x100012C84, symSize: 0x2E8 }
  - { offset: 0x5FEEF, size: 0x8, addend: 0x0, symName: __RNvNtNtCsfB93IpvWVaK_3std6thread7current12init_current, symObjAddr: 0x343D8, symBinAddr: 0x10008D948, symSize: 0x13C }
  - { offset: 0x601C2, size: 0x8, addend: 0x0, symName: __RNvNtNtCsfB93IpvWVaK_3std6thread7current18current_or_unnamed, symObjAddr: 0x34514, symBinAddr: 0x100032190, symSize: 0xBC }
  - { offset: 0x603F1, size: 0x8, addend: 0x0, symName: __RNvNtNtCsfB93IpvWVaK_3std6thread7current7current, symObjAddr: 0x345D0, symBinAddr: 0x10003224C, symSize: 0x48 }
  - { offset: 0x60570, size: 0x8, addend: 0x0, symName: __RNvMs_NtNtCsfB93IpvWVaK_3std6thread6threadNtB4_6Thread12park_timeout, symObjAddr: 0x2526C, symBinAddr: 0x1000232EC, symSize: 0x90 }
  - { offset: 0x606AD, size: 0x8, addend: 0x0, symName: __RNvMs_NtNtCsfB93IpvWVaK_3std6thread6threadNtB4_6Thread3new, symObjAddr: 0x252FC, symBinAddr: 0x10002337C, symSize: 0x18C }
  - { offset: 0x609C8, size: 0x8, addend: 0x0, symName: __RNvMs_NtNtCsfB93IpvWVaK_3std6thread6threadNtB4_6Thread4name, symObjAddr: 0x25488, symBinAddr: 0x100023508, symSize: 0x48 }
  - { offset: 0x609DF, size: 0x8, addend: 0x0, symName: __RNvMs_NtNtCsfB93IpvWVaK_3std6thread6threadNtB4_6Thread4name, symObjAddr: 0x25488, symBinAddr: 0x100023508, symSize: 0x48 }
  - { offset: 0x609F3, size: 0x8, addend: 0x0, symName: __RNvMs_NtNtCsfB93IpvWVaK_3std6thread6threadNtB4_6Thread4name, symObjAddr: 0x25488, symBinAddr: 0x100023508, symSize: 0x48 }
  - { offset: 0x60A08, size: 0x8, addend: 0x0, symName: __RNvMs_NtNtCsfB93IpvWVaK_3std6thread6threadNtB4_6Thread4name, symObjAddr: 0x25488, symBinAddr: 0x100023508, symSize: 0x48 }
  - { offset: 0x60A1D, size: 0x8, addend: 0x0, symName: __RNvMs_NtNtCsfB93IpvWVaK_3std6thread6threadNtB4_6Thread4name, symObjAddr: 0x25488, symBinAddr: 0x100023508, symSize: 0x48 }
  - { offset: 0x60A32, size: 0x8, addend: 0x0, symName: __RNvMs_NtNtCsfB93IpvWVaK_3std6thread6threadNtB4_6Thread4name, symObjAddr: 0x25488, symBinAddr: 0x100023508, symSize: 0x48 }
  - { offset: 0x60AC4, size: 0x8, addend: 0x0, symName: __RNvMs_NtNtCsfB93IpvWVaK_3std6thread6threadNtB4_6Thread4park, symObjAddr: 0x254D0, symBinAddr: 0x100023550, symSize: 0x48 }
  - { offset: 0x60BC2, size: 0x8, addend: 0x0, symName: __RNvMs_NtNtCsfB93IpvWVaK_3std6thread6threadNtB4_6Thread8from_raw, symObjAddr: 0x25518, symBinAddr: 0x100023598, symSize: 0x8 }
  - { offset: 0x60BD9, size: 0x8, addend: 0x0, symName: __RNvMs_NtNtCsfB93IpvWVaK_3std6thread6threadNtB4_6Thread8from_raw, symObjAddr: 0x25518, symBinAddr: 0x100023598, symSize: 0x8 }
  - { offset: 0x60BEE, size: 0x8, addend: 0x0, symName: __RNvMs_NtNtCsfB93IpvWVaK_3std6thread6threadNtB4_6Thread8from_raw, symObjAddr: 0x25518, symBinAddr: 0x100023598, symSize: 0x8 }
  - { offset: 0x60C03, size: 0x8, addend: 0x0, symName: __RNvMs_NtNtCsfB93IpvWVaK_3std6thread6threadNtB4_6Thread8from_raw, symObjAddr: 0x25518, symBinAddr: 0x100023598, symSize: 0x8 }
  - { offset: 0x60CCE, size: 0x8, addend: 0x0, symName: __RNvXNtNtNtCsfB93IpvWVaK_3std6thread6thread18thread_name_stringNtB2_16ThreadNameStringINtNtCs5FIOKSViJ8s_4core7convert4FromNtNtCs7QfUfi8dEu5_5alloc6string6StringE4from, symObjAddr: 0x3DDF0, symBinAddr: 0x10003AFD4, symSize: 0x128 }
  - { offset: 0x60EE9, size: 0x8, addend: 0x0, symName: __RNvXs0_NtNtCsfB93IpvWVaK_3std6thread6threadNtB5_6ThreadNtNtCs5FIOKSViJ8s_4core3fmt5Debug3fmt, symObjAddr: 0x3F3BC, symBinAddr: 0x10003C570, symSize: 0xCC }
  - { offset: 0x61031, size: 0x8, addend: 0x0, symName: __RNvMNtNtCsfB93IpvWVaK_3std6thread2idNtB2_8ThreadId3new, symObjAddr: 0x17E30, symBinAddr: 0x100016E18, symSize: 0x44 }
  - { offset: 0x610CF, size: 0x8, addend: 0x0, symName: __RNvNvMNtNtCsfB93IpvWVaK_3std6thread2idNtB4_8ThreadId3new9exhausted, symObjAddr: 0x3BB24, symBinAddr: 0x10008E42C, symSize: 0x20 }
  - { offset: 0x610EF, size: 0x8, addend: 0x0, symName: __RNvXs6_NtNtCsfB93IpvWVaK_3std6thread2idNtB5_8ThreadIdNtNtCs5FIOKSViJ8s_4core3fmt5Debug3fmt, symObjAddr: 0x449F8, symBinAddr: 0x100041B7C, symSize: 0x40 }
  - { offset: 0x61140, size: 0x8, addend: 0x0, symName: __RNvNtNtCsfB93IpvWVaK_3std6thread9functions11sleep_until, symObjAddr: 0x34618, symBinAddr: 0x100032294, symSize: 0x148 }
  - { offset: 0x6122F, size: 0x8, addend: 0x0, symName: __RNvNtNtCsfB93IpvWVaK_3std6thread9functions12park_timeout, symObjAddr: 0x34760, symBinAddr: 0x1000323DC, symSize: 0x120 }
  - { offset: 0x614AA, size: 0x8, addend: 0x0, symName: __RNvNtNtCsfB93IpvWVaK_3std6thread9functions15park_timeout_ms, symObjAddr: 0x34880, symBinAddr: 0x1000324FC, symSize: 0x2C }
  - { offset: 0x614C8, size: 0x8, addend: 0x0, symName: __RNvNtNtCsfB93IpvWVaK_3std6thread9functions15park_timeout_ms, symObjAddr: 0x34880, symBinAddr: 0x1000324FC, symSize: 0x2C }
  - { offset: 0x614DB, size: 0x8, addend: 0x0, symName: __RNvNtNtCsfB93IpvWVaK_3std6thread9functions21available_parallelism, symObjAddr: 0x348AC, symBinAddr: 0x100032528, symSize: 0x4C }
  - { offset: 0x61562, size: 0x8, addend: 0x0, symName: __RNvNtNtCsfB93IpvWVaK_3std6thread9functions4park, symObjAddr: 0x348F8, symBinAddr: 0x100032574, symSize: 0xC8 }
  - { offset: 0x6179E, size: 0x8, addend: 0x0, symName: __RNvNtNtCsfB93IpvWVaK_3std6thread9functions5sleep, symObjAddr: 0x349C0, symBinAddr: 0x10003263C, symSize: 0xB0 }
  - { offset: 0x61825, size: 0x8, addend: 0x0, symName: __RNvNtNtCsfB93IpvWVaK_3std6thread9functions8sleep_ms, symObjAddr: 0x34A70, symBinAddr: 0x1000326EC, symSize: 0xD4 }
  - { offset: 0x618BD, size: 0x8, addend: 0x0, symName: __RNvNtNtCsfB93IpvWVaK_3std6thread9functions9yield_now, symObjAddr: 0x34B44, symBinAddr: 0x1000327C0, symSize: 0x4 }
  - { offset: 0x618DA, size: 0x8, addend: 0x0, symName: __RNvNtNtCsfB93IpvWVaK_3std6thread9functions9yield_now, symObjAddr: 0x34B44, symBinAddr: 0x1000327C0, symSize: 0x4 }
  - { offset: 0x618F1, size: 0x8, addend: 0x0, symName: __RNvXNtNtCsfB93IpvWVaK_3std6thread9functionsNtB2_10PanicGuardNtNtNtCs5FIOKSViJ8s_4core3ops4drop4Drop4drop, symObjAddr: 0x3D5B4, symBinAddr: 0x10008E4EC, symSize: 0x30 }
  - { offset: 0x61936, size: 0x8, addend: 0x0, symName: __RNvMNtNtCsfB93IpvWVaK_3std6thread6scopedNtB2_9ScopeData29decrement_num_running_threads, symObjAddr: 0x17E74, symBinAddr: 0x100016E5C, symSize: 0x44 }
  - { offset: 0x61A95, size: 0x8, addend: 0x0, symName: __RNvMNtNtCsfB93IpvWVaK_3std6thread6scopedNtB2_9ScopeData29increment_num_running_threads, symObjAddr: 0x17EB8, symBinAddr: 0x100016EA0, symSize: 0x20 }
  - { offset: 0x61AB2, size: 0x8, addend: 0x0, symName: __RNvMNtNtCsfB93IpvWVaK_3std6thread6scopedNtB2_9ScopeData29increment_num_running_threads, symObjAddr: 0x17EB8, symBinAddr: 0x100016EA0, symSize: 0x20 }
  - { offset: 0x61AC6, size: 0x8, addend: 0x0, symName: __RNvMNtNtCsfB93IpvWVaK_3std6thread6scopedNtB2_9ScopeData29increment_num_running_threads, symObjAddr: 0x17EB8, symBinAddr: 0x100016EA0, symSize: 0x20 }
  - { offset: 0x61ADB, size: 0x8, addend: 0x0, symName: __RNvMNtNtCsfB93IpvWVaK_3std6thread6scopedNtB2_9ScopeData29increment_num_running_threads, symObjAddr: 0x17EB8, symBinAddr: 0x100016EA0, symSize: 0x20 }
  - { offset: 0x61B04, size: 0x8, addend: 0x0, symName: __RNvMNtNtCsfB93IpvWVaK_3std6thread6scopedNtB2_9ScopeData8overflow, symObjAddr: 0x17ED8, symBinAddr: 0x10008C718, symSize: 0x28 }
  - { offset: 0x61B24, size: 0x8, addend: 0x0, symName: __RNvXs2_NtNtCsfB93IpvWVaK_3std6thread6scopedNtB5_5ScopeNtNtCs5FIOKSViJ8s_4core3fmt5Debug3fmt, symObjAddr: 0x416D4, symBinAddr: 0x10003E858, symSize: 0xB8 }
  - { offset: 0x61C06, size: 0x8, addend: 0x0, symName: __RNvMNtNtCsfB93IpvWVaK_3std6thread7builderNtB2_7Builder4name, symObjAddr: 0x17F00, symBinAddr: 0x100016EC0, symSize: 0x68 }
  - { offset: 0x61DF5, size: 0x8, addend: 0x0, symName: __RNvNtNtCsfB93IpvWVaK_3std6thread5local18panic_access_error, symObjAddr: 0x343A8, symBinAddr: 0x10008D918, symSize: 0x30 }
  - { offset: 0x61E15, size: 0x8, addend: 0x0, symName: __RNvXs0_NtNtCsfB93IpvWVaK_3std6thread5localNtB5_11AccessErrorNtNtCs5FIOKSViJ8s_4core3fmt7Display3fmt, symObjAddr: 0x3F3A8, symBinAddr: 0x10003C55C, symSize: 0x14 }
  - { offset: 0x61E36, size: 0x8, addend: 0x0, symName: __RNvXs_NtNtCsfB93IpvWVaK_3std6thread5localNtB4_11AccessErrorNtNtCs5FIOKSViJ8s_4core3fmt5Debug3fmt, symObjAddr: 0x478D8, symBinAddr: 0x100044A5C, symSize: 0x38 }
  - { offset: 0x61E75, size: 0x8, addend: 0x0, symName: __RNvMs_NtNtCsfB93IpvWVaK_3std6thread9spawnhookNtB4_15ChildSpawnHooks3run, symObjAddr: 0x25520, symBinAddr: 0x1000235A0, symSize: 0x268 }
  - { offset: 0x6266A, size: 0x8, addend: 0x0, symName: __RNvNtNtCsfB93IpvWVaK_3std6thread9spawnhook15run_spawn_hooks, symObjAddr: 0x34B48, symBinAddr: 0x1000327C4, symSize: 0x29C }
  - { offset: 0x62C90, size: 0x8, addend: 0x0, symName: __RNvXNtNtCsfB93IpvWVaK_3std6thread9spawnhookNtB2_10SpawnHooksNtNtNtCs5FIOKSViJ8s_4core3ops4drop4Drop4drop, symObjAddr: 0x3D5E4, symBinAddr: 0x10003A7C8, symSize: 0x104 }
  - { offset: 0x6311D, size: 0x8, addend: 0x0, symName: __RINvNtNtNtNtCsfB93IpvWVaK_3std3sys12thread_local6native5eager7destroyINtNtCs5FIOKSViJ8s_4core4cell4CellINtNtB1a_6option6OptionINtNtCs7QfUfi8dEu5_5alloc4sync3ArcINtNtNtNtBa_4sync6poison5mutex5MutexINtNtB25_3vec3VechEEEEEEBa_, symObjAddr: 0x12E94, symBinAddr: 0x1000121A0, symSize: 0x2C }
  - { offset: 0x6324D, size: 0x8, addend: 0x0, symName: __RINvNtNtNtNtCsfB93IpvWVaK_3std3sys12thread_local6native5eager7destroyINtNtCs5FIOKSViJ8s_4core4cell4CellNtNtNtBa_6thread9spawnhook10SpawnHooksEEBa_, symObjAddr: 0x12EC0, symBinAddr: 0x1000121CC, symSize: 0x84 }
  - { offset: 0x6346D, size: 0x8, addend: 0x0, symName: __RNvNvNtNtNtNtCsfB93IpvWVaK_3std3sys12thread_local5guard5apple6enable9run_dtors, symObjAddr: 0x3CB78, symBinAddr: 0x100039D8C, symSize: 0xF0 }
  - { offset: 0x6390D, size: 0x8, addend: 0x0, symName: __RNvNtNtNtNtCsfB93IpvWVaK_3std3sys12thread_local11destructors4list8register, symObjAddr: 0x39C14, symBinAddr: 0x100036EE8, symSize: 0xFC }
  - { offset: 0x63BD0, size: 0x8, addend: 0x0, symName: __RNvXNvNtNtCsfB93IpvWVaK_3std3sys12thread_local20abort_on_dtor_unwindNtB2_15DtorUnwindGuardNtNtNtCs5FIOKSViJ8s_4core3ops4drop4Drop4drop, symObjAddr: 0x3E944, symBinAddr: 0x10008E51C, symSize: 0x30 }
  - { offset: 0x63C31, size: 0x8, addend: 0x0, symName: __RNvMNtNtNtNtCsfB93IpvWVaK_3std3sys4sync4once5queueNtB2_4Once4call, symObjAddr: 0x18D18, symBinAddr: 0x10008C888, symSize: 0x1F4 }
  - { offset: 0x63EBE, size: 0x8, addend: 0x0, symName: __RNvMNtNtNtNtCsfB93IpvWVaK_3std3sys4sync4once5queueNtB2_4Once4wait, symObjAddr: 0x18F0C, symBinAddr: 0x10008CA7C, symSize: 0x1CC }
  - { offset: 0x644A7, size: 0x8, addend: 0x0, symName: __RNvXs0_NtNtNtNtCsfB93IpvWVaK_3std3sys4sync4once5queueNtB5_11WaiterQueueNtNtNtCs5FIOKSViJ8s_4core3ops4drop4Drop4drop, symObjAddr: 0x3F66C, symBinAddr: 0x10003C820, symSize: 0xD8 }
  - { offset: 0x646C4, size: 0x8, addend: 0x0, symName: __RNvNtNtNtNtCsfB93IpvWVaK_3std3sys4sync4once5queue4wait, symObjAddr: 0x3A214, symBinAddr: 0x1000374E8, symSize: 0x184 }
  - { offset: 0x64D2F, size: 0x8, addend: 0x0, symName: __RNvXs_NtNtNtNtCsfB93IpvWVaK_3std3sys4sync5mutex7pthreadNtB4_5MutexNtNtNtCs5FIOKSViJ8s_4core3ops4drop4Drop4drop, symObjAddr: 0x48A14, symBinAddr: 0x100045B98, symSize: 0x58 }
  - { offset: 0x64E79, size: 0x8, addend: 0x0, symName: __RINvMNtNtNtCsfB93IpvWVaK_3std3sys4sync8once_boxINtB3_7OnceBoxNtNtNtNtNtB7_3pal4unix4sync5mutex5MutexE10initializeNCNvMNtNtB5_5mutex7pthreadNtB1S_5Mutex3get0EB9_, symObjAddr: 0x2D64, symBinAddr: 0x10008BB78, symSize: 0xE4 }
  - { offset: 0x65049, size: 0x8, addend: 0x0, symName: __RINvMNtNtNtCsfB93IpvWVaK_3std3sys4sync8once_boxINtB3_7OnceBoxNtNtNtNtNtB7_3pal4unix4sync7condvar7CondvarE10initializeNCNvMNtNtB5_7condvar7pthreadNtB1W_7Condvar3get0EB9_, symObjAddr: 0x2E48, symBinAddr: 0x10008BC5C, symSize: 0xB4 }
  - { offset: 0x6531D, size: 0x8, addend: 0x0, symName: __RNvMNtNtNtNtCsfB93IpvWVaK_3std3sys4sync7condvar7pthreadNtB2_7Condvar12wait_timeout, symObjAddr: 0x190D8, symBinAddr: 0x100017B90, symSize: 0x130 }
  - { offset: 0x65510, size: 0x8, addend: 0x0, symName: __RNvMs1_NtNtNtNtCsfB93IpvWVaK_3std3sys4sync6rwlock5queueNtB5_6RwLock12unlock_queue, symObjAddr: 0x1E940, symBinAddr: 0x10001D3F8, symSize: 0x1B4 }
  - { offset: 0x65B97, size: 0x8, addend: 0x0, symName: __RNvMs1_NtNtNtNtCsfB93IpvWVaK_3std3sys4sync6rwlock5queueNtB5_6RwLock14downgrade_slow, symObjAddr: 0x1EAF4, symBinAddr: 0x10008CC48, symSize: 0x108 }
  - { offset: 0x65F80, size: 0x8, addend: 0x0, symName: __RNvMs1_NtNtNtNtCsfB93IpvWVaK_3std3sys4sync6rwlock5queueNtB5_6RwLock14lock_contended, symObjAddr: 0x1EBFC, symBinAddr: 0x10008CD50, symSize: 0x1F0 }
  - { offset: 0x66500, size: 0x8, addend: 0x0, symName: __RNvMs1_NtNtNtNtCsfB93IpvWVaK_3std3sys4sync6rwlock5queueNtB5_6RwLock16unlock_contended, symObjAddr: 0x1EDEC, symBinAddr: 0x10008CF40, symSize: 0x40 }
  - { offset: 0x665C7, size: 0x8, addend: 0x0, symName: __RNvMs1_NtNtNtNtCsfB93IpvWVaK_3std3sys4sync6rwlock5queueNtB5_6RwLock21read_unlock_contended, symObjAddr: 0x1EE2C, symBinAddr: 0x10008CF80, symSize: 0x40 }
  - { offset: 0x665E5, size: 0x8, addend: 0x0, symName: __RNvMs1_NtNtNtNtCsfB93IpvWVaK_3std3sys4sync6rwlock5queueNtB5_6RwLock21read_unlock_contended, symObjAddr: 0x1EE2C, symBinAddr: 0x10008CF80, symSize: 0x40 }
  - { offset: 0x665FA, size: 0x8, addend: 0x0, symName: __RNvMs1_NtNtNtNtCsfB93IpvWVaK_3std3sys4sync6rwlock5queueNtB5_6RwLock21read_unlock_contended, symObjAddr: 0x1EE2C, symBinAddr: 0x10008CF80, symSize: 0x40 }
  - { offset: 0x6688F, size: 0x8, addend: 0x0, symName: __RNvNtNtNtNtCsfB93IpvWVaK_3std3sys4sync6rwlock5queue10write_lock, symObjAddr: 0x3A398, symBinAddr: 0x10003766C, symSize: 0x14 }
  - { offset: 0x668A2, size: 0x8, addend: 0x0, symName: __RNvNtNtNtNtCsfB93IpvWVaK_3std3sys4sync6rwlock5queue9read_lock, symObjAddr: 0x3A3AC, symBinAddr: 0x100037680, symSize: 0x20 }
  - { offset: 0x668BB, size: 0x8, addend: 0x0, symName: __RNvXs0_NtNtNtNtCsfB93IpvWVaK_3std3sys4sync6rwlock5queueNtB5_10PanicGuardNtNtNtCs5FIOKSViJ8s_4core3ops4drop4Drop4drop, symObjAddr: 0x3F744, symBinAddr: 0x10008E54C, symSize: 0x30 }
  - { offset: 0x66900, size: 0x8, addend: 0x0, symName: __RNvMs0_NtNtNtNtCsfB93IpvWVaK_3std3sys4sync14thread_parking6darwinNtB5_6Parker6unpark, symObjAddr: 0x1B758, symBinAddr: 0x10001A210, symSize: 0x20 }
  - { offset: 0x66917, size: 0x8, addend: 0x0, symName: __RNvMs0_NtNtNtNtCsfB93IpvWVaK_3std3sys4sync14thread_parking6darwinNtB5_6Parker6unpark, symObjAddr: 0x1B758, symBinAddr: 0x10001A210, symSize: 0x20 }
  - { offset: 0x6692B, size: 0x8, addend: 0x0, symName: __RNvMs0_NtNtNtNtCsfB93IpvWVaK_3std3sys4sync14thread_parking6darwinNtB5_6Parker6unpark, symObjAddr: 0x1B758, symBinAddr: 0x10001A210, symSize: 0x20 }
  - { offset: 0x66940, size: 0x8, addend: 0x0, symName: __RNvMs0_NtNtNtNtCsfB93IpvWVaK_3std3sys4sync14thread_parking6darwinNtB5_6Parker6unpark, symObjAddr: 0x1B758, symBinAddr: 0x10001A210, symSize: 0x20 }
  - { offset: 0x66994, size: 0x8, addend: 0x0, symName: __RNvXs1_NtNtNtNtCsfB93IpvWVaK_3std3sys4sync14thread_parking6darwinNtB5_6ParkerNtNtNtCs5FIOKSViJ8s_4core3ops4drop4Drop4drop, symObjAddr: 0x40468, symBinAddr: 0x10003D5EC, symSize: 0x8 }
  - { offset: 0x669F8, size: 0x8, addend: 0x0, symName: __RNvMNtNtNtNtNtCsfB93IpvWVaK_3std3sys3pal4unix4sync5mutexNtB2_5Mutex4init, symObjAddr: 0x1A2F0, symBinAddr: 0x100018DA8, symSize: 0x168 }
  - { offset: 0x66A8C, size: 0x8, addend: 0x0, symName: __RNvMNtNtNtNtNtCsfB93IpvWVaK_3std3sys3pal4unix4sync5mutexNtB2_5Mutex4lock, symObjAddr: 0x1A458, symBinAddr: 0x100018F10, symSize: 0x1C }
  - { offset: 0x66A9F, size: 0x8, addend: 0x0, symName: __RNvMNtNtNtNtNtCsfB93IpvWVaK_3std3sys3pal4unix4sync5mutexNtB2_5Mutex6unlock, symObjAddr: 0x1A474, symBinAddr: 0x100018F2C, symSize: 0x4 }
  - { offset: 0x66AB2, size: 0x8, addend: 0x0, symName: __RNvMNtNtNtNtNtCsfB93IpvWVaK_3std3sys3pal4unix4sync5mutexNtB2_5Mutex8try_lock, symObjAddr: 0x1A478, symBinAddr: 0x100018F30, symSize: 0x1C }
  - { offset: 0x66AD8, size: 0x8, addend: 0x0, symName: __RNvXs2_NtNtNtNtNtCsfB93IpvWVaK_3std3sys3pal4unix4sync5mutexNtB5_5MutexNtNtNtCs5FIOKSViJ8s_4core3ops4drop4Drop4drop, symObjAddr: 0x419FC, symBinAddr: 0x10003EB80, symSize: 0x4 }
  - { offset: 0x66AFE, size: 0x8, addend: 0x0, symName: __RNvXs3_NtNtNtNtNtCsfB93IpvWVaK_3std3sys3pal4unix4sync5mutexNtB5_9AttrGuardNtNtNtCs5FIOKSViJ8s_4core3ops4drop4Drop4drop, symObjAddr: 0x42C98, symBinAddr: 0x10003FE1C, symSize: 0x48 }
  - { offset: 0x66B1D, size: 0x8, addend: 0x0, symName: __RNvNvMNtNtNtNtNtCsfB93IpvWVaK_3std3sys3pal4unix4sync5mutexNtB4_5Mutex4lock4fail, symObjAddr: 0x3BB44, symBinAddr: 0x10008E44C, symSize: 0x60 }
  - { offset: 0x66BDA, size: 0x8, addend: 0x0, symName: __RNvXs_NtNtNtNtCsfB93IpvWVaK_3std3sys3pal4unix14stack_overflowNtB4_7HandlerNtNtNtCs5FIOKSViJ8s_4core3ops4drop4Drop4drop, symObjAddr: 0x48A0C, symBinAddr: 0x100045B90, symSize: 0x8 }
  - { offset: 0x66C52, size: 0x8, addend: 0x0, symName: __RNvNtNtNtNtNtCsfB93IpvWVaK_3std3sys3pal4unix14stack_overflow3imp12drop_handler, symObjAddr: 0x3B35C, symBinAddr: 0x100038630, symSize: 0x3A0 }
  - { offset: 0x674E8, size: 0x8, addend: 0x0, symName: __RNvNtNtNtNtNtCsfB93IpvWVaK_3std3sys3pal4unix14stack_overflow3imp12make_handler, symObjAddr: 0x3B6FC, symBinAddr: 0x1000389D0, symSize: 0x194 }
  - { offset: 0x6773B, size: 0x8, addend: 0x0, symName: __RNvNtNtNtNtNtCsfB93IpvWVaK_3std3sys3pal4unix14stack_overflow3imp14signal_handler, symObjAddr: 0x3B890, symBinAddr: 0x100038B64, symSize: 0x294 }
  - { offset: 0x67C03, size: 0x8, addend: 0x0, symName: __RNvXNtNtNtNtNtCsfB93IpvWVaK_3std3sys3pal4unix14stack_overflow11thread_infoNtB2_12UnlockOnDropNtNtNtCs5FIOKSViJ8s_4core3ops4drop4Drop4drop, symObjAddr: 0x3E2C8, symBinAddr: 0x10003B4AC, symSize: 0x10 }
  - { offset: 0x67C1B, size: 0x8, addend: 0x0, symName: __RNvXNtNtNtNtNtCsfB93IpvWVaK_3std3sys3pal4unix14stack_overflow11thread_infoNtB2_12UnlockOnDropNtNtNtCs5FIOKSViJ8s_4core3ops4drop4Drop4drop, symObjAddr: 0x3E2C8, symBinAddr: 0x10003B4AC, symSize: 0x10 }
  - { offset: 0x67C30, size: 0x8, addend: 0x0, symName: __RNvXNtNtNtNtNtCsfB93IpvWVaK_3std3sys3pal4unix14stack_overflow11thread_infoNtB2_12UnlockOnDropNtNtNtCs5FIOKSViJ8s_4core3ops4drop4Drop4drop, symObjAddr: 0x3E2C8, symBinAddr: 0x10003B4AC, symSize: 0x10 }
  - { offset: 0x67C45, size: 0x8, addend: 0x0, symName: __RNvNtNtNtNtNtCsfB93IpvWVaK_3std3sys3pal4unix14stack_overflow11thread_info16set_current_info, symObjAddr: 0x3A67C, symBinAddr: 0x100037950, symSize: 0xCE0 }
  - { offset: 0x69DF5, size: 0x8, addend: 0x0, symName: __RNvMNtNtNtNtCsfB93IpvWVaK_3std3sys3pal4unix4timeNtB2_8Timespec12sub_timespec, symObjAddr: 0x18B20, symBinAddr: 0x100017998, symSize: 0xE4 }
  - { offset: 0x69EF3, size: 0x8, addend: 0x0, symName: __RNvMNtNtNtNtCsfB93IpvWVaK_3std3sys3pal4unix4timeNtB2_8Timespec3now, symObjAddr: 0x18C04, symBinAddr: 0x100017A7C, symSize: 0x114 }
  - { offset: 0x6A100, size: 0x8, addend: 0x0, symName: __RNvNtNtNtCsfB93IpvWVaK_3std3sys3pal4unix14abort_internal, symObjAddr: 0x39224, symBinAddr: 0x10008E420, symSize: 0xC }
  - { offset: 0x6A3A3, size: 0x8, addend: 0x0, symName: __RNvXs4_NtNtNtCsfB93IpvWVaK_3std3sys6os_str5bytesNtB5_5SliceNtNtCs5FIOKSViJ8s_4core3fmt7Display3fmt, symObjAddr: 0x43BE0, symBinAddr: 0x100040D64, symSize: 0x4 }
  - { offset: 0x6A3C2, size: 0x8, addend: 0x0, symName: __RNvNvMs7_NtNtNtCsfB93IpvWVaK_3std3sys6os_str5bytesNtB7_5Slice21check_public_boundary9slow_path, symObjAddr: 0x3BF10, symBinAddr: 0x100039164, symSize: 0x10C }
  - { offset: 0x6A4ED, size: 0x8, addend: 0x0, symName: __RNvXs1_NtNtNtCsfB93IpvWVaK_3std3sys6os_str5bytesNtB5_3BufNtNtCs5FIOKSViJ8s_4core3fmt5Debug3fmt, symObjAddr: 0x40330, symBinAddr: 0x10003D4B4, symSize: 0x28 }
  - { offset: 0x6A5B8, size: 0x8, addend: 0x0, symName: __RNvXs2_NtNtNtCsfB93IpvWVaK_3std3sys6os_str5bytesNtB5_3BufNtNtCs5FIOKSViJ8s_4core3fmt7Display3fmt, symObjAddr: 0x4193C, symBinAddr: 0x10003EAC0, symSize: 0x10 }
  - { offset: 0x6A6AC, size: 0x8, addend: 0x0, symName: __RNvNtNtNtCsfB93IpvWVaK_3std3sys4path4unix8absolute, symObjAddr: 0x39230, symBinAddr: 0x100036504, symSize: 0x388 }
  - { offset: 0x6B04B, size: 0x8, addend: 0x0, symName: __RNvNvMs0_NtNtNtCsfB93IpvWVaK_3std3sys6thread4unixNtB7_6Thread3new12thread_start, symObjAddr: 0x3BBA4, symBinAddr: 0x100038DF8, symSize: 0x234 }
  - { offset: 0x6B790, size: 0x8, addend: 0x0, symName: __RNvMs0_NtNtNtCsfB93IpvWVaK_3std3sys6thread4unixNtB5_6Thread3new, symObjAddr: 0x1AAAC, symBinAddr: 0x100019564, symSize: 0x1DC }
  - { offset: 0x6B8CB, size: 0x8, addend: 0x0, symName: __RNvMs0_NtNtNtCsfB93IpvWVaK_3std3sys6thread4unixNtB5_6Thread4join, symObjAddr: 0x1AC88, symBinAddr: 0x100019740, symSize: 0x7C }
  - { offset: 0x6B96E, size: 0x8, addend: 0x0, symName: __RNvXs1_NtNtNtCsfB93IpvWVaK_3std3sys6thread4unixNtB5_6ThreadNtNtNtCs5FIOKSViJ8s_4core3ops4drop4Drop4drop, symObjAddr: 0x40358, symBinAddr: 0x10003D4DC, symSize: 0x8 }
  - { offset: 0x6B9A6, size: 0x8, addend: 0x0, symName: __RNCNvNtNtNtCsfB93IpvWVaK_3std3sys16platform_version6darwin18string_version_keys_0B9_, symObjAddr: 0x15524, symBinAddr: 0x10008C5E4, symSize: 0x50 }
  - { offset: 0x6BAE8, size: 0x8, addend: 0x0, symName: __RNvXs_NtNtNtNtCsfB93IpvWVaK_3std3sys16platform_version6darwin15core_foundationNtB4_8CFHandleNtNtNtCs5FIOKSViJ8s_4core3ops4drop4Drop4drop, symObjAddr: 0x487D0, symBinAddr: 0x100045954, symSize: 0x8 }
  - { offset: 0x6BB02, size: 0x8, addend: 0x0, symName: __RNCNvNtNtNtCsfB93IpvWVaK_3std3sys16platform_version6darwin18version_from_plist0B9_, symObjAddr: 0x15574, symBinAddr: 0x10008C634, symSize: 0x64 }
  - { offset: 0x6BB9C, size: 0x8, addend: 0x0, symName: __RNvNtNtNtCsfB93IpvWVaK_3std3sys16platform_version6darwin14lookup_version, symObjAddr: 0x37618, symBinAddr: 0x10008DAB0, symSize: 0x970 }
  - { offset: 0x6C7FE, size: 0x8, addend: 0x0, symName: __RNvNtNtNtCsfB93IpvWVaK_3std3sys16platform_version6darwin16parse_os_version, symObjAddr: 0x37F88, symBinAddr: 0x100035268, symSize: 0x6C8 }
  - { offset: 0x6C81C, size: 0x8, addend: 0x0, symName: __RNvNtNtNtCsfB93IpvWVaK_3std3sys16platform_version6darwin16parse_os_version, symObjAddr: 0x37F88, symBinAddr: 0x100035268, symSize: 0x6C8 }
  - { offset: 0x6C831, size: 0x8, addend: 0x0, symName: __RNvNtNtNtCsfB93IpvWVaK_3std3sys16platform_version6darwin16parse_os_version, symObjAddr: 0x37F88, symBinAddr: 0x100035268, symSize: 0x6C8 }
  - { offset: 0x6CDFE, size: 0x8, addend: 0x0, symName: ___isOSVersionAtLeast, symObjAddr: 0x4E488, symBinAddr: 0x10004B60C, symSize: 0x88 }
  - { offset: 0x6CF1B, size: 0x8, addend: 0x0, symName: ___isPlatformVersionAtLeast, symObjAddr: 0x4E510, symBinAddr: 0x10004B694, symSize: 0x84 }
  - { offset: 0x6D072, size: 0x8, addend: 0x0, symName: __RNvXs3_NtNtNtNtNtCsfB93IpvWVaK_3std3sys7process4unix6common13cstring_arrayNtB5_12CStringArrayNtNtNtCs5FIOKSViJ8s_4core3ops4drop4Drop4drop, symObjAddr: 0x42CE0, symBinAddr: 0x10003FE64, symSize: 0x70 }
  - { offset: 0x6D283, size: 0x8, addend: 0x0, symName: __RNvXs4_NtNtNtNtNtCsfB93IpvWVaK_3std3sys7process4unix6common13cstring_arrayNtB5_11CStringIterNtNtNtNtCs5FIOKSViJ8s_4core4iter6traits8iterator8Iterator4next, symObjAddr: 0x43BE4, symBinAddr: 0x100040D68, symSize: 0x44 }
  - { offset: 0x6D2FF, size: 0x8, addend: 0x0, symName: __RNvXs4_NtNtNtNtNtCsfB93IpvWVaK_3std3sys7process4unix6common13cstring_arrayNtB5_11CStringIterNtNtNtNtCs5FIOKSViJ8s_4core4iter6traits8iterator8Iterator9size_hint, symObjAddr: 0x43C28, symBinAddr: 0x100040DAC, symSize: 0x1C }
  - { offset: 0x6D37C, size: 0x8, addend: 0x0, symName: __RNvXs0_NtNtNtNtNtCsfB93IpvWVaK_3std3sys7process4unix6common13cstring_arrayNtB5_12CStringArrayNtNtCs5FIOKSViJ8s_4core3fmt5Debug3fmt, symObjAddr: 0x3F7CC, symBinAddr: 0x10003C950, symSize: 0xA4 }
  - { offset: 0x6D495, size: 0x8, addend: 0x0, symName: __RNvXs5_NtNtNtNtNtCsfB93IpvWVaK_3std3sys7process4unix6common13cstring_arrayNtB5_11CStringIterNtNtNtNtCs5FIOKSViJ8s_4core4iter6traits10exact_size17ExactSizeIterator3len, symObjAddr: 0x44474, symBinAddr: 0x1000415F8, symSize: 0x10 }
  - { offset: 0x6D4AC, size: 0x8, addend: 0x0, symName: __RNvXs5_NtNtNtNtNtCsfB93IpvWVaK_3std3sys7process4unix6common13cstring_arrayNtB5_11CStringIterNtNtNtNtCs5FIOKSViJ8s_4core4iter6traits10exact_size17ExactSizeIterator3len, symObjAddr: 0x44474, symBinAddr: 0x1000415F8, symSize: 0x10 }
  - { offset: 0x6D51E, size: 0x8, addend: 0x0, symName: __RNvXs_NtNtNtNtNtCsfB93IpvWVaK_3std3sys7process4unix6common13cstring_arrayNtB4_12CStringArrayINtNtNtCs5FIOKSViJ8s_4core3ops5index5IndexjE5index, symObjAddr: 0x48A6C, symBinAddr: 0x100045BF0, symSize: 0x68 }
  - { offset: 0x6D677, size: 0x8, addend: 0x0, symName: __RNvMNtNtNtNtCsfB93IpvWVaK_3std3sys7process4unix4unixNtNtB4_6common7Command5spawn, symObjAddr: 0x19208, symBinAddr: 0x100017CC0, symSize: 0x920 }
  - { offset: 0x6E680, size: 0x8, addend: 0x0, symName: __RNvMNtNtNtNtCsfB93IpvWVaK_3std3sys7process4unix4unixNtNtB4_6common7Command7do_exec, symObjAddr: 0x19B28, symBinAddr: 0x1000185E0, symSize: 0x400 }
  - { offset: 0x6EEFA, size: 0x8, addend: 0x0, symName: __RNvMs_NtNtNtNtCsfB93IpvWVaK_3std3sys7process4unix6commonNtB4_7Command11capture_env, symObjAddr: 0x29304, symBinAddr: 0x1000271F8, symSize: 0xA98 }
  - { offset: 0x70F76, size: 0x8, addend: 0x0, symName: __RNvMs_NtNtNtNtCsfB93IpvWVaK_3std3sys7process4unix6commonNtB4_7Command3arg, symObjAddr: 0x29D9C, symBinAddr: 0x100027C90, symSize: 0xE8 }
  - { offset: 0x712D3, size: 0x8, addend: 0x0, symName: __RNvMs_NtNtNtNtCsfB93IpvWVaK_3std3sys7process4unix6commonNtB4_7Command3cwd, symObjAddr: 0x29E84, symBinAddr: 0x100027D78, symSize: 0xD4 }
  - { offset: 0x7158B, size: 0x8, addend: 0x0, symName: __RNvMs_NtNtNtNtCsfB93IpvWVaK_3std3sys7process4unix6commonNtB4_7Command3new, symObjAddr: 0x29F58, symBinAddr: 0x100027E4C, symSize: 0x278 }
  - { offset: 0x71ADD, size: 0x8, addend: 0x0, symName: __RNvMs_NtNtNtNtCsfB93IpvWVaK_3std3sys7process4unix6commonNtB4_7Command5stdin, symObjAddr: 0x2A1D0, symBinAddr: 0x1000280C4, symSize: 0x44 }
  - { offset: 0x71B66, size: 0x8, addend: 0x0, symName: __RNvMs_NtNtNtNtCsfB93IpvWVaK_3std3sys7process4unix6commonNtB4_7Command6chroot, symObjAddr: 0x2A214, symBinAddr: 0x100028108, symSize: 0xF8 }
  - { offset: 0x71E55, size: 0x8, addend: 0x0, symName: __RNvMs_NtNtNtNtCsfB93IpvWVaK_3std3sys7process4unix6commonNtB4_7Command6stderr, symObjAddr: 0x2A30C, symBinAddr: 0x100028200, symSize: 0x44 }
  - { offset: 0x71EDE, size: 0x8, addend: 0x0, symName: __RNvMs_NtNtNtNtCsfB93IpvWVaK_3std3sys7process4unix6commonNtB4_7Command6stdout, symObjAddr: 0x2A350, symBinAddr: 0x100028244, symSize: 0x44 }
  - { offset: 0x71F67, size: 0x8, addend: 0x0, symName: __RNvMs_NtNtNtNtCsfB93IpvWVaK_3std3sys7process4unix6commonNtB4_7Command8pre_exec, symObjAddr: 0x2A394, symBinAddr: 0x100028288, symSize: 0x70 }
  - { offset: 0x7204A, size: 0x8, addend: 0x0, symName: __RNvMs_NtNtNtNtCsfB93IpvWVaK_3std3sys7process4unix6commonNtB4_7Command8setup_io, symObjAddr: 0x2A404, symBinAddr: 0x1000282F8, symSize: 0x2B4 }
  - { offset: 0x72424, size: 0x8, addend: 0x0, symName: __RNvMs_NtNtNtNtCsfB93IpvWVaK_3std3sys7process4unix6commonNtB4_7Command9set_arg_0, symObjAddr: 0x2A6B8, symBinAddr: 0x1000285AC, symSize: 0x138 }
  - { offset: 0x72884, size: 0x8, addend: 0x0, symName: __RNvMs0_NtNtNtNtCsfB93IpvWVaK_3std3sys7process4unix6commonNtB5_5Stdio14to_child_stdio, symObjAddr: 0x1B778, symBinAddr: 0x10001A230, symSize: 0x138 }
  - { offset: 0x729B9, size: 0x8, addend: 0x0, symName: __RNvNtNtNtNtCsfB93IpvWVaK_3std3sys7process4unix6common11read_output, symObjAddr: 0x3A3CC, symBinAddr: 0x1000376A0, symSize: 0x2B0 }
  - { offset: 0x72DEC, size: 0x8, addend: 0x0, symName: __RNvXsa_NtNtNtNtCsfB93IpvWVaK_3std3sys7process4unix6commonNtB5_11CommandArgsNtNtNtNtCs5FIOKSViJ8s_4core4iter6traits8iterator8Iterator4next, symObjAddr: 0x49238, symBinAddr: 0x1000463BC, symSize: 0x44 }
  - { offset: 0x72E7E, size: 0x8, addend: 0x0, symName: __RNvXsa_NtNtNtNtCsfB93IpvWVaK_3std3sys7process4unix6commonNtB5_11CommandArgsNtNtNtNtCs5FIOKSViJ8s_4core4iter6traits8iterator8Iterator9size_hint, symObjAddr: 0x4927C, symBinAddr: 0x100046400, symSize: 0x1C }
  - { offset: 0x72E95, size: 0x8, addend: 0x0, symName: __RNvXsa_NtNtNtNtCsfB93IpvWVaK_3std3sys7process4unix6commonNtB5_11CommandArgsNtNtNtNtCs5FIOKSViJ8s_4core4iter6traits8iterator8Iterator9size_hint, symObjAddr: 0x4927C, symBinAddr: 0x100046400, symSize: 0x1C }
  - { offset: 0x72F12, size: 0x8, addend: 0x0, symName: __RNvXs6_NtNtNtNtCsfB93IpvWVaK_3std3sys7process4unix6commonNtB5_7CommandNtNtCs5FIOKSViJ8s_4core3fmt5Debug3fmt, symObjAddr: 0x44BA8, symBinAddr: 0x100041D2C, symSize: 0x780 }
  - { offset: 0x73DC2, size: 0x8, addend: 0x0, symName: __RNvXs7_NtNtNtNtCsfB93IpvWVaK_3std3sys7process4unix6commonNtB5_8ExitCodeNtNtCs5FIOKSViJ8s_4core3fmt5Debug3fmt, symObjAddr: 0x45B40, symBinAddr: 0x100042CC4, symSize: 0x58 }
  - { offset: 0x73DE2, size: 0x8, addend: 0x0, symName: __RNvXsb_NtNtNtNtCsfB93IpvWVaK_3std3sys7process4unix6commonNtB5_11CommandArgsNtNtNtNtCs5FIOKSViJ8s_4core4iter6traits10exact_size17ExactSizeIterator3len, symObjAddr: 0x49498, symBinAddr: 0x10004661C, symSize: 0x10 }
  - { offset: 0x73DF9, size: 0x8, addend: 0x0, symName: __RNvXsb_NtNtNtNtCsfB93IpvWVaK_3std3sys7process4unix6commonNtB5_11CommandArgsNtNtNtNtCs5FIOKSViJ8s_4core4iter6traits10exact_size17ExactSizeIterator3len, symObjAddr: 0x49498, symBinAddr: 0x10004661C, symSize: 0x10 }
  - { offset: 0x73E0E, size: 0x8, addend: 0x0, symName: __RNvXsb_NtNtNtNtCsfB93IpvWVaK_3std3sys7process4unix6commonNtB5_11CommandArgsNtNtNtNtCs5FIOKSViJ8s_4core4iter6traits10exact_size17ExactSizeIterator3len, symObjAddr: 0x49498, symBinAddr: 0x10004661C, symSize: 0x10 }
  - { offset: 0x73E76, size: 0x8, addend: 0x0, symName: __RNvXsc_NtNtNtNtCsfB93IpvWVaK_3std3sys7process4unix6commonNtB5_11CommandArgsNtNtCs5FIOKSViJ8s_4core3fmt5Debug3fmt, symObjAddr: 0x49804, symBinAddr: 0x100046988, symSize: 0x84 }
  - { offset: 0x73F8C, size: 0x8, addend: 0x0, symName: __RNvXNvMNtNtNtNtCsfB93IpvWVaK_3std3sys7process4unix4unixNtNtB7_6common7Command11posix_spawnNtB2_21PosixSpawnFileActionsNtNtNtCs5FIOKSViJ8s_4core3ops4drop4Drop4drop, symObjAddr: 0x3E474, symBinAddr: 0x10003B658, symSize: 0x8 }
  - { offset: 0x73FB3, size: 0x8, addend: 0x0, symName: __RNvXs_NvMNtNtNtNtCsfB93IpvWVaK_3std3sys7process4unix4unixNtNtB9_6common7Command11posix_spawnNtB4_14PosixSpawnattrNtNtNtCs5FIOKSViJ8s_4core3ops4drop4Drop4drop, symObjAddr: 0x48AD4, symBinAddr: 0x100045C58, symSize: 0x8 }
  - { offset: 0x74021, size: 0x8, addend: 0x0, symName: __RNvXNvMNtNtNtNtCsfB93IpvWVaK_3std3sys7process4unix4unixNtNtB7_6common7Command7do_execNtB2_5ResetNtNtNtCs5FIOKSViJ8s_4core3ops4drop4Drop4drop, symObjAddr: 0x3E47C, symBinAddr: 0x10003B660, symSize: 0x24 }
  - { offset: 0x740A0, size: 0x8, addend: 0x0, symName: __RNvMs_NtNtNtNtCsfB93IpvWVaK_3std3sys7process4unix4unixNtB4_7Process4wait, symObjAddr: 0x29224, symBinAddr: 0x100027118, symSize: 0xE0 }
  - { offset: 0x7420B, size: 0x8, addend: 0x0, symName: __RNvXs0_NtNtNtNtCsfB93IpvWVaK_3std3sys7process4unix4unixNtB5_10ExitStatusNtNtCs5FIOKSViJ8s_4core3fmt5Debug3fmt, symObjAddr: 0x3F774, symBinAddr: 0x10003C8F8, symSize: 0x58 }
  - { offset: 0x74240, size: 0x8, addend: 0x0, symName: __RNvXs3_NtNtNtNtCsfB93IpvWVaK_3std3sys7process4unix4unixNtB5_10ExitStatusNtNtCs5FIOKSViJ8s_4core3fmt7Display3fmt, symObjAddr: 0x42B04, symBinAddr: 0x10003FC88, symSize: 0x194 }
  - { offset: 0x743DD, size: 0x8, addend: 0x0, symName: __RNvXs5_NtNtNtNtCsfB93IpvWVaK_3std3sys7process4unix4unixNtB5_15ExitStatusErrorNtNtCs5FIOKSViJ8s_4core3fmt5Debug3fmt, symObjAddr: 0x443F0, symBinAddr: 0x100041574, symSize: 0x58 }
  - { offset: 0x7441D, size: 0x8, addend: 0x0, symName: __RNvMs_NtNtNtCsfB93IpvWVaK_3std3sys7process3envNtB4_10CommandEnv3set, symObjAddr: 0x27CFC, symBinAddr: 0x100025BF0, symSize: 0x164 }
  - { offset: 0x748FF, size: 0x8, addend: 0x0, symName: __RNvMs_NtNtNtCsfB93IpvWVaK_3std3sys7process3envNtB4_10CommandEnv6remove, symObjAddr: 0x27E60, symBinAddr: 0x100025D54, symSize: 0x398 }
  - { offset: 0x754F6, size: 0x8, addend: 0x0, symName: __RNvXNtNtNtCsfB93IpvWVaK_3std3sys7process3envNtB2_10CommandEnvNtNtCs5FIOKSViJ8s_4core3fmt5Debug3fmt, symObjAddr: 0x3DD6C, symBinAddr: 0x10003AF50, symSize: 0x84 }
  - { offset: 0x75527, size: 0x8, addend: 0x0, symName: __RNvXs0_NtNtNtCsfB93IpvWVaK_3std3sys7process3envNtB5_11CommandEnvsNtNtNtNtCs5FIOKSViJ8s_4core4iter6traits8iterator8Iterator4next, symObjAddr: 0x3F578, symBinAddr: 0x10003C72C, symSize: 0x50 }
  - { offset: 0x75603, size: 0x8, addend: 0x0, symName: __RNvMNtNtNtCsfB93IpvWVaK_3std3sys2fd4unixNtB2_8FileDesc11read_buf_at, symObjAddr: 0x17F68, symBinAddr: 0x100016F28, symSize: 0x7C }
  - { offset: 0x75786, size: 0x8, addend: 0x0, symName: __RNvMNtNtNtCsfB93IpvWVaK_3std3sys2fd4unixNtB2_8FileDesc11read_to_end, symObjAddr: 0x17FE4, symBinAddr: 0x100016FA4, symSize: 0x1F0 }
  - { offset: 0x75B6B, size: 0x8, addend: 0x0, symName: __RNvMNtNtNtCsfB93IpvWVaK_3std3sys2fd4unixNtB2_8FileDesc11set_cloexec, symObjAddr: 0x181D4, symBinAddr: 0x100017194, symSize: 0x40 }
  - { offset: 0x75C15, size: 0x8, addend: 0x0, symName: __RNvMNtNtNtCsfB93IpvWVaK_3std3sys2fd4unixNtB2_8FileDesc13read_vectored, symObjAddr: 0x18214, symBinAddr: 0x1000171D4, symSize: 0x54 }
  - { offset: 0x75CFB, size: 0x8, addend: 0x0, symName: __RNvMNtNtNtCsfB93IpvWVaK_3std3sys2fd4unixNtB2_8FileDesc14write_vectored, symObjAddr: 0x18268, symBinAddr: 0x100017228, symSize: 0x54 }
  - { offset: 0x75DE4, size: 0x8, addend: 0x0, symName: __RNvMNtNtNtCsfB93IpvWVaK_3std3sys2fd4unixNtB2_8FileDesc15set_nonblocking, symObjAddr: 0x182BC, symBinAddr: 0x10001727C, symSize: 0x88 }
  - { offset: 0x75EC3, size: 0x8, addend: 0x0, symName: __RNvMNtNtNtCsfB93IpvWVaK_3std3sys2fd4unixNtB2_8FileDesc16read_vectored_at, symObjAddr: 0x18344, symBinAddr: 0x100017304, symSize: 0x110 }
  - { offset: 0x76087, size: 0x8, addend: 0x0, symName: __RNvMNtNtNtCsfB93IpvWVaK_3std3sys2fd4unixNtB2_8FileDesc17write_vectored_at, symObjAddr: 0x18454, symBinAddr: 0x100017414, symSize: 0x110 }
  - { offset: 0x7623E, size: 0x8, addend: 0x0, symName: __RNvMNtNtNtCsfB93IpvWVaK_3std3sys2fd4unixNtB2_8FileDesc4read, symObjAddr: 0x18564, symBinAddr: 0x100017524, symSize: 0x54 }
  - { offset: 0x76324, size: 0x8, addend: 0x0, symName: __RNvMNtNtNtCsfB93IpvWVaK_3std3sys2fd4unixNtB2_8FileDesc5write, symObjAddr: 0x185B8, symBinAddr: 0x100017578, symSize: 0x54 }
  - { offset: 0x7640D, size: 0x8, addend: 0x0, symName: __RNvMNtNtNtCsfB93IpvWVaK_3std3sys2fd4unixNtB2_8FileDesc7read_at, symObjAddr: 0x1860C, symBinAddr: 0x1000175CC, symSize: 0x54 }
  - { offset: 0x764F3, size: 0x8, addend: 0x0, symName: __RNvMNtNtNtCsfB93IpvWVaK_3std3sys2fd4unixNtB2_8FileDesc8read_buf, symObjAddr: 0x18660, symBinAddr: 0x100017620, symSize: 0x78 }
  - { offset: 0x76675, size: 0x8, addend: 0x0, symName: __RNvMNtNtNtCsfB93IpvWVaK_3std3sys2fd4unixNtB2_8FileDesc8write_at, symObjAddr: 0x186D8, symBinAddr: 0x100017698, symSize: 0x54 }
  - { offset: 0x7696F, size: 0x8, addend: 0x0, symName: __RNvXs7_NtNtNtCsfB93IpvWVaK_3std3sys2fd4unixNtB5_8FileDescNtNtCs5FIOKSViJ8s_4core3fmt5Debug3fmt, symObjAddr: 0x45A54, symBinAddr: 0x100042BD8, symSize: 0x40 }
  - { offset: 0x76996, size: 0x8, addend: 0x0, symName: __RNvXs3_NtNtNtCsfB93IpvWVaK_3std3sys2fd4unixNtB5_8FileDescNtNtNtNtBb_2os2fd5owned4AsFd5as_fd, symObjAddr: 0x429A4, symBinAddr: 0x10003FB28, symSize: 0x8 }
  - { offset: 0x769AD, size: 0x8, addend: 0x0, symName: __RNvXs3_NtNtNtCsfB93IpvWVaK_3std3sys2fd4unixNtB5_8FileDescNtNtNtNtBb_2os2fd5owned4AsFd5as_fd, symObjAddr: 0x429A4, symBinAddr: 0x10003FB28, symSize: 0x8 }
  - { offset: 0x769C2, size: 0x8, addend: 0x0, symName: __RNvXs3_NtNtNtCsfB93IpvWVaK_3std3sys2fd4unixNtB5_8FileDescNtNtNtNtBb_2os2fd5owned4AsFd5as_fd, symObjAddr: 0x429A4, symBinAddr: 0x10003FB28, symSize: 0x8 }
  - { offset: 0x76A0E, size: 0x8, addend: 0x0, symName: __RNvXs_NtNtNtCsfB93IpvWVaK_3std3sys5stdio4unixNtB4_5StdinNtNtBa_2io4Read13read_vectored, symObjAddr: 0x480CC, symBinAddr: 0x100045250, symSize: 0x54 }
  - { offset: 0x76ADF, size: 0x8, addend: 0x0, symName: __RNvXs_NtNtNtCsfB93IpvWVaK_3std3sys5stdio4unixNtB4_5StdinNtNtBa_2io4Read4read, symObjAddr: 0x48120, symBinAddr: 0x1000452A4, symSize: 0x54 }
  - { offset: 0x76BB0, size: 0x8, addend: 0x0, symName: __RNvXs_NtNtNtCsfB93IpvWVaK_3std3sys5stdio4unixNtB4_5StdinNtNtBa_2io4Read8read_buf, symObjAddr: 0x48174, symBinAddr: 0x1000452F8, symSize: 0x78 }
  - { offset: 0x76D3D, size: 0x8, addend: 0x0, symName: __RNvXs3_NtNtNtCsfB93IpvWVaK_3std3sys5stdio4unixNtB5_6StderrNtNtBb_2io5Write14write_vectored, symObjAddr: 0x429AC, symBinAddr: 0x10003FB30, symSize: 0x54 }
  - { offset: 0x76E10, size: 0x8, addend: 0x0, symName: __RNvXs3_NtNtNtCsfB93IpvWVaK_3std3sys5stdio4unixNtB5_6StderrNtNtBb_2io5Write17is_write_vectored, symObjAddr: 0x42A00, symBinAddr: 0x10003FB84, symSize: 0x8 }
  - { offset: 0x76E29, size: 0x8, addend: 0x0, symName: __RNvXs3_NtNtNtCsfB93IpvWVaK_3std3sys5stdio4unixNtB5_6StderrNtNtBb_2io5Write5flush, symObjAddr: 0x42A08, symBinAddr: 0x10003FB8C, symSize: 0x8 }
  - { offset: 0x76E42, size: 0x8, addend: 0x0, symName: __RNvXs3_NtNtNtCsfB93IpvWVaK_3std3sys5stdio4unixNtB5_6StderrNtNtBb_2io5Write5write, symObjAddr: 0x42A10, symBinAddr: 0x10003FB94, symSize: 0x54 }
  - { offset: 0x76F28, size: 0x8, addend: 0x0, symName: __RNvXs1_NtNtNtCsfB93IpvWVaK_3std3sys5stdio4unixNtB5_6StdoutNtNtBb_2io5Write14write_vectored, symObjAddr: 0x40288, symBinAddr: 0x10003D40C, symSize: 0x54 }
  - { offset: 0x76FFB, size: 0x8, addend: 0x0, symName: __RNvXs1_NtNtNtCsfB93IpvWVaK_3std3sys5stdio4unixNtB5_6StdoutNtNtBb_2io5Write5write, symObjAddr: 0x402DC, symBinAddr: 0x10003D460, symSize: 0x54 }
  - { offset: 0x77129, size: 0x8, addend: 0x0, symName: __RNvNtNtNtNtCsfB93IpvWVaK_3std3sys2io5error4unix17decode_error_kind, symObjAddr: 0x3A0C4, symBinAddr: 0x100037398, symSize: 0x150 }
  - { offset: 0x7729A, size: 0x8, addend: 0x0, symName: __RNvMsi_NtNtNtCsfB93IpvWVaK_3std3sys2fs4unixNtB5_4File13read_vectored, symObjAddr: 0x2D824, symBinAddr: 0x10002B718, symSize: 0x54 }
  - { offset: 0x77396, size: 0x8, addend: 0x0, symName: __RNvMsi_NtNtNtCsfB93IpvWVaK_3std3sys2fs4unixNtB5_4File4read, symObjAddr: 0x2D878, symBinAddr: 0x10002B76C, symSize: 0x54 }
  - { offset: 0x77492, size: 0x8, addend: 0x0, symName: __RNvMsi_NtNtNtCsfB93IpvWVaK_3std3sys2fs4unixNtB5_4File6open_c, symObjAddr: 0x2D8CC, symBinAddr: 0x10002B7C0, symSize: 0x1E4 }
  - { offset: 0x7756D, size: 0x8, addend: 0x0, symName: __RNvMsi_NtNtNtCsfB93IpvWVaK_3std3sys2fs4unixNtB5_4File8read_buf, symObjAddr: 0x2DAB0, symBinAddr: 0x10002B9A4, symSize: 0x78 }
  - { offset: 0x778BC, size: 0x8, addend: 0x0, symName: __RNvMNtNtNtNtCsfB93IpvWVaK_3std3sys2fs4unix3dirNtB2_3Dir4open, symObjAddr: 0x189BC, symBinAddr: 0x100017834, symSize: 0xAC }
  - { offset: 0x7793C, size: 0x8, addend: 0x0, symName: __RNvMNtNtNtNtCsfB93IpvWVaK_3std3sys2fs4unix3dirNtB2_3Dir9open_file, symObjAddr: 0x18A68, symBinAddr: 0x1000178E0, symSize: 0xB8 }
  - { offset: 0x779D8, size: 0x8, addend: 0x0, symName: __RNCNvMNtNtNtNtCsfB93IpvWVaK_3std3sys2fs4unix3dirNtB4_3Dir4open0Bc_, symObjAddr: 0x145DC, symBinAddr: 0x10001382C, symSize: 0x1F4 }
  - { offset: 0x77AD2, size: 0x8, addend: 0x0, symName: __RNCNvMNtNtNtNtCsfB93IpvWVaK_3std3sys2fs4unix3dirNtB4_3Dir9open_file0Bc_, symObjAddr: 0x147D0, symBinAddr: 0x100013A20, symSize: 0x200 }
  - { offset: 0x77BBC, size: 0x8, addend: 0x0, symName: __RNvXs2_NtNtNtNtCsfB93IpvWVaK_3std3sys2fs4unix3dirNtNtBd_2fs3DirNtNtNtNtBd_2os2fd3raw9FromRawFd11from_raw_fd, symObjAddr: 0x419C0, symBinAddr: 0x10003EB44, symSize: 0x2C }
  - { offset: 0x77BE5, size: 0x8, addend: 0x0, symName: __RNvXs2_NtNtNtNtCsfB93IpvWVaK_3std3sys2fs4unix3dirNtNtBd_2fs3DirNtNtNtNtBd_2os2fd3raw9FromRawFd11from_raw_fd, symObjAddr: 0x419C0, symBinAddr: 0x10003EB44, symSize: 0x2C }
  - { offset: 0x77C11, size: 0x8, addend: 0x0, symName: __RNvXs_NtNtNtNtCsfB93IpvWVaK_3std3sys2fs4unix3dirNtB4_3DirNtNtCs5FIOKSViJ8s_4core3fmt5Debug3fmt, symObjAddr: 0x48880, symBinAddr: 0x100045A04, symSize: 0x3C }
  - { offset: 0x77C52, size: 0x8, addend: 0x0, symName: __RNCNvMsi_NtNtNtCsfB93IpvWVaK_3std3sys2fs4unixNtB7_4File4open0Bd_, symObjAddr: 0x14B10, symBinAddr: 0x100013D60, symSize: 0xC }
  - { offset: 0x77CE4, size: 0x8, addend: 0x0, symName: __RNCNvMsk_NtNtNtCsfB93IpvWVaK_3std3sys2fs4unixNtB7_10DirBuilder5mkdir0Bd_, symObjAddr: 0x14B1C, symBinAddr: 0x100013D6C, symSize: 0x44 }
  - { offset: 0x77E65, size: 0x8, addend: 0x0, symName: __RNCNvNtNtNtCsfB93IpvWVaK_3std3sys2fs4unix4copy0B9_, symObjAddr: 0x155D8, symBinAddr: 0x100014640, symSize: 0x64 }
  - { offset: 0x77F5A, size: 0x8, addend: 0x0, symName: __RNvXNvNtNtNtCsfB93IpvWVaK_3std3sys2fs4unix4copyNtB2_10FreeOnDropNtNtNtCs5FIOKSViJ8s_4core3ops4drop4Drop4drop, symObjAddr: 0x3E974, symBinAddr: 0x10003BB28, symSize: 0x8 }
  - { offset: 0x77F74, size: 0x8, addend: 0x0, symName: __RNCNvNtNtNtCsfB93IpvWVaK_3std3sys2fs4unix5chown0B9_, symObjAddr: 0x1563C, symBinAddr: 0x1000146A4, symSize: 0x48 }
  - { offset: 0x78006, size: 0x8, addend: 0x0, symName: __RNCNvNtNtNtCsfB93IpvWVaK_3std3sys2fs4unix6chroot0B9_, symObjAddr: 0x15684, symBinAddr: 0x1000146EC, symSize: 0x38 }
  - { offset: 0x78098, size: 0x8, addend: 0x0, symName: __RNCNvNtNtNtCsfB93IpvWVaK_3std3sys2fs4unix6lchown0B9_, symObjAddr: 0x156BC, symBinAddr: 0x100014724, symSize: 0x48 }
  - { offset: 0x7812A, size: 0x8, addend: 0x0, symName: __RNCNvNtNtNtCsfB93IpvWVaK_3std3sys2fs4unix6mkfifo0B9_, symObjAddr: 0x15704, symBinAddr: 0x10001476C, symSize: 0x78 }
  - { offset: 0x783E1, size: 0x8, addend: 0x0, symName: __RNvNtNtNtNtCsfB93IpvWVaK_3std3sys2fs4unix15remove_dir_impl24remove_dir_all_recursive, symObjAddr: 0x39D10, symBinAddr: 0x100036FE4, symSize: 0x3B4 }
  - { offset: 0x78C15, size: 0x8, addend: 0x0, symName: __RNvNtNtNtCsfB93IpvWVaK_3std3sys2fs4unix12canonicalize, symObjAddr: 0x38650, symBinAddr: 0x100035930, symSize: 0xA8 }
  - { offset: 0x78DE6, size: 0x8, addend: 0x0, symName: __RNvNtNtNtCsfB93IpvWVaK_3std3sys2fs4unix13debug_path_fd, symObjAddr: 0x386F8, symBinAddr: 0x1000359D8, symSize: 0x220 }
  - { offset: 0x79306, size: 0x8, addend: 0x0, symName: __RNvNtNtNtCsfB93IpvWVaK_3std3sys2fs4unix5chown, symObjAddr: 0x38918, symBinAddr: 0x100035BF8, symSize: 0xC8 }
  - { offset: 0x79410, size: 0x8, addend: 0x0, symName: __RNvNtNtNtCsfB93IpvWVaK_3std3sys2fs4unix6chroot, symObjAddr: 0x389E0, symBinAddr: 0x100035CC0, symSize: 0xC0 }
  - { offset: 0x7951A, size: 0x8, addend: 0x0, symName: __RNvNtNtNtCsfB93IpvWVaK_3std3sys2fs4unix6fchown, symObjAddr: 0x38AA0, symBinAddr: 0x100035D80, symSize: 0x34 }
  - { offset: 0x795A1, size: 0x8, addend: 0x0, symName: __RNvNtNtNtCsfB93IpvWVaK_3std3sys2fs4unix6lchown, symObjAddr: 0x38AD4, symBinAddr: 0x100035DB4, symSize: 0xC8 }
  - { offset: 0x796AB, size: 0x8, addend: 0x0, symName: __RNvNtNtNtCsfB93IpvWVaK_3std3sys2fs4unix6mkfifo, symObjAddr: 0x38B9C, symBinAddr: 0x100035E7C, symSize: 0xF0 }
  - { offset: 0x797E4, size: 0x8, addend: 0x0, symName: __RNvNtNtNtCsfB93IpvWVaK_3std3sys2fs4unix8readlink, symObjAddr: 0x38C8C, symBinAddr: 0x100035F6C, symSize: 0x18C }
  - { offset: 0x79C44, size: 0x8, addend: 0x0, symName: __RNvXNtNtNtNtCsfB93IpvWVaK_3std3sys2fs4unix3cfmNtB2_18CachedFileMetadataNtNtBa_2io4Read11read_to_end, symObjAddr: 0x3E0A0, symBinAddr: 0x10003B284, symSize: 0xE0 }
  - { offset: 0x79DD4, size: 0x8, addend: 0x0, symName: __RNvXNtNtNtNtCsfB93IpvWVaK_3std3sys2fs4unix3cfmNtB2_18CachedFileMetadataNtNtBa_2io4Read13read_vectored, symObjAddr: 0x3E180, symBinAddr: 0x10003B364, symSize: 0x54 }
  - { offset: 0x79F1A, size: 0x8, addend: 0x0, symName: __RNvXNtNtNtNtCsfB93IpvWVaK_3std3sys2fs4unix3cfmNtB2_18CachedFileMetadataNtNtBa_2io4Read14read_to_string, symObjAddr: 0x3E1D4, symBinAddr: 0x10003B3B8, symSize: 0x28 }
  - { offset: 0x79F4B, size: 0x8, addend: 0x0, symName: __RNvXNtNtNtNtCsfB93IpvWVaK_3std3sys2fs4unix3cfmNtB2_18CachedFileMetadataNtNtBa_2io4Read4read, symObjAddr: 0x3E1FC, symBinAddr: 0x10003B3E0, symSize: 0x54 }
  - { offset: 0x7A091, size: 0x8, addend: 0x0, symName: __RNvXNtNtNtNtCsfB93IpvWVaK_3std3sys2fs4unix3cfmNtB2_18CachedFileMetadataNtNtBa_2io4Read8read_buf, symObjAddr: 0x3E250, symBinAddr: 0x10003B434, symSize: 0x78 }
  - { offset: 0x7A279, size: 0x8, addend: 0x0, symName: __RNvXs_NtNtNtNtCsfB93IpvWVaK_3std3sys2fs4unix3cfmNtB4_18CachedFileMetadataNtNtBc_2io5Write14write_vectored, symObjAddr: 0x487D8, symBinAddr: 0x10004595C, symSize: 0x54 }
  - { offset: 0x7A397, size: 0x8, addend: 0x0, symName: __RNvXs_NtNtNtNtCsfB93IpvWVaK_3std3sys2fs4unix3cfmNtB4_18CachedFileMetadataNtNtBc_2io5Write5write, symObjAddr: 0x4882C, symBinAddr: 0x1000459B0, symSize: 0x54 }
  - { offset: 0x7A4C9, size: 0x8, addend: 0x0, symName: __RNvXs9_NtNtNtCsfB93IpvWVaK_3std3sys2fs4unixNtB5_15FilePermissionsNtNtCs5FIOKSViJ8s_4core3fmt5Debug3fmt, symObjAddr: 0x463F0, symBinAddr: 0x100043574, symSize: 0x6C }
  - { offset: 0x7A4F0, size: 0x8, addend: 0x0, symName: __RNvXsu_NtNtNtCsfB93IpvWVaK_3std3sys2fs4unixNtB5_4FileNtNtCs5FIOKSViJ8s_4core3fmt5Debug3fmt, symObjAddr: 0x4CE74, symBinAddr: 0x100049FF8, symSize: 0x3C }
  - { offset: 0x7A54C, size: 0x8, addend: 0x0, symName: __RNvXs7_NtNtNtCsfB93IpvWVaK_3std3sys2fs4unixNtB5_8FileTypeNtNtCs5FIOKSViJ8s_4core3fmt5Debug3fmt, symObjAddr: 0x45A94, symBinAddr: 0x100042C18, symSize: 0x6C }
  - { offset: 0x7A57A, size: 0x8, addend: 0x0, symName: __RNvXsb_NtNtNtCsfB93IpvWVaK_3std3sys2fs4unixNtB5_7ReadDirNtNtNtNtCs5FIOKSViJ8s_4core4iter6traits8iterator8Iterator4next, symObjAddr: 0x49360, symBinAddr: 0x1000464E4, symSize: 0x138 }
  - { offset: 0x7A7FF, size: 0x8, addend: 0x0, symName: __RNvXsa_NtNtNtCsfB93IpvWVaK_3std3sys2fs4unixNtB5_7ReadDirNtNtCs5FIOKSViJ8s_4core3fmt5Debug3fmt, symObjAddr: 0x4920C, symBinAddr: 0x100046390, symSize: 0x2C }
  - { offset: 0x7A9A8, size: 0x8, addend: 0x0, symName: __RNvXsc_NtNtNtCsfB93IpvWVaK_3std3sys2fs4unixNtB5_9DirStreamNtNtNtCs5FIOKSViJ8s_4core3ops4drop4Drop4drop, symObjAddr: 0x49694, symBinAddr: 0x100046818, symSize: 0xB4 }
  - { offset: 0x7AA61, size: 0x8, addend: 0x0, symName: __RNvXsh_NtNtNtCsfB93IpvWVaK_3std3sys2fs4unixNtB5_11OpenOptionsNtNtCs5FIOKSViJ8s_4core3fmt5Debug3fmt, symObjAddr: 0x4AB04, symBinAddr: 0x100047C88, symSize: 0x120 }
  - { offset: 0x7AA82, size: 0x8, addend: 0x0, symName: __RNvXsl_NtNtNtCsfB93IpvWVaK_3std3sys2fs4unixNtB5_10DirBuilderNtNtCs5FIOKSViJ8s_4core3fmt5Debug3fmt, symObjAddr: 0x4B5A4, symBinAddr: 0x100048728, symSize: 0x6C }
  - { offset: 0x7AAA3, size: 0x8, addend: 0x0, symName: __RNvXsv_NtNtNtCsfB93IpvWVaK_3std3sys2fs4unixNtB5_4ModeNtNtCs5FIOKSViJ8s_4core3fmt5Debug3fmt, symObjAddr: 0x4CEB0, symBinAddr: 0x10004A034, symSize: 0x2F0 }
  - { offset: 0x7AB42, size: 0x8, addend: 0x0, symName: __RNCNCNvNtNtCsfB93IpvWVaK_3std3sys2fs6rename00B9_, symObjAddr: 0x13D1C, symBinAddr: 0x100012F6C, symSize: 0x38 }
  - { offset: 0x7ABE3, size: 0x8, addend: 0x0, symName: __RNCNvNtNtCsfB93IpvWVaK_3std3sys2fs6rename0B7_, symObjAddr: 0x15038, symBinAddr: 0x100014154, symSize: 0xBC }
  - { offset: 0x7AD10, size: 0x8, addend: 0x0, symName: __RNCNCNvNtNtCsfB93IpvWVaK_3std3sys2fs7symlink00B9_, symObjAddr: 0x13D54, symBinAddr: 0x100012FA4, symSize: 0x38 }
  - { offset: 0x7ADB1, size: 0x8, addend: 0x0, symName: __RNCNvNtNtCsfB93IpvWVaK_3std3sys2fs7symlink0B7_, symObjAddr: 0x150F4, symBinAddr: 0x100014210, symSize: 0xBC }
  - { offset: 0x7AEDE, size: 0x8, addend: 0x0, symName: __RNCNCNvNtNtCsfB93IpvWVaK_3std3sys2fs9hard_link00B9_, symObjAddr: 0x13D8C, symBinAddr: 0x100012FDC, symSize: 0x48 }
  - { offset: 0x7AF7F, size: 0x8, addend: 0x0, symName: __RNCNvNtNtCsfB93IpvWVaK_3std3sys2fs9hard_link0B7_, symObjAddr: 0x151B0, symBinAddr: 0x1000142CC, symSize: 0xC8 }
  - { offset: 0x7B0A7, size: 0x8, addend: 0x0, symName: __RNCNvNtNtCsfB93IpvWVaK_3std3sys2fs15set_permissions0B7_, symObjAddr: 0x14E60, symBinAddr: 0x100013F7C, symSize: 0x9C }
  - { offset: 0x7B16A, size: 0x8, addend: 0x0, symName: __RNCNvNtNtCsfB93IpvWVaK_3std3sys2fs18set_times_nofollow0B7_, symObjAddr: 0x14EFC, symBinAddr: 0x100014018, symSize: 0x13C }
  - { offset: 0x7B2E3, size: 0x8, addend: 0x0, symName: __RNCNvNtNtCsfB93IpvWVaK_3std3sys2fs9set_times0B7_, symObjAddr: 0x15278, symBinAddr: 0x100014394, symSize: 0x13C }
  - { offset: 0x7B472, size: 0x8, addend: 0x0, symName: __RNvNtNtCsfB93IpvWVaK_3std3sys2fs10remove_dir, symObjAddr: 0x3291C, symBinAddr: 0x100030724, symSize: 0xC0 }
  - { offset: 0x7B58F, size: 0x8, addend: 0x0, symName: __RNvNtNtCsfB93IpvWVaK_3std3sys2fs11remove_file, symObjAddr: 0x329DC, symBinAddr: 0x1000307E4, symSize: 0xC0 }
  - { offset: 0x7B6AC, size: 0x8, addend: 0x0, symName: __RNvNtNtCsfB93IpvWVaK_3std3sys2fs12canonicalize, symObjAddr: 0x32A9C, symBinAddr: 0x1000308A4, symSize: 0xB0 }
  - { offset: 0x7B748, size: 0x8, addend: 0x0, symName: __RNvNtNtCsfB93IpvWVaK_3std3sys2fs14remove_dir_all, symObjAddr: 0x32B4C, symBinAddr: 0x100030954, symSize: 0x118 }
  - { offset: 0x7B8CA, size: 0x8, addend: 0x0, symName: __RNvNtNtCsfB93IpvWVaK_3std3sys2fs15set_permissions, symObjAddr: 0x32C64, symBinAddr: 0x100030A6C, symSize: 0x114 }
  - { offset: 0x7B9F3, size: 0x8, addend: 0x0, symName: __RNvNtNtCsfB93IpvWVaK_3std3sys2fs16symlink_metadata, symObjAddr: 0x32D78, symBinAddr: 0x100030B80, symSize: 0x128 }
  - { offset: 0x7BB6E, size: 0x8, addend: 0x0, symName: __RNvNtNtCsfB93IpvWVaK_3std3sys2fs18set_times_nofollow, symObjAddr: 0x32EA0, symBinAddr: 0x100030CA8, symSize: 0x1B4 }
  - { offset: 0x7BD4E, size: 0x8, addend: 0x0, symName: __RNvNtNtCsfB93IpvWVaK_3std3sys2fs24set_permissions_nofollow, symObjAddr: 0x33054, symBinAddr: 0x100030E5C, symSize: 0x190 }
  - { offset: 0x7BFC7, size: 0x8, addend: 0x0, symName: __RNvNtNtCsfB93IpvWVaK_3std3sys2fs4copy, symObjAddr: 0x331E4, symBinAddr: 0x100030FEC, symSize: 0x4EC }
  - { offset: 0x7CA23, size: 0x8, addend: 0x0, symName: __RNvXs_NtNtNtCsfB93IpvWVaK_3std3sys2fs6commonNtB4_3DirNtNtCs5FIOKSViJ8s_4core3fmt5Debug3fmt, symObjAddr: 0x47F70, symBinAddr: 0x1000450F4, symSize: 0x64 }
  - { offset: 0x7CA40, size: 0x8, addend: 0x0, symName: __RNvNtNtCsfB93IpvWVaK_3std3sys2fs6exists, symObjAddr: 0x336D0, symBinAddr: 0x1000314D8, symSize: 0x1C0 }
  - { offset: 0x7CC25, size: 0x8, addend: 0x0, symName: __RNvNtNtCsfB93IpvWVaK_3std3sys2fs6rename, symObjAddr: 0x33890, symBinAddr: 0x100031698, symSize: 0x124 }
  - { offset: 0x7CDAC, size: 0x8, addend: 0x0, symName: __RNvNtNtCsfB93IpvWVaK_3std3sys2fs7symlink, symObjAddr: 0x339B4, symBinAddr: 0x1000317BC, symSize: 0x124 }
  - { offset: 0x7CF32, size: 0x8, addend: 0x0, symName: __RNvNtNtCsfB93IpvWVaK_3std3sys2fs8metadata, symObjAddr: 0x33AD8, symBinAddr: 0x1000318E0, symSize: 0x128 }
  - { offset: 0x7D0AD, size: 0x8, addend: 0x0, symName: __RNvNtNtCsfB93IpvWVaK_3std3sys2fs8read_dir, symObjAddr: 0x33C00, symBinAddr: 0x100031A08, symSize: 0x180 }
  - { offset: 0x7D354, size: 0x8, addend: 0x0, symName: __RNvNtNtCsfB93IpvWVaK_3std3sys2fs9hard_link, symObjAddr: 0x33D80, symBinAddr: 0x100031B88, symSize: 0x130 }
  - { offset: 0x7D4DB, size: 0x8, addend: 0x0, symName: __RNvNtNtCsfB93IpvWVaK_3std3sys2fs9read_link, symObjAddr: 0x33EB0, symBinAddr: 0x100031CB8, symSize: 0xB0 }
  - { offset: 0x7D577, size: 0x8, addend: 0x0, symName: __RNvNtNtCsfB93IpvWVaK_3std3sys2fs9set_times, symObjAddr: 0x33F60, symBinAddr: 0x100031D68, symSize: 0x1B4 }
  - { offset: 0x7D75D, size: 0x8, addend: 0x0, symName: __RINvNtNtCsfB93IpvWVaK_3std3sys9backtrace26___rust_end_short_backtraceNCINvNtB6_9panicking11begin_panicReE0zEB6_, symObjAddr: 0xAF84, symBinAddr: 0x10000A878, symSize: 0xC }
  - { offset: 0x7D777, size: 0x8, addend: 0x0, symName: __RINvNtNtCsfB93IpvWVaK_3std3sys9backtrace26___rust_end_short_backtraceNCNvNtB6_5alloc8rust_oom0zEB6_, symObjAddr: 0xAF90, symBinAddr: 0x10008BE0C, symSize: 0xC }
  - { offset: 0x7D791, size: 0x8, addend: 0x0, symName: __RINvNtNtCsfB93IpvWVaK_3std3sys9backtrace26___rust_end_short_backtraceNCNvNtB6_9panicking13panic_handler0zEB6_, symObjAddr: 0xAF9C, symBinAddr: 0x10000A884, symSize: 0xC }
  - { offset: 0x7D7D3, size: 0x8, addend: 0x0, symName: __RNCNCNvNtNtCsfB93IpvWVaK_3std3sys9backtrace10__print_fmts_00B9_, symObjAddr: 0x13DD4, symBinAddr: 0x100013024, symSize: 0x244 }
  - { offset: 0x7D9E9, size: 0x8, addend: 0x0, symName: __RNCNvNtNtCsfB93IpvWVaK_3std3sys9backtrace10__print_fmt0B7_, symObjAddr: 0x153B4, symBinAddr: 0x1000144D0, symSize: 0x24 }
  - { offset: 0x7DA11, size: 0x8, addend: 0x0, symName: __RNCNvNtNtCsfB93IpvWVaK_3std3sys9backtrace10__print_fmts_0B7_, symObjAddr: 0x153D8, symBinAddr: 0x1000144F4, symSize: 0x134 }
  - { offset: 0x7DB03, size: 0x8, addend: 0x0, symName: __RNvNtNtCsfB93IpvWVaK_3std3sys9backtrace15output_filename, symObjAddr: 0x3422C, symBinAddr: 0x100032034, symSize: 0xEC }
  - { offset: 0x7DC5A, size: 0x8, addend: 0x0, symName: __RNvNtNtCsfB93IpvWVaK_3std3sys9backtrace4lock, symObjAddr: 0x34318, symBinAddr: 0x100032120, symSize: 0x70 }
  - { offset: 0x7DDB7, size: 0x8, addend: 0x0, symName: __RNvXNvMNtNtCsfB93IpvWVaK_3std3sys9backtraceNtB5_13BacktraceLock5printNtB2_16DisplayBacktraceNtNtCs5FIOKSViJ8s_4core3fmt7Display3fmt, symObjAddr: 0x3E2D8, symBinAddr: 0x10003B4BC, symSize: 0x19C }
  - { offset: 0x7E13F, size: 0x8, addend: 0x0, symName: __RINvNtNtNtCsfB93IpvWVaK_3std3sys7helpers14small_c_string24run_with_cstr_allocatingINtNtCs5FIOKSViJ8s_4core6option6OptionNtNtNtB8_3ffi6os_str8OsStringEEB8_, symObjAddr: 0xB960, symBinAddr: 0x10008BE18, symSize: 0xB4 }
  - { offset: 0x7E35D, size: 0x8, addend: 0x0, symName: __RINvNtNtNtCsfB93IpvWVaK_3std3sys7helpers14small_c_string24run_with_cstr_allocatingNtNtB8_4path7PathBufEB8_, symObjAddr: 0xBA14, symBinAddr: 0x10008BECC, symSize: 0xBC }
  - { offset: 0x7E57B, size: 0x8, addend: 0x0, symName: __RINvNtNtNtCsfB93IpvWVaK_3std3sys7helpers14small_c_string24run_with_cstr_allocatingNtNtNtB6_2fs4unix4FileEB8_, symObjAddr: 0xBAD0, symBinAddr: 0x10008BF88, symSize: 0xD0 }
  - { offset: 0x7E799, size: 0x8, addend: 0x0, symName: __RINvNtNtNtCsfB93IpvWVaK_3std3sys7helpers14small_c_string24run_with_cstr_allocatingNtNtNtB6_2fs4unix8FileAttrEB8_, symObjAddr: 0xBBA0, symBinAddr: 0x10008C058, symSize: 0xC0 }
  - { offset: 0x7E9B7, size: 0x8, addend: 0x0, symName: __RINvNtNtNtCsfB93IpvWVaK_3std3sys7helpers14small_c_string24run_with_cstr_allocatingNtNtNtNtB6_2fs4unix3dir3DirEB8_, symObjAddr: 0xBC60, symBinAddr: 0x10008C118, symSize: 0xC0 }
  - { offset: 0x7EBD5, size: 0x8, addend: 0x0, symName: __RINvNtNtNtCsfB93IpvWVaK_3std3sys7helpers14small_c_string24run_with_cstr_allocatingNtNtNtNtB6_3net10connection6socket10LookupHostEB8_, symObjAddr: 0xBD20, symBinAddr: 0x10008C1D8, symSize: 0xBC }
  - { offset: 0x7EDF3, size: 0x8, addend: 0x0, symName: __RINvNtNtNtCsfB93IpvWVaK_3std3sys7helpers14small_c_string24run_with_cstr_allocatingONtNtCs4URNVEKf7z4_4libc4unix3DIREB8_, symObjAddr: 0xBDDC, symBinAddr: 0x10008C294, symSize: 0xA4 }
  - { offset: 0x7EF9F, size: 0x8, addend: 0x0, symName: __RINvNtNtNtCsfB93IpvWVaK_3std3sys7helpers14small_c_string24run_with_cstr_allocatinguEB8_, symObjAddr: 0xBE80, symBinAddr: 0x10008C338, symSize: 0xBC }
  - { offset: 0x7F57B, size: 0x8, addend: 0x0, symName: __RNvXs_NtNtNtCsfB93IpvWVaK_3std3sys7helpers4wstrNtB4_9WStrUnitsNtNtNtNtCs5FIOKSViJ8s_4core4iter6traits8iterator8Iterator4next, symObjAddr: 0x481EC, symBinAddr: 0x100045370, symSize: 0x18 }
  - { offset: 0x7F5D7, size: 0x8, addend: 0x0, symName: __RNCNCNvNtNtNtCsfB93IpvWVaK_3std3sys3env4unix6setenv00Bb_, symObjAddr: 0x141E8, symBinAddr: 0x100013438, symSize: 0xCC }
  - { offset: 0x7F666, size: 0x8, addend: 0x0, symName: __RNCNvNtNtNtCsfB93IpvWVaK_3std3sys3env4unix6setenv0B9_, symObjAddr: 0x158AC, symBinAddr: 0x100014914, symSize: 0x140 }
  - { offset: 0x7F759, size: 0x8, addend: 0x0, symName: __RNCNvNtNtNtCsfB93IpvWVaK_3std3sys3env4unix6getenv0B9_, symObjAddr: 0x1577C, symBinAddr: 0x1000147E4, symSize: 0x130 }
  - { offset: 0x7F935, size: 0x8, addend: 0x0, symName: __RNCNvNtNtNtCsfB93IpvWVaK_3std3sys3env4unix8unsetenv0B9_, symObjAddr: 0x159EC, symBinAddr: 0x100014A54, symSize: 0xC0 }
  - { offset: 0x7FA18, size: 0x8, addend: 0x0, symName: __RNvNtNtNtCsfB93IpvWVaK_3std3sys3env4unix13env_read_lock, symObjAddr: 0x38E18, symBinAddr: 0x1000360F8, symSize: 0x230 }
  - { offset: 0x800F3, size: 0x8, addend: 0x0, symName: __RNvNtNtNtCsfB93IpvWVaK_3std3sys3env4unix6setenv, symObjAddr: 0x39048, symBinAddr: 0x100036328, symSize: 0x9C }
  - { offset: 0x8016E, size: 0x8, addend: 0x0, symName: __RNvNtNtNtCsfB93IpvWVaK_3std3sys3env4unix8unsetenv, symObjAddr: 0x390E4, symBinAddr: 0x1000363C4, symSize: 0x140 }
  - { offset: 0x80280, size: 0x8, addend: 0x0, symName: __RNvXs2_NtNtNtCsfB93IpvWVaK_3std3sys3env6commonNtB5_3EnvNtNtNtNtCs5FIOKSViJ8s_4core4iter6traits8iterator8Iterator4next, symObjAddr: 0x41858, symBinAddr: 0x10003E9DC, symSize: 0x38 }
  - { offset: 0x802F3, size: 0x8, addend: 0x0, symName: __RNvXs2_NtNtNtCsfB93IpvWVaK_3std3sys3env6commonNtB5_3EnvNtNtNtNtCs5FIOKSViJ8s_4core4iter6traits8iterator8Iterator9size_hint, symObjAddr: 0x41890, symBinAddr: 0x10003EA14, symSize: 0x2C }
  - { offset: 0x80375, size: 0x8, addend: 0x0, symName: __RNvXs_NtNtNtCsfB93IpvWVaK_3std3sys3env6commonNtB4_3EnvNtNtCs5FIOKSViJ8s_4core3fmt5Debug3fmt, symObjAddr: 0x47FD4, symBinAddr: 0x100045158, symSize: 0x78 }
  - { offset: 0x803D9, size: 0x8, addend: 0x0, symName: __RNCNvNtNtNtCsfB93IpvWVaK_3std3sys11personality3gcc14find_eh_action0B9_, symObjAddr: 0x1550C, symBinAddr: 0x100014628, symSize: 0xC }
  - { offset: 0x803EC, size: 0x8, addend: 0x0, symName: __RNCNvNtNtNtCsfB93IpvWVaK_3std3sys11personality3gcc14find_eh_actions_0B9_, symObjAddr: 0x15518, symBinAddr: 0x100014634, symSize: 0xC }
  - { offset: 0x80434, size: 0x8, addend: 0x0, symName: _rust_eh_personality, symObjAddr: 0x4E594, symBinAddr: 0x10004B718, symSize: 0x378 }
  - { offset: 0x8087D, size: 0x8, addend: 0x0, symName: __RNvNtNtNtNtCsfB93IpvWVaK_3std3sys11personality5dwarf2eh19read_encoded_offset, symObjAddr: 0x39ACC, symBinAddr: 0x100036DA0, symSize: 0x148 }
  - { offset: 0x80A9A, size: 0x8, addend: 0x0, symName: __RNCNvNtNtNtCsfB93IpvWVaK_3std3sys5paths4unix5chdir0B9_, symObjAddr: 0x15AAC, symBinAddr: 0x100014B14, symSize: 0x28 }
  - { offset: 0x80B41, size: 0x8, addend: 0x0, symName: __RNvNtNtNtCsfB93IpvWVaK_3std3sys5paths4unix5chdir, symObjAddr: 0x396E0, symBinAddr: 0x1000369B4, symSize: 0xDC }
  - { offset: 0x80C3B, size: 0x8, addend: 0x0, symName: __RNvNvNtNtNtCsfB93IpvWVaK_3std3sys5paths4unix11split_paths12into_pathbuf, symObjAddr: 0x3CB08, symBinAddr: 0x100039D1C, symSize: 0x70 }
  - { offset: 0x80D8A, size: 0x8, addend: 0x0, symName: __RNvXNtNtNtCsfB93IpvWVaK_3std3sys5paths4unixNtB2_14JoinPathsErrorNtNtCs5FIOKSViJ8s_4core3fmt7Display3fmt, symObjAddr: 0x3DD28, symBinAddr: 0x10003AF0C, symSize: 0x44 }
  - { offset: 0x80ECB, size: 0x8, addend: 0x0, symName: __RNvMNtNtNtNtNtCsfB93IpvWVaK_3std3sys3net10connection6socket4unixNtB2_6Socket10take_error, symObjAddr: 0x19F28, symBinAddr: 0x1000189E0, symSize: 0x70 }
  - { offset: 0x80F8F, size: 0x8, addend: 0x0, symName: __RNvMNtNtNtNtNtCsfB93IpvWVaK_3std3sys3net10connection6socket4unixNtB2_6Socket20recv_from_with_flags, symObjAddr: 0x19F98, symBinAddr: 0x100018A50, symSize: 0x130 }
  - { offset: 0x810AE, size: 0x8, addend: 0x0, symName: __RNvMNtNtNtNtNtCsfB93IpvWVaK_3std3sys3net10connection6socket4unixNtB2_6Socket3new, symObjAddr: 0x1A0C8, symBinAddr: 0x100018B80, symSize: 0xF8 }
  - { offset: 0x812DF, size: 0x8, addend: 0x0, symName: __RNvMNtNtNtNtNtCsfB93IpvWVaK_3std3sys3net10connection6socket4unixNtB2_6Socket8new_pair, symObjAddr: 0x1A1C0, symBinAddr: 0x100018C78, symSize: 0x130 }
  - { offset: 0x81684, size: 0x8, addend: 0x0, symName: __RNvXs2_NtNtNtNtNtCsfB93IpvWVaK_3std3sys3net10connection6socket4unixNtB5_6SocketNtNtNtNtBf_2os2fd5owned4AsFd5as_fd, symObjAddr: 0x419F4, symBinAddr: 0x10003EB78, symSize: 0x8 }
  - { offset: 0x816A2, size: 0x8, addend: 0x0, symName: __RNvXs2_NtNtNtNtNtCsfB93IpvWVaK_3std3sys3net10connection6socket4unixNtB5_6SocketNtNtNtNtBf_2os2fd5owned4AsFd5as_fd, symObjAddr: 0x419F4, symBinAddr: 0x10003EB78, symSize: 0x8 }
  - { offset: 0x816B7, size: 0x8, addend: 0x0, symName: __RNvXs2_NtNtNtNtNtCsfB93IpvWVaK_3std3sys3net10connection6socket4unixNtB5_6SocketNtNtNtNtBf_2os2fd5owned4AsFd5as_fd, symObjAddr: 0x419F4, symBinAddr: 0x10003EB78, symSize: 0x8 }
  - { offset: 0x816CC, size: 0x8, addend: 0x0, symName: __RNvXs2_NtNtNtNtNtCsfB93IpvWVaK_3std3sys3net10connection6socket4unixNtB5_6SocketNtNtNtNtBf_2os2fd5owned4AsFd5as_fd, symObjAddr: 0x419F4, symBinAddr: 0x10003EB78, symSize: 0x8 }
  - { offset: 0x816E7, size: 0x8, addend: 0x0, symName: __RNvXs5_NtNtNtNtNtCsfB93IpvWVaK_3std3sys3net10connection6socket4unixNtB5_6SocketNtNtNtNtBf_2os2fd3raw9FromRawFd11from_raw_fd, symObjAddr: 0x44448, symBinAddr: 0x1000415CC, symSize: 0x2C }
  - { offset: 0x8171F, size: 0x8, addend: 0x0, symName: __RNvXs5_NtNtNtNtNtCsfB93IpvWVaK_3std3sys3net10connection6socket4unixNtB5_6SocketNtNtNtNtBf_2os2fd3raw9FromRawFd11from_raw_fd, symObjAddr: 0x44448, symBinAddr: 0x1000415CC, symSize: 0x2C }
  - { offset: 0x81760, size: 0x8, addend: 0x0, symName: __RNCNvNtNtNtNtCsfB93IpvWVaK_3std3sys3net10connection6socket11lookup_host0Bb_, symObjAddr: 0x15AD4, symBinAddr: 0x100014B3C, symSize: 0x168 }
  - { offset: 0x81D38, size: 0x8, addend: 0x0, symName: __RNvMs3_NtNtNtNtCsfB93IpvWVaK_3std3sys3net10connection6socketNtB5_9TcpStream11socket_addr, symObjAddr: 0x20104, symBinAddr: 0x10001E33C, symSize: 0x148 }
  - { offset: 0x81EBD, size: 0x8, addend: 0x0, symName: __RNvMs3_NtNtNtNtCsfB93IpvWVaK_3std3sys3net10connection6socketNtB5_9TcpStream9peer_addr, symObjAddr: 0x2024C, symBinAddr: 0x10001E484, symSize: 0x148 }
  - { offset: 0x821DF, size: 0x8, addend: 0x0, symName: __RNvMsa_NtNtNtNtCsfB93IpvWVaK_3std3sys3net10connection6socketNtB5_9UdpSocket7send_to, symObjAddr: 0x2A7F0, symBinAddr: 0x1000286E4, symSize: 0xB8 }
  - { offset: 0x821FD, size: 0x8, addend: 0x0, symName: __RNvMsa_NtNtNtNtCsfB93IpvWVaK_3std3sys3net10connection6socketNtB5_9UdpSocket7send_to, symObjAddr: 0x2A7F0, symBinAddr: 0x1000286E4, symSize: 0xB8 }
  - { offset: 0x823E8, size: 0x8, addend: 0x0, symName: __RNvNvMsa_NtNtNtNtCsfB93IpvWVaK_3std3sys3net10connection6socketNtB7_9UdpSocket4bind5inner, symObjAddr: 0x3C168, symBinAddr: 0x1000393BC, symSize: 0x120 }
  - { offset: 0x825D9, size: 0x8, addend: 0x0, symName: __RNvNvMsa_NtNtNtNtCsfB93IpvWVaK_3std3sys3net10connection6socketNtB7_9UdpSocket7connect5inner, symObjAddr: 0x3C288, symBinAddr: 0x1000394DC, symSize: 0xFC }
  - { offset: 0x82790, size: 0x8, addend: 0x0, symName: __RNvNvMs3_NtNtNtNtCsfB93IpvWVaK_3std3sys3net10connection6socketNtB7_9TcpStream7connect5inner, symObjAddr: 0x3BDD8, symBinAddr: 0x10003902C, symSize: 0x138 }
  - { offset: 0x829AB, size: 0x8, addend: 0x0, symName: __RNvXs2_NtNtNtNtCsfB93IpvWVaK_3std3sys3net10connection6socketNtB5_10LookupHostNtNtNtCs5FIOKSViJ8s_4core3ops4drop4Drop4drop, symObjAddr: 0x419EC, symBinAddr: 0x10003EB70, symSize: 0x8 }
  - { offset: 0x829E2, size: 0x8, addend: 0x0, symName: __RNvNvMs7_NtNtNtNtCsfB93IpvWVaK_3std3sys3net10connection6socketNtB7_11TcpListener4bind5inner, symObjAddr: 0x3C01C, symBinAddr: 0x100039270, symSize: 0x14C }
  - { offset: 0x82BC3, size: 0x8, addend: 0x0, symName: __RNvXs6_NtNtNtNtCsfB93IpvWVaK_3std3sys3net10connection6socketNtB5_9TcpStreamNtNtCs5FIOKSViJ8s_4core3fmt5Debug3fmt, symObjAddr: 0x44A9C, symBinAddr: 0x100041C20, symSize: 0x10C }
  - { offset: 0x82C7B, size: 0x8, addend: 0x0, symName: __RNvXs9_NtNtNtNtCsfB93IpvWVaK_3std3sys3net10connection6socketNtB5_11TcpListenerNtNtCs5FIOKSViJ8s_4core3fmt5Debug3fmt, symObjAddr: 0x4645C, symBinAddr: 0x1000435E0, symSize: 0xBC }
  - { offset: 0x82D1E, size: 0x8, addend: 0x0, symName: __RNvXs_NtNtNtNtCsfB93IpvWVaK_3std3sys3net10connection6socketNtB4_10LookupHostNtNtNtNtCs5FIOKSViJ8s_4core4iter6traits8iterator8Iterator4next, symObjAddr: 0x488BC, symBinAddr: 0x100045A40, symSize: 0x150 }
  - { offset: 0x82E1A, size: 0x8, addend: 0x0, symName: __RNvXsc_NtNtNtNtCsfB93IpvWVaK_3std3sys3net10connection6socketNtB5_9UdpSocketNtNtCs5FIOKSViJ8s_4core3fmt5Debug3fmt, symObjAddr: 0x49748, symBinAddr: 0x1000468CC, symSize: 0xBC }
  - { offset: 0x82F51, size: 0x8, addend: 0x0, symName: __RNvNtNtCsfB93IpvWVaK_3std3sys5alloc16realloc_fallback, symObjAddr: 0x34120, symBinAddr: 0x100031F28, symSize: 0xB0 }
  - { offset: 0x83096, size: 0x8, addend: 0x0, symName: __RNvXs2_NtNtNtCsfB93IpvWVaK_3std3sys4time4unixNtB5_7InstantNtNtCs5FIOKSViJ8s_4core3fmt5Debug3fmt, symObjAddr: 0x418BC, symBinAddr: 0x10003EA40, symSize: 0x80 }
  - { offset: 0x830BC, size: 0x8, addend: 0x0, symName: __RNvXs_NtNtNtCsfB93IpvWVaK_3std3sys4time4unixNtB4_10SystemTimeNtNtCs5FIOKSViJ8s_4core3fmt5Debug3fmt, symObjAddr: 0x4804C, symBinAddr: 0x1000451D0, symSize: 0x80 }
  - { offset: 0x83128, size: 0x8, addend: 0x0, symName: __RNvXs1_NtNtNtCsfB93IpvWVaK_3std3sys4args6commonNtB5_4ArgsNtNtCs5FIOKSViJ8s_4core3fmt5Debug3fmt, symObjAddr: 0x40214, symBinAddr: 0x10003D398, symSize: 0x74 }
  - { offset: 0x831C2, size: 0x8, addend: 0x0, symName: __RNvNtNtCsfB93IpvWVaK_3std3sys4exit4exit, symObjAddr: 0x34114, symBinAddr: 0x100031F1C, symSize: 0xC }
  - { offset: 0x831F6, size: 0x8, addend: 0x0, symName: __RNvNtNtCsfB93IpvWVaK_3std3sys6random19hashmap_random_keys, symObjAddr: 0x341D0, symBinAddr: 0x100031FD8, symSize: 0x5C }
  - { offset: 0x8326C, size: 0x8, addend: 0x0, symName: __RNvNtNtNtCsfB93IpvWVaK_3std3sys4pipe4unix4pipe, symObjAddr: 0x395B8, symBinAddr: 0x10003688C, symSize: 0x128 }
  - { offset: 0x83581, size: 0x8, addend: 0x0, symName: __RNvMs0_NtNtCsfB93IpvWVaK_3std4sync4onceNtB5_4Once10wait_force, symObjAddr: 0x1A8E0, symBinAddr: 0x100019398, symSize: 0x1C }
  - { offset: 0x8359F, size: 0x8, addend: 0x0, symName: __RNvMs0_NtNtCsfB93IpvWVaK_3std4sync4onceNtB5_4Once10wait_force, symObjAddr: 0x1A8E0, symBinAddr: 0x100019398, symSize: 0x1C }
  - { offset: 0x835B4, size: 0x8, addend: 0x0, symName: __RNvMs0_NtNtCsfB93IpvWVaK_3std4sync4onceNtB5_4Once10wait_force, symObjAddr: 0x1A8E0, symBinAddr: 0x100019398, symSize: 0x1C }
  - { offset: 0x835C8, size: 0x8, addend: 0x0, symName: __RNvMs0_NtNtCsfB93IpvWVaK_3std4sync4onceNtB5_4Once10wait_force, symObjAddr: 0x1A8E0, symBinAddr: 0x100019398, symSize: 0x1C }
  - { offset: 0x835DD, size: 0x8, addend: 0x0, symName: __RNvMs0_NtNtCsfB93IpvWVaK_3std4sync4onceNtB5_4Once4wait, symObjAddr: 0x1A8FC, symBinAddr: 0x1000193B4, symSize: 0x1C }
  - { offset: 0x835FB, size: 0x8, addend: 0x0, symName: __RNvMs0_NtNtCsfB93IpvWVaK_3std4sync4onceNtB5_4Once4wait, symObjAddr: 0x1A8FC, symBinAddr: 0x1000193B4, symSize: 0x1C }
  - { offset: 0x83610, size: 0x8, addend: 0x0, symName: __RNvMs0_NtNtCsfB93IpvWVaK_3std4sync4onceNtB5_4Once4wait, symObjAddr: 0x1A8FC, symBinAddr: 0x1000193B4, symSize: 0x1C }
  - { offset: 0x83624, size: 0x8, addend: 0x0, symName: __RNvMs0_NtNtCsfB93IpvWVaK_3std4sync4onceNtB5_4Once4wait, symObjAddr: 0x1A8FC, symBinAddr: 0x1000193B4, symSize: 0x1C }
  - { offset: 0x83675, size: 0x8, addend: 0x0, symName: __RNCINvMs0_NtNtCsfB93IpvWVaK_3std4sync4onceNtB8_4Once15call_once_forceNCINvMNtBa_9once_lockINtB1b_8OnceLockINtNtBa_14reentrant_lock13ReentrantLockINtNtCs5FIOKSViJ8s_4core4cell7RefCellINtNtNtNtBc_2io8buffered10linewriter10LineWriterNtNtB31_5stdio9StdoutRawEEEE10initializeNCINvB1a_11get_or_initNCNvB3I_6stdout0E0zE0E0Bc_, symObjAddr: 0x13488, symBinAddr: 0x100012708, symSize: 0x70 }
  - { offset: 0x837C7, size: 0x8, addend: 0x0, symName: __RNCINvMs0_NtNtCsfB93IpvWVaK_3std4sync4onceNtB8_4Once15call_once_forceNCINvMNtBa_9once_lockINtB1b_8OnceLockINtNtBa_14reentrant_lock13ReentrantLockINtNtCs5FIOKSViJ8s_4core4cell7RefCellINtNtNtNtBc_2io8buffered10linewriter10LineWriterNtNtB31_5stdio9StdoutRawEEEE10initializeNCINvB1a_11get_or_initNCNvB3I_7cleanup0E0zE0E0Bc_, symObjAddr: 0x134F8, symBinAddr: 0x100012778, symSize: 0x60 }
  - { offset: 0x8387C, size: 0x8, addend: 0x0, symName: __RNCINvMs0_NtNtCsfB93IpvWVaK_3std4sync4onceNtB8_4Once15call_once_forceNCINvMNtBa_9once_lockINtB1b_8OnceLockINtNtNtBa_6poison5mutex5MutexINtNtNtNtBc_2io8buffered9bufreader9BufReaderNtNtB2g_5stdio8StdinRawEEE10initializeNCINvB1a_11get_or_initNCNvB2T_5stdin0E0zE0E0Bc_, symObjAddr: 0x13558, symBinAddr: 0x1000127D8, symSize: 0x6C }
  - { offset: 0x839B2, size: 0x8, addend: 0x0, symName: __RNCINvMs0_NtNtCsfB93IpvWVaK_3std4sync4onceNtB8_4Once15call_once_forceNCNvMNtBa_9lazy_lockINtB1a_8LazyLockNtNtBc_9backtrace7CaptureNCNvNtB1H_6helper12lazy_resolve0E5force0E0Bc_, symObjAddr: 0x135C4, symBinAddr: 0x100012844, symSize: 0x194 }
  - { offset: 0x83D17, size: 0x8, addend: 0x0, symName: __RNCINvMs0_NtNtCsfB93IpvWVaK_3std4sync4onceNtB8_4Once9call_onceNCNvNtBc_2rt7cleanup0E0Bc_, symObjAddr: 0x13758, symBinAddr: 0x1000129D8, symSize: 0x27C }
  - { offset: 0x845BC, size: 0x8, addend: 0x0, symName: __RNvXs1_NtNtCsfB93IpvWVaK_3std4sync4onceNtB5_4OnceNtNtCs5FIOKSViJ8s_4core3fmt5Debug3fmt, symObjAddr: 0x3FF6C, symBinAddr: 0x10003D0F0, symSize: 0x38 }
  - { offset: 0x845F0, size: 0x8, addend: 0x0, symName: __RNvXs3_NtNtCsfB93IpvWVaK_3std4sync4onceNtB5_9OnceStateNtNtCs5FIOKSViJ8s_4core3fmt5Debug3fmt, symObjAddr: 0x4224C, symBinAddr: 0x10003F3D0, symSize: 0x6C }
  - { offset: 0x84642, size: 0x8, addend: 0x0, symName: __RINvMNtNtCsfB93IpvWVaK_3std4sync9once_lockINtB3_8OnceLockINtNtB5_14reentrant_lock13ReentrantLockINtNtCs5FIOKSViJ8s_4core4cell7RefCellINtNtNtNtB7_2io8buffered10linewriter10LineWriterNtNtB2e_5stdio9StdoutRawEEEE10initializeNCINvB2_11get_or_initNCNvB2V_6stdout0E0zEB7_, symObjAddr: 0x2C48, symBinAddr: 0x10008BA5C, symSize: 0x60 }
  - { offset: 0x8466D, size: 0x8, addend: 0x0, symName: __RINvMNtNtCsfB93IpvWVaK_3std4sync9once_lockINtB3_8OnceLockINtNtB5_14reentrant_lock13ReentrantLockINtNtCs5FIOKSViJ8s_4core4cell7RefCellINtNtNtNtB7_2io8buffered10linewriter10LineWriterNtNtB2e_5stdio9StdoutRawEEEE10initializeNCINvB2_11get_or_initNCNvB2V_6stdout0E0zEB7_, symObjAddr: 0x2C48, symBinAddr: 0x10008BA5C, symSize: 0x60 }
  - { offset: 0x84681, size: 0x8, addend: 0x0, symName: __RINvMNtNtCsfB93IpvWVaK_3std4sync9once_lockINtB3_8OnceLockINtNtB5_14reentrant_lock13ReentrantLockINtNtCs5FIOKSViJ8s_4core4cell7RefCellINtNtNtNtB7_2io8buffered10linewriter10LineWriterNtNtB2e_5stdio9StdoutRawEEEE10initializeNCINvB2_11get_or_initNCNvB2V_6stdout0E0zEB7_, symObjAddr: 0x2C48, symBinAddr: 0x10008BA5C, symSize: 0x60 }
  - { offset: 0x84695, size: 0x8, addend: 0x0, symName: __RINvMNtNtCsfB93IpvWVaK_3std4sync9once_lockINtB3_8OnceLockINtNtB5_14reentrant_lock13ReentrantLockINtNtCs5FIOKSViJ8s_4core4cell7RefCellINtNtNtNtB7_2io8buffered10linewriter10LineWriterNtNtB2e_5stdio9StdoutRawEEEE10initializeNCINvB2_11get_or_initNCNvB2V_6stdout0E0zEB7_, symObjAddr: 0x2C48, symBinAddr: 0x10008BA5C, symSize: 0x60 }
  - { offset: 0x846AA, size: 0x8, addend: 0x0, symName: __RINvMNtNtCsfB93IpvWVaK_3std4sync9once_lockINtB3_8OnceLockINtNtB5_14reentrant_lock13ReentrantLockINtNtCs5FIOKSViJ8s_4core4cell7RefCellINtNtNtNtB7_2io8buffered10linewriter10LineWriterNtNtB2e_5stdio9StdoutRawEEEE10initializeNCINvB2_11get_or_initNCNvB2V_7cleanup0E0zEB7_, symObjAddr: 0x2CA8, symBinAddr: 0x10008BABC, symSize: 0x64 }
  - { offset: 0x846D5, size: 0x8, addend: 0x0, symName: __RINvMNtNtCsfB93IpvWVaK_3std4sync9once_lockINtB3_8OnceLockINtNtB5_14reentrant_lock13ReentrantLockINtNtCs5FIOKSViJ8s_4core4cell7RefCellINtNtNtNtB7_2io8buffered10linewriter10LineWriterNtNtB2e_5stdio9StdoutRawEEEE10initializeNCINvB2_11get_or_initNCNvB2V_7cleanup0E0zEB7_, symObjAddr: 0x2CA8, symBinAddr: 0x10008BABC, symSize: 0x64 }
  - { offset: 0x846E9, size: 0x8, addend: 0x0, symName: __RINvMNtNtCsfB93IpvWVaK_3std4sync9once_lockINtB3_8OnceLockINtNtB5_14reentrant_lock13ReentrantLockINtNtCs5FIOKSViJ8s_4core4cell7RefCellINtNtNtNtB7_2io8buffered10linewriter10LineWriterNtNtB2e_5stdio9StdoutRawEEEE10initializeNCINvB2_11get_or_initNCNvB2V_7cleanup0E0zEB7_, symObjAddr: 0x2CA8, symBinAddr: 0x10008BABC, symSize: 0x64 }
  - { offset: 0x846FD, size: 0x8, addend: 0x0, symName: __RINvMNtNtCsfB93IpvWVaK_3std4sync9once_lockINtB3_8OnceLockINtNtB5_14reentrant_lock13ReentrantLockINtNtCs5FIOKSViJ8s_4core4cell7RefCellINtNtNtNtB7_2io8buffered10linewriter10LineWriterNtNtB2e_5stdio9StdoutRawEEEE10initializeNCINvB2_11get_or_initNCNvB2V_7cleanup0E0zEB7_, symObjAddr: 0x2CA8, symBinAddr: 0x10008BABC, symSize: 0x64 }
  - { offset: 0x84712, size: 0x8, addend: 0x0, symName: __RINvMNtNtCsfB93IpvWVaK_3std4sync9once_lockINtB3_8OnceLockINtNtNtB5_6poison5mutex5MutexINtNtNtNtB7_2io8buffered9bufreader9BufReaderNtNtB1t_5stdio8StdinRawEEE10initializeNCINvB2_11get_or_initNCNvB26_5stdin0E0zEB7_, symObjAddr: 0x2D0C, symBinAddr: 0x10008BB20, symSize: 0x58 }
  - { offset: 0x8473D, size: 0x8, addend: 0x0, symName: __RINvMNtNtCsfB93IpvWVaK_3std4sync9once_lockINtB3_8OnceLockINtNtNtB5_6poison5mutex5MutexINtNtNtNtB7_2io8buffered9bufreader9BufReaderNtNtB1t_5stdio8StdinRawEEE10initializeNCINvB2_11get_or_initNCNvB26_5stdin0E0zEB7_, symObjAddr: 0x2D0C, symBinAddr: 0x10008BB20, symSize: 0x58 }
  - { offset: 0x84751, size: 0x8, addend: 0x0, symName: __RINvMNtNtCsfB93IpvWVaK_3std4sync9once_lockINtB3_8OnceLockINtNtNtB5_6poison5mutex5MutexINtNtNtNtB7_2io8buffered9bufreader9BufReaderNtNtB1t_5stdio8StdinRawEEE10initializeNCINvB2_11get_or_initNCNvB26_5stdin0E0zEB7_, symObjAddr: 0x2D0C, symBinAddr: 0x10008BB20, symSize: 0x58 }
  - { offset: 0x84765, size: 0x8, addend: 0x0, symName: __RINvMNtNtCsfB93IpvWVaK_3std4sync9once_lockINtB3_8OnceLockINtNtNtB5_6poison5mutex5MutexINtNtNtNtB7_2io8buffered9bufreader9BufReaderNtNtB1t_5stdio8StdinRawEEE10initializeNCINvB2_11get_or_initNCNvB26_5stdin0E0zEB7_, symObjAddr: 0x2D0C, symBinAddr: 0x10008BB20, symSize: 0x58 }
  - { offset: 0x8490D, size: 0x8, addend: 0x0, symName: __RNvMs5_NtNtNtCsfB93IpvWVaK_3std4sync6poison5mutexINtB5_5MutexINtNtCs7QfUfi8dEu5_5alloc3vec3VechEE4lockBb_, symObjAddr: 0x22634, symBinAddr: 0x1000206B4, symSize: 0x78 }
  - { offset: 0x84B71, size: 0x8, addend: 0x0, symName: __RNvMs9_NtNtNtCsfB93IpvWVaK_3std4sync6poison6rwlockINtB5_6RwLockuE5writeBb_, symObjAddr: 0x23C00, symBinAddr: 0x100021C80, symSize: 0x224 }
  - { offset: 0x85259, size: 0x8, addend: 0x0, symName: __RNvMNtNtNtCsfB93IpvWVaK_3std4sync6poison7condvarNtB2_7Condvar10notify_all, symObjAddr: 0x18874, symBinAddr: 0x1000176EC, symSize: 0x28 }
  - { offset: 0x852EF, size: 0x8, addend: 0x0, symName: __RNvMNtNtNtCsfB93IpvWVaK_3std4sync6poison7condvarNtB2_7Condvar10notify_one, symObjAddr: 0x1889C, symBinAddr: 0x100017714, symSize: 0x28 }
  - { offset: 0x8538B, size: 0x8, addend: 0x0, symName: __RNvXs_NtNtNtCsfB93IpvWVaK_3std4sync6poison7condvarNtB4_7CondvarNtNtCs5FIOKSViJ8s_4core3fmt5Debug3fmt, symObjAddr: 0x4824C, symBinAddr: 0x1000453D0, symSize: 0x38 }
  - { offset: 0x85586, size: 0x8, addend: 0x0, symName: __RNvNtNtCsfB93IpvWVaK_3std4sync9lazy_lock14panic_poisoned, symObjAddr: 0x34388, symBinAddr: 0x10008D8F8, symSize: 0x20 }
  - { offset: 0x855E1, size: 0x8, addend: 0x0, symName: __RNvMNtNtNtCsfB93IpvWVaK_3std4sync4mpmc7contextNtB2_7Context3new, symObjAddr: 0x1872C, symBinAddr: 0x10008C740, symSize: 0x148 }
  - { offset: 0x859AB, size: 0x8, addend: 0x0, symName: __RNvXs_NtNtNtCsfB93IpvWVaK_3std4sync4mpmc4zeroNtB4_9ZeroTokenNtNtCs5FIOKSViJ8s_4core3fmt5Debug3fmt, symObjAddr: 0x48204, symBinAddr: 0x100045388, symSize: 0x48 }
  - { offset: 0x85A6F, size: 0x8, addend: 0x0, symName: __RNvMs8_NtNtNtCsfB93IpvWVaK_3std4sync9nonpoison6rwlockINtB5_6RwLockNtNtBb_9panicking4HookE7replaceBb_, symObjAddr: 0x238D0, symBinAddr: 0x100021950, symSize: 0x24C }
  - { offset: 0x86107, size: 0x8, addend: 0x0, symName: __RNvXNtNtCsfB93IpvWVaK_3std4sync9nonpoisonNtB2_10WouldBlockNtNtCs5FIOKSViJ8s_4core3fmt5Debug3fmt, symObjAddr: 0x3D5A0, symBinAddr: 0x10003A7B4, symSize: 0x14 }
  - { offset: 0x86128, size: 0x8, addend: 0x0, symName: __RNvXs_NtNtCsfB93IpvWVaK_3std4sync9nonpoisonNtB4_10WouldBlockNtNtCs5FIOKSViJ8s_4core3fmt7Display3fmt, symObjAddr: 0x478C4, symBinAddr: 0x100044A48, symSize: 0x14 }
  - { offset: 0x8614F, size: 0x8, addend: 0x0, symName: __RNvMs0_NtNtCsfB93IpvWVaK_3std4sync7barrierNtB5_7Barrier4wait, symObjAddr: 0x1A918, symBinAddr: 0x1000193D0, symSize: 0x12C }
  - { offset: 0x864A5, size: 0x8, addend: 0x0, symName: __RNvXs1_NtNtCsfB93IpvWVaK_3std4sync7barrierNtB5_17BarrierWaitResultNtNtCs5FIOKSViJ8s_4core3fmt5Debug3fmt, symObjAddr: 0x3FFA4, symBinAddr: 0x10003D128, symSize: 0x6C }
  - { offset: 0x864DA, size: 0x8, addend: 0x0, symName: __RNvXs_NtNtCsfB93IpvWVaK_3std4sync7barrierNtB4_7BarrierNtNtCs5FIOKSViJ8s_4core3fmt5Debug3fmt, symObjAddr: 0x4788C, symBinAddr: 0x100044A10, symSize: 0x38 }
  - { offset: 0x86500, size: 0x8, addend: 0x0, symName: __RNvXsn_NtNtCsfB93IpvWVaK_3std4sync4mpscNtB5_9RecvErrorNtNtCs5FIOKSViJ8s_4core3fmt7Display3fmt, symObjAddr: 0x4B800, symBinAddr: 0x100048984, symSize: 0x14 }
  - { offset: 0x86522, size: 0x8, addend: 0x0, symName: __RNvXsp_NtNtCsfB93IpvWVaK_3std4sync4mpscNtB5_12TryRecvErrorNtNtCs5FIOKSViJ8s_4core3fmt7Display3fmt, symObjAddr: 0x4C034, symBinAddr: 0x1000491B8, symSize: 0x28 }
  - { offset: 0x86544, size: 0x8, addend: 0x0, symName: __RNvXss_NtNtCsfB93IpvWVaK_3std4sync4mpscNtB5_16RecvTimeoutErrorNtNtCs5FIOKSViJ8s_4core3fmt7Display3fmt, symObjAddr: 0x4C52C, symBinAddr: 0x1000496B0, symSize: 0x30 }
  - { offset: 0x8657F, size: 0x8, addend: 0x0, symName: __RINvMs5_NtNtCsfB93IpvWVaK_3std2io5errorNtB6_5Error3newNtNtNtCs5FIOKSViJ8s_4core3num5error15TryFromIntErrorEBa_, symObjAddr: 0x39BC, symBinAddr: 0x1000033AC, symSize: 0x78 }
  - { offset: 0x86659, size: 0x8, addend: 0x0, symName: __RINvMs5_NtNtCsfB93IpvWVaK_3std2io5errorNtB6_5Error3newReEBa_, symObjAddr: 0x3A34, symBinAddr: 0x100003424, symSize: 0x120 }
  - { offset: 0x86A32, size: 0x8, addend: 0x0, symName: __RNvMs5_NtNtCsfB93IpvWVaK_3std2io5errorNtB5_5Error4__new, symObjAddr: 0x225B8, symBinAddr: 0x100020638, symSize: 0x7C }
  - { offset: 0x86D3D, size: 0x8, addend: 0x0, symName: __RNvXNtNtCsfB93IpvWVaK_3std2io5errorNtB2_5ErrorNtNtCs5FIOKSViJ8s_4core3fmt5Debug3fmt, symObjAddr: 0x3D0A0, symBinAddr: 0x10003A2B4, symSize: 0x4 }
  - { offset: 0x86D64, size: 0x8, addend: 0x0, symName: __RNvXs0_NtNtCsfB93IpvWVaK_3std2io5errorNtB5_5ErrorINtNtCs5FIOKSViJ8s_4core7convert4FromNtNtNtCs7QfUfi8dEu5_5alloc3ffi5c_str8NulErrorE4from, symObjAddr: 0x3EF44, symBinAddr: 0x10003C0F8, symSize: 0x2C }
  - { offset: 0x86D81, size: 0x8, addend: 0x0, symName: __RNvXs0_NtNtCsfB93IpvWVaK_3std2io5errorNtB5_5ErrorINtNtCs5FIOKSViJ8s_4core7convert4FromNtNtNtCs7QfUfi8dEu5_5alloc3ffi5c_str8NulErrorE4from, symObjAddr: 0x3EF44, symBinAddr: 0x10003C0F8, symSize: 0x2C }
  - { offset: 0x86D95, size: 0x8, addend: 0x0, symName: __RNvXs0_NtNtCsfB93IpvWVaK_3std2io5errorNtB5_5ErrorINtNtCs5FIOKSViJ8s_4core7convert4FromNtNtNtCs7QfUfi8dEu5_5alloc3ffi5c_str8NulErrorE4from, symObjAddr: 0x3EF44, symBinAddr: 0x10003C0F8, symSize: 0x2C }
  - { offset: 0x86E58, size: 0x8, addend: 0x0, symName: __RNvXs3_NtNtCsfB93IpvWVaK_3std2io5errorNtB5_9ErrorKindNtNtCs5FIOKSViJ8s_4core3fmt7Display3fmt, symObjAddr: 0x41C0C, symBinAddr: 0x10003ED90, symSize: 0x28 }
  - { offset: 0x86EA1, size: 0x8, addend: 0x0, symName: __RNvXs6_NtNtCsfB93IpvWVaK_3std2io5errorNtNtB5_14repr_bitpacked4ReprNtNtCs5FIOKSViJ8s_4core3fmt5Debug3fmt, symObjAddr: 0x445A0, symBinAddr: 0x100041724, symSize: 0x28C }
  - { offset: 0x87143, size: 0x8, addend: 0x0, symName: __RNvXs7_NtNtCsfB93IpvWVaK_3std2io5errorNtB5_5ErrorNtNtCs5FIOKSViJ8s_4core3fmt7Display3fmt, symObjAddr: 0x45688, symBinAddr: 0x10004280C, symSize: 0x1B0 }
  - { offset: 0x873CF, size: 0x8, addend: 0x0, symName: __RNvXs8_NtNtCsfB93IpvWVaK_3std2io5errorNtB5_5ErrorNtNtCs5FIOKSViJ8s_4core5error5Error5cause, symObjAddr: 0x45C84, symBinAddr: 0x100042E08, symSize: 0x40 }
  - { offset: 0x873ED, size: 0x8, addend: 0x0, symName: __RNvXs8_NtNtCsfB93IpvWVaK_3std2io5errorNtB5_5ErrorNtNtCs5FIOKSViJ8s_4core5error5Error5cause, symObjAddr: 0x45C84, symBinAddr: 0x100042E08, symSize: 0x40 }
  - { offset: 0x87415, size: 0x8, addend: 0x0, symName: __RNvXs8_NtNtCsfB93IpvWVaK_3std2io5errorNtB5_5ErrorNtNtCs5FIOKSViJ8s_4core5error5Error6source, symObjAddr: 0x45CC4, symBinAddr: 0x100042E48, symSize: 0x40 }
  - { offset: 0x87433, size: 0x8, addend: 0x0, symName: __RNvXs8_NtNtCsfB93IpvWVaK_3std2io5errorNtB5_5ErrorNtNtCs5FIOKSViJ8s_4core5error5Error6source, symObjAddr: 0x45CC4, symBinAddr: 0x100042E48, symSize: 0x40 }
  - { offset: 0x87460, size: 0x8, addend: 0x0, symName: __RNvXse_NtNtCsfB93IpvWVaK_3std2io5errorNtB5_9ErrorKindNtNtCs5FIOKSViJ8s_4core3fmt5Debug3fmt, symObjAddr: 0x49E6C, symBinAddr: 0x100046FF0, symSize: 0x28 }
  - { offset: 0x874B4, size: 0x8, addend: 0x0, symName: __RNvXs_NvMs_NtNtNtCsfB93IpvWVaK_3std2io8buffered9bufwriterINtB9_9BufWriterpE9flush_bufNtB4_8BufGuardNtNtNtCs5FIOKSViJ8s_4core3ops4drop4Drop4drop, symObjAddr: 0x48ADC, symBinAddr: 0x100045C60, symSize: 0x5C }
  - { offset: 0x87615, size: 0x8, addend: 0x0, symName: __RNvMNvMs_NtNtNtCsfB93IpvWVaK_3std2io8buffered9bufwriterINtB7_9BufWriterpE9flush_bufNtB2_8BufGuard9remaining, symObjAddr: 0x1A494, symBinAddr: 0x100018F4C, symSize: 0x38 }
  - { offset: 0x87720, size: 0x8, addend: 0x0, symName: __RNvMs_NtNtNtCsfB93IpvWVaK_3std2io8buffered9bufwriterINtB4_9BufWriterNtNtB8_5stdio9StdoutRawE10write_coldBa_, symObjAddr: 0x279A8, symBinAddr: 0x10008D680, symSize: 0xFC }
  - { offset: 0x87955, size: 0x8, addend: 0x0, symName: __RNvMs_NtNtNtCsfB93IpvWVaK_3std2io8buffered9bufwriterINtB4_9BufWriterNtNtB8_5stdio9StdoutRawE14write_all_coldBa_, symObjAddr: 0x27AA4, symBinAddr: 0x10008D77C, symSize: 0x90 }
  - { offset: 0x87A9E, size: 0x8, addend: 0x0, symName: __RNvMs_NtNtNtCsfB93IpvWVaK_3std2io8buffered9bufwriterINtB4_9BufWriterNtNtB8_5stdio9StdoutRawE9flush_bufBa_, symObjAddr: 0x27B34, symBinAddr: 0x100025A28, symSize: 0x160 }
  - { offset: 0x87D55, size: 0x8, addend: 0x0, symName: __RNvXs2_NtNtNtCsfB93IpvWVaK_3std2io8buffered9bufwriterNtB5_14WriterPanickedNtNtCs5FIOKSViJ8s_4core3fmt7Display3fmt, symObjAddr: 0x417B8, symBinAddr: 0x10003E93C, symSize: 0x14 }
  - { offset: 0x87D76, size: 0x8, addend: 0x0, symName: __RNvXs3_NtNtNtCsfB93IpvWVaK_3std2io8buffered9bufwriterNtB5_14WriterPanickedNtNtCs5FIOKSViJ8s_4core3fmt5Debug3fmt, symObjAddr: 0x4277C, symBinAddr: 0x10003F900, symSize: 0x98 }
  - { offset: 0x87E84, size: 0x8, addend: 0x0, symName: __RNvMNtNtNtNtCsfB93IpvWVaK_3std2io8buffered9bufreader6bufferNtB2_6Buffer9backshift, symObjAddr: 0x188C4, symBinAddr: 0x10001773C, symSize: 0x6C }
  - { offset: 0x880A9, size: 0x8, addend: 0x0, symName: __RNvXs3_NtNtNtCsfB93IpvWVaK_3std2io8buffered9bufreaderINtB5_9BufReaderNtNtB9_5stdio8StdinRawENtB9_4Read11read_to_endBb_, symObjAddr: 0x422B8, symBinAddr: 0x10003F43C, symSize: 0x170 }
  - { offset: 0x883CB, size: 0x8, addend: 0x0, symName: __RNvXs3_NtNtNtCsfB93IpvWVaK_3std2io8buffered9bufreaderINtB5_9BufReaderNtNtB9_5stdio8StdinRawENtB9_4Read4readBb_, symObjAddr: 0x42428, symBinAddr: 0x10003F5AC, symSize: 0x1AC }
  - { offset: 0x88721, size: 0x8, addend: 0x0, symName: __RNvXs3_NtNtNtCsfB93IpvWVaK_3std2io8buffered9bufreaderINtB5_9BufReaderNtNtB9_5stdio8StdinRawENtB9_4Read8read_bufBb_, symObjAddr: 0x425D4, symBinAddr: 0x10003F758, symSize: 0x1A8 }
  - { offset: 0x88DE2, size: 0x8, addend: 0x0, symName: __RNvXs_NtNtNtCsfB93IpvWVaK_3std2io8buffered14linewritershimINtB4_14LineWriterShimNtNtB8_5stdio9StdoutRawENtB8_5Write14write_vectoredBa_, symObjAddr: 0x47910, symBinAddr: 0x100044A94, symSize: 0x480 }
  - { offset: 0x8972C, size: 0x8, addend: 0x0, symName: __RNvXNtNtCsfB93IpvWVaK_3std2io5stdioNtB2_8StdinRawNtB4_4Read10read_exact, symObjAddr: 0x3D0A4, symBinAddr: 0x10003A2B8, symSize: 0x110 }
  - { offset: 0x898B5, size: 0x8, addend: 0x0, symName: __RNvXNtNtCsfB93IpvWVaK_3std2io5stdioNtB2_8StdinRawNtB4_4Read11read_to_end, symObjAddr: 0x3D1B4, symBinAddr: 0x10003A3C8, symSize: 0x6C }
  - { offset: 0x89952, size: 0x8, addend: 0x0, symName: __RNvXNtNtCsfB93IpvWVaK_3std2io5stdioNtB2_8StdinRawNtB4_4Read13read_vectored, symObjAddr: 0x3D220, symBinAddr: 0x10003A434, symSize: 0x70 }
  - { offset: 0x89A4E, size: 0x8, addend: 0x0, symName: __RNvXNtNtCsfB93IpvWVaK_3std2io5stdioNtB2_8StdinRawNtB4_4Read14read_buf_exact, symObjAddr: 0x3D290, symBinAddr: 0x10003A4A4, symSize: 0x108 }
  - { offset: 0x89CA9, size: 0x8, addend: 0x0, symName: __RNvXNtNtCsfB93IpvWVaK_3std2io5stdioNtB2_8StdinRawNtB4_4Read14read_to_string, symObjAddr: 0x3D398, symBinAddr: 0x10003A5AC, symSize: 0x100 }
  - { offset: 0x89F4A, size: 0x8, addend: 0x0, symName: __RNvXNtNtCsfB93IpvWVaK_3std2io5stdioNtB2_8StdinRawNtB4_4Read4read, symObjAddr: 0x3D498, symBinAddr: 0x10003A6AC, symSize: 0x70 }
  - { offset: 0x8A045, size: 0x8, addend: 0x0, symName: __RNvXNtNtCsfB93IpvWVaK_3std2io5stdioNtB2_8StdinRawNtB4_4Read8read_buf, symObjAddr: 0x3D508, symBinAddr: 0x10003A71C, symSize: 0x98 }
  - { offset: 0x8A257, size: 0x8, addend: 0x0, symName: __RNvMs1_NtNtCsfB93IpvWVaK_3std2io5stdioNtB5_5Stdin4lock, symObjAddr: 0x1E718, symBinAddr: 0x10001D1D0, symSize: 0x68 }
  - { offset: 0x8A3A8, size: 0x8, addend: 0x0, symName: __RNvMs1_NtNtCsfB93IpvWVaK_3std2io5stdioNtB5_5Stdin5lines, symObjAddr: 0x1E780, symBinAddr: 0x10001D238, symSize: 0x68 }
  - { offset: 0x8A500, size: 0x8, addend: 0x0, symName: __RNvMs1_NtNtCsfB93IpvWVaK_3std2io5stdioNtB5_5Stdin9read_line, symObjAddr: 0x1E7E8, symBinAddr: 0x10001D2A0, symSize: 0x158 }
  - { offset: 0x8A9C8, size: 0x8, addend: 0x0, symName: __RNvXs7_NtNtCsfB93IpvWVaK_3std2io5stdioNtB5_9StdinLockNtB7_7BufRead10read_until, symObjAddr: 0x45838, symBinAddr: 0x1000429BC, symSize: 0xC }
  - { offset: 0x8A9E6, size: 0x8, addend: 0x0, symName: __RNvXs7_NtNtCsfB93IpvWVaK_3std2io5stdioNtB5_9StdinLockNtB7_7BufRead10read_until, symObjAddr: 0x45838, symBinAddr: 0x1000429BC, symSize: 0xC }
  - { offset: 0x8AA24, size: 0x8, addend: 0x0, symName: __RNvXs7_NtNtCsfB93IpvWVaK_3std2io5stdioNtB5_9StdinLockNtB7_7BufRead7consume, symObjAddr: 0x45844, symBinAddr: 0x1000429C8, symSize: 0x1C }
  - { offset: 0x8AA42, size: 0x8, addend: 0x0, symName: __RNvXs7_NtNtCsfB93IpvWVaK_3std2io5stdioNtB5_9StdinLockNtB7_7BufRead7consume, symObjAddr: 0x45844, symBinAddr: 0x1000429C8, symSize: 0x1C }
  - { offset: 0x8AAAB, size: 0x8, addend: 0x0, symName: __RNvXs7_NtNtCsfB93IpvWVaK_3std2io5stdioNtB5_9StdinLockNtB7_7BufRead8fill_buf, symObjAddr: 0x45860, symBinAddr: 0x1000429E4, symSize: 0xD0 }
  - { offset: 0x8AC8A, size: 0x8, addend: 0x0, symName: __RNvXs7_NtNtCsfB93IpvWVaK_3std2io5stdioNtB5_9StdinLockNtB7_7BufRead9read_line, symObjAddr: 0x45930, symBinAddr: 0x100042AB4, symSize: 0xC0 }
  - { offset: 0x8AECD, size: 0x8, addend: 0x0, symName: __RNvMs9_NtNtCsfB93IpvWVaK_3std2io5stdioNtB5_6Stdout4lock, symObjAddr: 0x23B1C, symBinAddr: 0x100021B9C, symSize: 0xE4 }
  - { offset: 0x8B18A, size: 0x8, addend: 0x0, symName: __RNvXs_NtNtCsfB93IpvWVaK_3std2io5stdioNtB4_9StdoutRawNtB6_5Write14write_vectored, symObjAddr: 0x4724C, symBinAddr: 0x1000443D0, symSize: 0x14C }
  - { offset: 0x8B323, size: 0x8, addend: 0x0, symName: __RNvXs_NtNtCsfB93IpvWVaK_3std2io5stdioNtB4_9StdoutRawNtB6_5Write18write_all_vectored, symObjAddr: 0x47398, symBinAddr: 0x10004451C, symSize: 0x1EC }
  - { offset: 0x8B604, size: 0x8, addend: 0x0, symName: __RNvXs_NtNtCsfB93IpvWVaK_3std2io5stdioNtB4_9StdoutRawNtB6_5Write5write, symObjAddr: 0x47584, symBinAddr: 0x100044708, symSize: 0x80 }
  - { offset: 0x8B6E2, size: 0x8, addend: 0x0, symName: __RNvXs_NtNtCsfB93IpvWVaK_3std2io5stdioNtB4_9StdoutRawNtB6_5Write9write_all, symObjAddr: 0x47604, symBinAddr: 0x100044788, symSize: 0x104 }
  - { offset: 0x8B860, size: 0x8, addend: 0x0, symName: __RNvXs_NtNtCsfB93IpvWVaK_3std2io5stdioNtB4_9StdoutRawNtB6_5Write9write_fmt, symObjAddr: 0x47708, symBinAddr: 0x10004488C, symSize: 0xC0 }
  - { offset: 0x8B996, size: 0x8, addend: 0x0, symName: __RNvNtNtCsfB93IpvWVaK_3std2io5stdio18set_output_capture, symObjAddr: 0x31F24, symBinAddr: 0x10002FD2C, symSize: 0x104 }
  - { offset: 0x8BC38, size: 0x8, addend: 0x0, symName: __RNvNtNtCsfB93IpvWVaK_3std2io5stdio22try_set_output_capture, symObjAddr: 0x32028, symBinAddr: 0x10002FE30, symSize: 0xEC }
  - { offset: 0x8BED1, size: 0x8, addend: 0x0, symName: __RNvXsn_NtNtCsfB93IpvWVaK_3std2io5stdioNtB5_6StderrNtB7_5Write14write_vectored, symObjAddr: 0x4B648, symBinAddr: 0x1000487CC, symSize: 0xA4 }
  - { offset: 0x8C0D1, size: 0x8, addend: 0x0, symName: __RNvXsn_NtNtCsfB93IpvWVaK_3std2io5stdioNtB5_6StderrNtB7_5Write18write_all_vectored, symObjAddr: 0x4B6EC, symBinAddr: 0x100048870, symSize: 0x24 }
  - { offset: 0x8C0EC, size: 0x8, addend: 0x0, symName: __RNvXsn_NtNtCsfB93IpvWVaK_3std2io5stdioNtB5_6StderrNtB7_5Write5flush, symObjAddr: 0x4B710, symBinAddr: 0x100048894, symSize: 0x84 }
  - { offset: 0x8C349, size: 0x8, addend: 0x0, symName: __RNvXsn_NtNtCsfB93IpvWVaK_3std2io5stdioNtB5_6StderrNtB7_5Write5write, symObjAddr: 0x4B794, symBinAddr: 0x100048918, symSize: 0x24 }
  - { offset: 0x8C364, size: 0x8, addend: 0x0, symName: __RNvXsn_NtNtCsfB93IpvWVaK_3std2io5stdioNtB5_6StderrNtB7_5Write9write_all, symObjAddr: 0x4B7B8, symBinAddr: 0x10004893C, symSize: 0x24 }
  - { offset: 0x8C37E, size: 0x8, addend: 0x0, symName: __RNvXsn_NtNtCsfB93IpvWVaK_3std2io5stdioNtB5_6StderrNtB7_5Write9write_fmt, symObjAddr: 0x4B7DC, symBinAddr: 0x100048960, symSize: 0x24 }
  - { offset: 0x8C393, size: 0x8, addend: 0x0, symName: __RNvNtNtCsfB93IpvWVaK_3std2io5stdio23attempt_print_to_stderr, symObjAddr: 0x32114, symBinAddr: 0x10002FF1C, symSize: 0x60 }
  - { offset: 0x8C413, size: 0x8, addend: 0x0, symName: __RNvNtNtCsfB93IpvWVaK_3std2io5stdio31print_to_buffer_if_capture_used, symObjAddr: 0x32174, symBinAddr: 0x10002FF7C, symSize: 0x210 }
  - { offset: 0x8C979, size: 0x8, addend: 0x0, symName: __RNvNtNtCsfB93IpvWVaK_3std2io5stdio5stdin, symObjAddr: 0x32384, symBinAddr: 0x10003018C, symSize: 0x38 }
  - { offset: 0x8C9B1, size: 0x8, addend: 0x0, symName: __RNvNtNtCsfB93IpvWVaK_3std2io5stdio5stdin, symObjAddr: 0x32384, symBinAddr: 0x10003018C, symSize: 0x38 }
  - { offset: 0x8C9C6, size: 0x8, addend: 0x0, symName: __RNvNtNtCsfB93IpvWVaK_3std2io5stdio5stdin, symObjAddr: 0x32384, symBinAddr: 0x10003018C, symSize: 0x38 }
  - { offset: 0x8C9DA, size: 0x8, addend: 0x0, symName: __RNvNtNtCsfB93IpvWVaK_3std2io5stdio5stdin, symObjAddr: 0x32384, symBinAddr: 0x10003018C, symSize: 0x38 }
  - { offset: 0x8C9EF, size: 0x8, addend: 0x0, symName: __RNvNtNtCsfB93IpvWVaK_3std2io5stdio5stdin, symObjAddr: 0x32384, symBinAddr: 0x10003018C, symSize: 0x38 }
  - { offset: 0x8CA04, size: 0x8, addend: 0x0, symName: __RNvNtNtCsfB93IpvWVaK_3std2io5stdio5stdin, symObjAddr: 0x32384, symBinAddr: 0x10003018C, symSize: 0x38 }
  - { offset: 0x8CA18, size: 0x8, addend: 0x0, symName: __RNvNtNtCsfB93IpvWVaK_3std2io5stdio5stdin, symObjAddr: 0x32384, symBinAddr: 0x10003018C, symSize: 0x38 }
  - { offset: 0x8CA60, size: 0x8, addend: 0x0, symName: __RNvXsd_NtNtCsfB93IpvWVaK_3std2io5stdioNtB5_6StdoutNtB7_5Write14write_vectored, symObjAddr: 0x49B74, symBinAddr: 0x100046CF8, symSize: 0x24 }
  - { offset: 0x8CA7B, size: 0x8, addend: 0x0, symName: __RNvXsd_NtNtCsfB93IpvWVaK_3std2io5stdioNtB5_6StdoutNtB7_5Write18write_all_vectored, symObjAddr: 0x49B98, symBinAddr: 0x100046D1C, symSize: 0x9C }
  - { offset: 0x8CC7B, size: 0x8, addend: 0x0, symName: __RNvXsd_NtNtCsfB93IpvWVaK_3std2io5stdioNtB5_6StdoutNtB7_5Write5flush, symObjAddr: 0x49C34, symBinAddr: 0x100046DB8, symSize: 0x24 }
  - { offset: 0x8CC96, size: 0x8, addend: 0x0, symName: __RNvXsd_NtNtCsfB93IpvWVaK_3std2io5stdioNtB5_6StdoutNtB7_5Write5write, symObjAddr: 0x49C58, symBinAddr: 0x100046DDC, symSize: 0xA4 }
  - { offset: 0x8CE96, size: 0x8, addend: 0x0, symName: __RNvXsd_NtNtCsfB93IpvWVaK_3std2io5stdioNtB5_6StdoutNtB7_5Write9write_all, symObjAddr: 0x49CFC, symBinAddr: 0x100046E80, symSize: 0x9C }
  - { offset: 0x8D095, size: 0x8, addend: 0x0, symName: __RNvXsd_NtNtCsfB93IpvWVaK_3std2io5stdioNtB5_6StdoutNtB7_5Write9write_fmt, symObjAddr: 0x49D98, symBinAddr: 0x100046F1C, symSize: 0x24 }
  - { offset: 0x8D0AA, size: 0x8, addend: 0x0, symName: __RNvNtNtCsfB93IpvWVaK_3std2io5stdio6__print, symObjAddr: 0x323BC, symBinAddr: 0x1000301C4, symSize: 0xD8 }
  - { offset: 0x8D193, size: 0x8, addend: 0x0, symName: __RNvNtNtCsfB93IpvWVaK_3std2io5stdio6stdout, symObjAddr: 0x32494, symBinAddr: 0x10003029C, symSize: 0x38 }
  - { offset: 0x8D1C4, size: 0x8, addend: 0x0, symName: __RNvNtNtCsfB93IpvWVaK_3std2io5stdio6stdout, symObjAddr: 0x32494, symBinAddr: 0x10003029C, symSize: 0x38 }
  - { offset: 0x8D1D9, size: 0x8, addend: 0x0, symName: __RNvNtNtCsfB93IpvWVaK_3std2io5stdio6stdout, symObjAddr: 0x32494, symBinAddr: 0x10003029C, symSize: 0x38 }
  - { offset: 0x8D1ED, size: 0x8, addend: 0x0, symName: __RNvNtNtCsfB93IpvWVaK_3std2io5stdio6stdout, symObjAddr: 0x32494, symBinAddr: 0x10003029C, symSize: 0x38 }
  - { offset: 0x8D202, size: 0x8, addend: 0x0, symName: __RNvNtNtCsfB93IpvWVaK_3std2io5stdio6stdout, symObjAddr: 0x32494, symBinAddr: 0x10003029C, symSize: 0x38 }
  - { offset: 0x8D217, size: 0x8, addend: 0x0, symName: __RNvNtNtCsfB93IpvWVaK_3std2io5stdio6stdout, symObjAddr: 0x32494, symBinAddr: 0x10003029C, symSize: 0x38 }
  - { offset: 0x8D22B, size: 0x8, addend: 0x0, symName: __RNvNtNtCsfB93IpvWVaK_3std2io5stdio6stdout, symObjAddr: 0x32494, symBinAddr: 0x10003029C, symSize: 0x38 }
  - { offset: 0x8D252, size: 0x8, addend: 0x0, symName: __RNvNtNtCsfB93IpvWVaK_3std2io5stdio7__eprint, symObjAddr: 0x324CC, symBinAddr: 0x1000302D4, symSize: 0xC0 }
  - { offset: 0x8D316, size: 0x8, addend: 0x0, symName: __RNvXsr_NtNtCsfB93IpvWVaK_3std2io5stdioNtB5_10StderrLockNtB7_5Write14write_vectored, symObjAddr: 0x4C140, symBinAddr: 0x1000492C4, symSize: 0x188 }
  - { offset: 0x8D65E, size: 0x8, addend: 0x0, symName: __RNvXsr_NtNtCsfB93IpvWVaK_3std2io5stdioNtB5_10StderrLockNtB7_5Write18write_all_vectored, symObjAddr: 0x4C2C8, symBinAddr: 0x10004944C, symSize: 0x90 }
  - { offset: 0x8D898, size: 0x8, addend: 0x0, symName: __RNvXsr_NtNtCsfB93IpvWVaK_3std2io5stdioNtB5_10StderrLockNtB7_5Write5flush, symObjAddr: 0x4C358, symBinAddr: 0x1000494DC, symSize: 0x28 }
  - { offset: 0x8D8AF, size: 0x8, addend: 0x0, symName: __RNvXsr_NtNtCsfB93IpvWVaK_3std2io5stdioNtB5_10StderrLockNtB7_5Write5flush, symObjAddr: 0x4C358, symBinAddr: 0x1000494DC, symSize: 0x28 }
  - { offset: 0x8D910, size: 0x8, addend: 0x0, symName: __RNvXsr_NtNtCsfB93IpvWVaK_3std2io5stdioNtB5_10StderrLockNtB7_5Write5write, symObjAddr: 0x4C380, symBinAddr: 0x100049504, symSize: 0xBC }
  - { offset: 0x8DB96, size: 0x8, addend: 0x0, symName: __RNvXsr_NtNtCsfB93IpvWVaK_3std2io5stdioNtB5_10StderrLockNtB7_5Write9write_all, symObjAddr: 0x4C43C, symBinAddr: 0x1000495C0, symSize: 0x58 }
  - { offset: 0x8DD61, size: 0x8, addend: 0x0, symName: __RNvXs0_NtNtCsfB93IpvWVaK_3std2io5stdioNtB5_9StderrRawNtB7_5Write14write_vectored, symObjAddr: 0x3EF70, symBinAddr: 0x10003C124, symSize: 0x14C }
  - { offset: 0x8DEF9, size: 0x8, addend: 0x0, symName: __RNvXs0_NtNtCsfB93IpvWVaK_3std2io5stdioNtB5_9StderrRawNtB7_5Write18write_all_vectored, symObjAddr: 0x3F0BC, symBinAddr: 0x10003C270, symSize: 0x4C }
  - { offset: 0x8DF8B, size: 0x8, addend: 0x0, symName: __RNvXs0_NtNtCsfB93IpvWVaK_3std2io5stdioNtB5_9StderrRawNtB7_5Write5flush, symObjAddr: 0x3F108, symBinAddr: 0x10003C2BC, symSize: 0x8 }
  - { offset: 0x8DFA4, size: 0x8, addend: 0x0, symName: __RNvXs0_NtNtCsfB93IpvWVaK_3std2io5stdioNtB5_9StderrRawNtB7_5Write5write, symObjAddr: 0x3F110, symBinAddr: 0x10003C2C4, symSize: 0x80 }
  - { offset: 0x8E082, size: 0x8, addend: 0x0, symName: __RNvXs0_NtNtCsfB93IpvWVaK_3std2io5stdioNtB5_9StderrRawNtB7_5Write9write_all, symObjAddr: 0x3F190, symBinAddr: 0x10003C344, symSize: 0x104 }
  - { offset: 0x8E200, size: 0x8, addend: 0x0, symName: __RNvXs0_NtNtCsfB93IpvWVaK_3std2io5stdioNtB5_9StderrRawNtB7_5Write9write_fmt, symObjAddr: 0x3F294, symBinAddr: 0x10003C448, symSize: 0xC0 }
  - { offset: 0x8E340, size: 0x8, addend: 0x0, symName: __RNvXs2_NtNtCsfB93IpvWVaK_3std2io5stdioNtB5_5StdinNtNtCs5FIOKSViJ8s_4core3fmt5Debug3fmt, symObjAddr: 0x415F0, symBinAddr: 0x10003E774, symSize: 0x38 }
  - { offset: 0x8E361, size: 0x8, addend: 0x0, symName: __RNvXs3_NtNtCsfB93IpvWVaK_3std2io5stdioNtB5_5StdinNtB7_4Read10read_exact, symObjAddr: 0x41C34, symBinAddr: 0x10003EDB8, symSize: 0xE8 }
  - { offset: 0x8E5D7, size: 0x8, addend: 0x0, symName: __RNvXs3_NtNtCsfB93IpvWVaK_3std2io5stdioNtB5_5StdinNtB7_4Read11read_to_end, symObjAddr: 0x41D1C, symBinAddr: 0x10003EEA0, symSize: 0xD8 }
  - { offset: 0x8E88E, size: 0x8, addend: 0x0, symName: __RNvXs3_NtNtCsfB93IpvWVaK_3std2io5stdioNtB5_5StdinNtB7_4Read13read_vectored, symObjAddr: 0x41DF4, symBinAddr: 0x10003EF78, symSize: 0xF0 }
  - { offset: 0x8EB04, size: 0x8, addend: 0x0, symName: __RNvXs3_NtNtCsfB93IpvWVaK_3std2io5stdioNtB5_5StdinNtB7_4Read14read_buf_exact, symObjAddr: 0x41EE4, symBinAddr: 0x10003F068, symSize: 0xD8 }
  - { offset: 0x8ED7A, size: 0x8, addend: 0x0, symName: __RNvXs3_NtNtCsfB93IpvWVaK_3std2io5stdioNtB5_5StdinNtB7_4Read14read_to_string, symObjAddr: 0x41FBC, symBinAddr: 0x10003F140, symSize: 0xE8 }
  - { offset: 0x8EFF0, size: 0x8, addend: 0x0, symName: __RNvXs3_NtNtCsfB93IpvWVaK_3std2io5stdioNtB5_5StdinNtB7_4Read4read, symObjAddr: 0x420A4, symBinAddr: 0x10003F228, symSize: 0xE0 }
  - { offset: 0x8F2A7, size: 0x8, addend: 0x0, symName: __RNvXs3_NtNtCsfB93IpvWVaK_3std2io5stdioNtB5_5StdinNtB7_4Read8read_buf, symObjAddr: 0x42184, symBinAddr: 0x10003F308, symSize: 0xC8 }
  - { offset: 0x8F58E, size: 0x8, addend: 0x0, symName: __RNvXs5_NtNtCsfB93IpvWVaK_3std2io5stdioNtB5_9StdinLockNtB7_4Read10read_exact, symObjAddr: 0x43CC0, symBinAddr: 0x100040E44, symSize: 0x13C }
  - { offset: 0x8F761, size: 0x8, addend: 0x0, symName: __RNvXs5_NtNtCsfB93IpvWVaK_3std2io5stdioNtB5_9StdinLockNtB7_4Read11read_to_end, symObjAddr: 0x43DFC, symBinAddr: 0x100040F80, symSize: 0xC }
  - { offset: 0x8F778, size: 0x8, addend: 0x0, symName: __RNvXs5_NtNtCsfB93IpvWVaK_3std2io5stdioNtB5_9StdinLockNtB7_4Read11read_to_end, symObjAddr: 0x43DFC, symBinAddr: 0x100040F80, symSize: 0xC }
  - { offset: 0x8F7A1, size: 0x8, addend: 0x0, symName: __RNvXs5_NtNtCsfB93IpvWVaK_3std2io5stdioNtB5_9StdinLockNtB7_4Read13read_vectored, symObjAddr: 0x43E08, symBinAddr: 0x100040F8C, symSize: 0x298 }
  - { offset: 0x8FC56, size: 0x8, addend: 0x0, symName: __RNvXs5_NtNtCsfB93IpvWVaK_3std2io5stdioNtB5_9StdinLockNtB7_4Read14read_buf_exact, symObjAddr: 0x440A0, symBinAddr: 0x100041224, symSize: 0x134 }
  - { offset: 0x8FF25, size: 0x8, addend: 0x0, symName: __RNvXs5_NtNtCsfB93IpvWVaK_3std2io5stdioNtB5_9StdinLockNtB7_4Read14read_to_string, symObjAddr: 0x441D4, symBinAddr: 0x100041358, symSize: 0x1C8 }
  - { offset: 0x90537, size: 0x8, addend: 0x0, symName: __RNvXs5_NtNtCsfB93IpvWVaK_3std2io5stdioNtB5_9StdinLockNtB7_4Read4read, symObjAddr: 0x4439C, symBinAddr: 0x100041520, symSize: 0xC }
  - { offset: 0x9054E, size: 0x8, addend: 0x0, symName: __RNvXs5_NtNtCsfB93IpvWVaK_3std2io5stdioNtB5_9StdinLockNtB7_4Read4read, symObjAddr: 0x4439C, symBinAddr: 0x100041520, symSize: 0xC }
  - { offset: 0x90576, size: 0x8, addend: 0x0, symName: __RNvXs5_NtNtCsfB93IpvWVaK_3std2io5stdioNtB5_9StdinLockNtB7_4Read8read_buf, symObjAddr: 0x443A8, symBinAddr: 0x10004152C, symSize: 0xC }
  - { offset: 0x9058D, size: 0x8, addend: 0x0, symName: __RNvXs5_NtNtCsfB93IpvWVaK_3std2io5stdioNtB5_9StdinLockNtB7_4Read8read_buf, symObjAddr: 0x443A8, symBinAddr: 0x10004152C, symSize: 0xC }
  - { offset: 0x905BC, size: 0x8, addend: 0x0, symName: __RNvXs4_NtNtCsfB93IpvWVaK_3std2io5stdioRNtB5_5StdinNtB7_4Read10read_exact, symObjAddr: 0x43480, symBinAddr: 0x100040604, symSize: 0xEC }
  - { offset: 0x90832, size: 0x8, addend: 0x0, symName: __RNvXs4_NtNtCsfB93IpvWVaK_3std2io5stdioRNtB5_5StdinNtB7_4Read11read_to_end, symObjAddr: 0x4356C, symBinAddr: 0x1000406F0, symSize: 0xDC }
  - { offset: 0x90AE9, size: 0x8, addend: 0x0, symName: __RNvXs4_NtNtCsfB93IpvWVaK_3std2io5stdioRNtB5_5StdinNtB7_4Read13read_vectored, symObjAddr: 0x43648, symBinAddr: 0x1000407CC, symSize: 0xF4 }
  - { offset: 0x90D5F, size: 0x8, addend: 0x0, symName: __RNvXs4_NtNtCsfB93IpvWVaK_3std2io5stdioRNtB5_5StdinNtB7_4Read14read_buf_exact, symObjAddr: 0x4373C, symBinAddr: 0x1000408C0, symSize: 0xDC }
  - { offset: 0x90FD5, size: 0x8, addend: 0x0, symName: __RNvXs4_NtNtCsfB93IpvWVaK_3std2io5stdioRNtB5_5StdinNtB7_4Read14read_to_string, symObjAddr: 0x43818, symBinAddr: 0x10004099C, symSize: 0xEC }
  - { offset: 0x9124B, size: 0x8, addend: 0x0, symName: __RNvXs4_NtNtCsfB93IpvWVaK_3std2io5stdioRNtB5_5StdinNtB7_4Read4read, symObjAddr: 0x43904, symBinAddr: 0x100040A88, symSize: 0xE4 }
  - { offset: 0x91502, size: 0x8, addend: 0x0, symName: __RNvXs4_NtNtCsfB93IpvWVaK_3std2io5stdioRNtB5_5StdinNtB7_4Read8read_buf, symObjAddr: 0x439E8, symBinAddr: 0x100040B6C, symSize: 0xCC }
  - { offset: 0x917BF, size: 0x8, addend: 0x0, symName: __RNvXs8_NtNtCsfB93IpvWVaK_3std2io5stdioNtB5_9StdinLockNtNtCs5FIOKSViJ8s_4core3fmt5Debug3fmt, symObjAddr: 0x45D04, symBinAddr: 0x100042E88, symSize: 0x38 }
  - { offset: 0x9182B, size: 0x8, addend: 0x0, symName: __RNvXsh_NtNtCsfB93IpvWVaK_3std2io5stdioNtB5_10StdoutLockNtB7_5Write14write_vectored, symObjAddr: 0x4A40C, symBinAddr: 0x100047590, symSize: 0x5C }
  - { offset: 0x919FD, size: 0x8, addend: 0x0, symName: __RNvXsh_NtNtCsfB93IpvWVaK_3std2io5stdioNtB5_10StdoutLockNtB7_5Write18write_all_vectored, symObjAddr: 0x4A468, symBinAddr: 0x1000475EC, symSize: 0x230 }
  - { offset: 0x91E07, size: 0x8, addend: 0x0, symName: __RNvXsh_NtNtCsfB93IpvWVaK_3std2io5stdioNtB5_10StdoutLockNtB7_5Write5flush, symObjAddr: 0x4A698, symBinAddr: 0x10004781C, symSize: 0x5C }
  - { offset: 0x91FEE, size: 0x8, addend: 0x0, symName: __RNvXsh_NtNtCsfB93IpvWVaK_3std2io5stdioNtB5_10StdoutLockNtB7_5Write5write, symObjAddr: 0x4A6F4, symBinAddr: 0x100047878, symSize: 0x278 }
  - { offset: 0x92711, size: 0x8, addend: 0x0, symName: __RNvXsh_NtNtCsfB93IpvWVaK_3std2io5stdioNtB5_10StdoutLockNtB7_5Write9write_all, symObjAddr: 0x4A96C, symBinAddr: 0x100047AF0, symSize: 0x198 }
  - { offset: 0x92D4C, size: 0x8, addend: 0x0, symName: __RNvXsc_NtNtCsfB93IpvWVaK_3std2io5stdioNtB5_6StdoutNtNtCs5FIOKSViJ8s_4core3fmt5Debug3fmt, symObjAddr: 0x4965C, symBinAddr: 0x1000467E0, symSize: 0x38 }
  - { offset: 0x92D97, size: 0x8, addend: 0x0, symName: __RNvXse_NtNtCsfB93IpvWVaK_3std2io5stdioRNtB5_6StdoutNtB7_5Write14write_vectored, symObjAddr: 0x49E94, symBinAddr: 0x100047018, symSize: 0xDC }
  - { offset: 0x9313E, size: 0x8, addend: 0x0, symName: __RNvXse_NtNtCsfB93IpvWVaK_3std2io5stdioRNtB5_6StdoutNtB7_5Write18write_all_vectored, symObjAddr: 0x49F70, symBinAddr: 0x1000470F4, symSize: 0xA0 }
  - { offset: 0x93329, size: 0x8, addend: 0x0, symName: __RNvXse_NtNtCsfB93IpvWVaK_3std2io5stdioRNtB5_6StdoutNtB7_5Write5flush, symObjAddr: 0x4A010, symBinAddr: 0x100047194, symSize: 0xBC }
  - { offset: 0x936E5, size: 0x8, addend: 0x0, symName: __RNvXse_NtNtCsfB93IpvWVaK_3std2io5stdioRNtB5_6StdoutNtB7_5Write5write, symObjAddr: 0x4A0CC, symBinAddr: 0x100047250, symSize: 0xA8 }
  - { offset: 0x938CF, size: 0x8, addend: 0x0, symName: __RNvXse_NtNtCsfB93IpvWVaK_3std2io5stdioRNtB5_6StdoutNtB7_5Write9write_all, symObjAddr: 0x4A174, symBinAddr: 0x1000472F8, symSize: 0xA0 }
  - { offset: 0x93ABA, size: 0x8, addend: 0x0, symName: __RNvXse_NtNtCsfB93IpvWVaK_3std2io5stdioRNtB5_6StdoutNtB7_5Write9write_fmt, symObjAddr: 0x4A214, symBinAddr: 0x100047398, symSize: 0x110 }
  - { offset: 0x93CF6, size: 0x8, addend: 0x0, symName: __RNvXsi_NtNtCsfB93IpvWVaK_3std2io5stdioNtB5_10StdoutLockNtNtCs5FIOKSViJ8s_4core3fmt5Debug3fmt, symObjAddr: 0x4AF60, symBinAddr: 0x1000480E4, symSize: 0x38 }
  - { offset: 0x93D17, size: 0x8, addend: 0x0, symName: __RNvXsm_NtNtCsfB93IpvWVaK_3std2io5stdioNtB5_6StderrNtNtCs5FIOKSViJ8s_4core3fmt5Debug3fmt, symObjAddr: 0x4B610, symBinAddr: 0x100048794, symSize: 0x38 }
  - { offset: 0x93D53, size: 0x8, addend: 0x0, symName: __RNvXso_NtNtCsfB93IpvWVaK_3std2io5stdioRNtB5_6StderrNtB7_5Write14write_vectored, symObjAddr: 0x4B874, symBinAddr: 0x1000489F8, symSize: 0xA8 }
  - { offset: 0x93F3E, size: 0x8, addend: 0x0, symName: __RNvXso_NtNtCsfB93IpvWVaK_3std2io5stdioRNtB5_6StderrNtB7_5Write18write_all_vectored, symObjAddr: 0x4B91C, symBinAddr: 0x100048AA0, symSize: 0x108 }
  - { offset: 0x9434E, size: 0x8, addend: 0x0, symName: __RNvXso_NtNtCsfB93IpvWVaK_3std2io5stdioRNtB5_6StderrNtB7_5Write5flush, symObjAddr: 0x4BA24, symBinAddr: 0x100048BA8, symSize: 0x88 }
  - { offset: 0x94596, size: 0x8, addend: 0x0, symName: __RNvXso_NtNtCsfB93IpvWVaK_3std2io5stdioRNtB5_6StderrNtB7_5Write5write, symObjAddr: 0x4BAAC, symBinAddr: 0x100048C30, symSize: 0x130 }
  - { offset: 0x94A13, size: 0x8, addend: 0x0, symName: __RNvXso_NtNtCsfB93IpvWVaK_3std2io5stdioRNtB5_6StderrNtB7_5Write9write_all, symObjAddr: 0x4BBDC, symBinAddr: 0x100048D60, symSize: 0xD0 }
  - { offset: 0x94D91, size: 0x8, addend: 0x0, symName: __RNvXso_NtNtCsfB93IpvWVaK_3std2io5stdioRNtB5_6StderrNtB7_5Write9write_fmt, symObjAddr: 0x4BCAC, symBinAddr: 0x100048E30, symSize: 0x110 }
  - { offset: 0x94FCD, size: 0x8, addend: 0x0, symName: __RNvXss_NtNtCsfB93IpvWVaK_3std2io5stdioNtB5_10StderrLockNtNtCs5FIOKSViJ8s_4core3fmt5Debug3fmt, symObjAddr: 0x4C4F4, symBinAddr: 0x100049678, symSize: 0x38 }
  - { offset: 0x95025, size: 0x8, addend: 0x0, symName: __RNvXs9_NtNtCsfB93IpvWVaK_3std2io5implsINtNtCs7QfUfi8dEu5_5alloc3vec3VechENtB7_5Write14write_vectoredB9_, symObjAddr: 0x45FA0, symBinAddr: 0x100043124, symSize: 0x19C }
  - { offset: 0x95273, size: 0x8, addend: 0x0, symName: __RNvXs9_NtNtCsfB93IpvWVaK_3std2io5implsINtNtCs7QfUfi8dEu5_5alloc3vec3VechENtB7_5Write17is_write_vectoredB9_, symObjAddr: 0x4613C, symBinAddr: 0x1000432C0, symSize: 0x8 }
  - { offset: 0x9529A, size: 0x8, addend: 0x0, symName: __RNvXs9_NtNtCsfB93IpvWVaK_3std2io5implsINtNtCs7QfUfi8dEu5_5alloc3vec3VechENtB7_5Write18write_all_vectoredB9_, symObjAddr: 0x46144, symBinAddr: 0x1000432C8, symSize: 0x18C }
  - { offset: 0x952B8, size: 0x8, addend: 0x0, symName: __RNvXs9_NtNtCsfB93IpvWVaK_3std2io5implsINtNtCs7QfUfi8dEu5_5alloc3vec3VechENtB7_5Write18write_all_vectoredB9_, symObjAddr: 0x46144, symBinAddr: 0x1000432C8, symSize: 0x18C }
  - { offset: 0x952CD, size: 0x8, addend: 0x0, symName: __RNvXs9_NtNtCsfB93IpvWVaK_3std2io5implsINtNtCs7QfUfi8dEu5_5alloc3vec3VechENtB7_5Write18write_all_vectoredB9_, symObjAddr: 0x46144, symBinAddr: 0x1000432C8, symSize: 0x18C }
  - { offset: 0x952E2, size: 0x8, addend: 0x0, symName: __RNvXs9_NtNtCsfB93IpvWVaK_3std2io5implsINtNtCs7QfUfi8dEu5_5alloc3vec3VechENtB7_5Write18write_all_vectoredB9_, symObjAddr: 0x46144, symBinAddr: 0x1000432C8, symSize: 0x18C }
  - { offset: 0x952F8, size: 0x8, addend: 0x0, symName: __RNvXs9_NtNtCsfB93IpvWVaK_3std2io5implsINtNtCs7QfUfi8dEu5_5alloc3vec3VechENtB7_5Write18write_all_vectoredB9_, symObjAddr: 0x46144, symBinAddr: 0x1000432C8, symSize: 0x18C }
  - { offset: 0x9530D, size: 0x8, addend: 0x0, symName: __RNvXs9_NtNtCsfB93IpvWVaK_3std2io5implsINtNtCs7QfUfi8dEu5_5alloc3vec3VechENtB7_5Write18write_all_vectoredB9_, symObjAddr: 0x46144, symBinAddr: 0x1000432C8, symSize: 0x18C }
  - { offset: 0x9553E, size: 0x8, addend: 0x0, symName: __RNvXs9_NtNtCsfB93IpvWVaK_3std2io5implsINtNtCs7QfUfi8dEu5_5alloc3vec3VechENtB7_5Write5flushB9_, symObjAddr: 0x462D0, symBinAddr: 0x100043454, symSize: 0x8 }
  - { offset: 0x95558, size: 0x8, addend: 0x0, symName: __RNvXs9_NtNtCsfB93IpvWVaK_3std2io5implsINtNtCs7QfUfi8dEu5_5alloc3vec3VechENtB7_5Write5writeB9_, symObjAddr: 0x462D8, symBinAddr: 0x10004345C, symSize: 0x88 }
  - { offset: 0x9569C, size: 0x8, addend: 0x0, symName: __RNvXs9_NtNtCsfB93IpvWVaK_3std2io5implsINtNtCs7QfUfi8dEu5_5alloc3vec3VechENtB7_5Write9write_allB9_, symObjAddr: 0x46360, symBinAddr: 0x1000434E4, symSize: 0x84 }
  - { offset: 0x95808, size: 0x8, addend: 0x0, symName: __RINvNtCsfB93IpvWVaK_3std2io10read_untilINtNtNtB2_8buffered9bufreader9BufReaderNtNtB2_5stdio8StdinRawEEB4_, symObjAddr: 0x7C28, symBinAddr: 0x100007568, symSize: 0x310 }
  - { offset: 0x95D49, size: 0x8, addend: 0x0, symName: __RINvNvNtCsfB93IpvWVaK_3std2io19default_read_to_end16small_probe_readNtNtB6_2fs4FileEB6_, symObjAddr: 0x12FD0, symBinAddr: 0x100012250, symSize: 0x12C }
  - { offset: 0x95F73, size: 0x8, addend: 0x0, symName: __RINvNvNtCsfB93IpvWVaK_3std2io19default_read_to_end16small_probe_readNtNtNtNtB6_3sys5stdio4unix5StdinEB6_, symObjAddr: 0x130FC, symBinAddr: 0x10001237C, symSize: 0x12C }
  - { offset: 0x96180, size: 0x8, addend: 0x0, symName: __RINvNvNtCsfB93IpvWVaK_3std2io19default_read_to_end16small_probe_readRNtNtB6_2fs4FileEB6_, symObjAddr: 0x13228, symBinAddr: 0x1000124A8, symSize: 0x130 }
  - { offset: 0x963B6, size: 0x8, addend: 0x0, symName: __RINvNvNtCsfB93IpvWVaK_3std2io19default_read_to_end16small_probe_readRNtNtNtNtB6_3sys2fd4unix8FileDescEB6_, symObjAddr: 0x13358, symBinAddr: 0x1000125D8, symSize: 0x130 }
  - { offset: 0x965DF, size: 0x8, addend: 0x0, symName: __RINvNtCsfB93IpvWVaK_3std2io19default_read_to_endNtNtB4_2fs4FileEB4_, symObjAddr: 0x7F38, symBinAddr: 0x100007878, symSize: 0x258 }
  - { offset: 0x96AB0, size: 0x8, addend: 0x0, symName: __RINvNtCsfB93IpvWVaK_3std2io19default_read_to_endNtNtNtNtB4_3sys5stdio4unix5StdinEB4_, symObjAddr: 0x8190, symBinAddr: 0x100007AD0, symSize: 0x234 }
  - { offset: 0x96F64, size: 0x8, addend: 0x0, symName: __RINvNtCsfB93IpvWVaK_3std2io19default_read_to_endRNtNtB4_2fs4FileEB4_, symObjAddr: 0x83C4, symBinAddr: 0x100007D04, symSize: 0x268 }
  - { offset: 0x97519, size: 0x8, addend: 0x0, symName: __RNvYINtNtCs7QfUfi8dEu5_5alloc3vec3VechENtNtCsfB93IpvWVaK_3std2io5Write9write_fmtBF_, symObjAddr: 0x4D2A0, symBinAddr: 0x10004A424, symSize: 0x9C }
  - { offset: 0x97563, size: 0x8, addend: 0x0, symName: __RNvYNtNtNtNtCsfB93IpvWVaK_3std3sys5stdio4unix6StderrNtNtBa_2io5Write18write_all_vectoredBa_, symObjAddr: 0x4DE9C, symBinAddr: 0x10004B020, symSize: 0x1B4 }
  - { offset: 0x977BB, size: 0x8, addend: 0x0, symName: __RNvYNtNtNtNtCsfB93IpvWVaK_3std3sys5stdio4unix6StderrNtNtBa_2io5Write9write_allBa_, symObjAddr: 0x4E050, symBinAddr: 0x10004B1D4, symSize: 0xE0 }
  - { offset: 0x978A8, size: 0x8, addend: 0x0, symName: __RNvYNtNtNtNtCsfB93IpvWVaK_3std3sys5stdio4unix6StderrNtNtBa_2io5Write9write_fmtBa_, symObjAddr: 0x4E130, symBinAddr: 0x10004B2B4, symSize: 0x9C }
  - { offset: 0x97A41, size: 0x8, addend: 0x0, symName: __RNvXNtCsfB93IpvWVaK_3std2ioNtB2_5GuardNtNtNtCs5FIOKSViJ8s_4core3ops4drop4Drop4drop, symObjAddr: 0x3CCA4, symBinAddr: 0x100039EB8, symSize: 0xC }
  - { offset: 0x97A71, size: 0x8, addend: 0x0, symName: __RNvMs2_NtCsfB93IpvWVaK_3std2ioNtB5_10IoSliceMut10into_slice, symObjAddr: 0x1F3B4, symBinAddr: 0x10001DAF4, symSize: 0x4 }
  - { offset: 0x97A97, size: 0x8, addend: 0x0, symName: __RNvMs2_NtNtCsfB93IpvWVaK_3std2io4pipeNtB5_10PipeReader9try_clone, symObjAddr: 0x1FB10, symBinAddr: 0x10001E250, symSize: 0x68 }
  - { offset: 0x97B85, size: 0x8, addend: 0x0, symName: __RNvXs4_NtNtCsfB93IpvWVaK_3std2io4pipeRNtB5_10PipeReaderNtB7_4Read11read_to_end, symObjAddr: 0x4334C, symBinAddr: 0x1000404D0, symSize: 0x8 }
  - { offset: 0x97B9F, size: 0x8, addend: 0x0, symName: __RNvXs4_NtNtCsfB93IpvWVaK_3std2io4pipeRNtB5_10PipeReaderNtB7_4Read13read_vectored, symObjAddr: 0x43354, symBinAddr: 0x1000404D8, symSize: 0x58 }
  - { offset: 0x97CA1, size: 0x8, addend: 0x0, symName: __RNvXs4_NtNtCsfB93IpvWVaK_3std2io4pipeRNtB5_10PipeReaderNtB7_4Read4read, symObjAddr: 0x433AC, symBinAddr: 0x100040530, symSize: 0x58 }
  - { offset: 0x97DA3, size: 0x8, addend: 0x0, symName: __RNvXs4_NtNtCsfB93IpvWVaK_3std2io4pipeRNtB5_10PipeReaderNtB7_4Read8read_buf, symObjAddr: 0x43404, symBinAddr: 0x100040588, symSize: 0x7C }
  - { offset: 0x97F47, size: 0x8, addend: 0x0, symName: __RNvXs5_NtNtCsfB93IpvWVaK_3std2io4pipeNtB5_10PipeReaderNtB7_4Read11read_to_end, symObjAddr: 0x43CBC, symBinAddr: 0x100040E40, symSize: 0x4 }
  - { offset: 0x97F67, size: 0x8, addend: 0x0, symName: __RNvXs7_NtNtCsfB93IpvWVaK_3std2io4pipeNtB5_10PipeWriterNtB7_5Write14write_vectored, symObjAddr: 0x455E0, symBinAddr: 0x100042764, symSize: 0x54 }
  - { offset: 0x9806E, size: 0x8, addend: 0x0, symName: __RNvXs7_NtNtCsfB93IpvWVaK_3std2io4pipeNtB5_10PipeWriterNtB7_5Write5write, symObjAddr: 0x45634, symBinAddr: 0x1000427B8, symSize: 0x54 }
  - { offset: 0x98208, size: 0x8, addend: 0x0, symName: __RNvXNvNtCsfB93IpvWVaK_3std2io17default_write_fmtINtB2_7AdapterINtNtB4_6cursor6CursorQShEENtNtCs5FIOKSViJ8s_4core3fmt5Write9write_strB6_, symObjAddr: 0x3E4A0, symBinAddr: 0x10003B684, symSize: 0xA0 }
  - { offset: 0x98328, size: 0x8, addend: 0x0, symName: __RNvXNvNtCsfB93IpvWVaK_3std2io17default_write_fmtINtB2_7AdapterINtNtCs7QfUfi8dEu5_5alloc3vec3VechEENtNtCs5FIOKSViJ8s_4core3fmt5Write9write_strB6_, symObjAddr: 0x3E540, symBinAddr: 0x10003B724, symSize: 0x84 }
  - { offset: 0x98473, size: 0x8, addend: 0x0, symName: __RNvXNvNtCsfB93IpvWVaK_3std2io17default_write_fmtINtB2_7AdapterNtNtB4_5stdio10StderrLockENtNtCs5FIOKSViJ8s_4core3fmt5Write9write_strB6_, symObjAddr: 0x3E5C4, symBinAddr: 0x10003B7A8, symSize: 0x94 }
  - { offset: 0x9863D, size: 0x8, addend: 0x0, symName: __RNvXNvNtCsfB93IpvWVaK_3std2io17default_write_fmtINtB2_7AdapterNtNtB4_5stdio10StdoutLockENtNtCs5FIOKSViJ8s_4core3fmt5Write9write_strB6_, symObjAddr: 0x3E658, symBinAddr: 0x10003B83C, symSize: 0x50 }
  - { offset: 0x98666, size: 0x8, addend: 0x0, symName: __RNvXNvNtCsfB93IpvWVaK_3std2io17default_write_fmtINtB2_7AdapterNtNtNtNtB6_3sys5stdio4unix6StderrENtNtCs5FIOKSViJ8s_4core3fmt5Write9write_strB6_, symObjAddr: 0x3E6A8, symBinAddr: 0x10003B88C, symSize: 0x100 }
  - { offset: 0x9877D, size: 0x8, addend: 0x0, symName: __RNvXNvNtCsfB93IpvWVaK_3std2io17default_write_fmtINtB2_7AdapterNtNtNtNtB6_3sys5stdio4unix6StdoutENtNtCs5FIOKSViJ8s_4core3fmt5Write9write_strB6_, symObjAddr: 0x3E7A8, symBinAddr: 0x10003B98C, symSize: 0x100 }
  - { offset: 0x988DD, size: 0x8, addend: 0x0, symName: __RNvXs1_NtCsfB93IpvWVaK_3std2ioNtB5_10IoSliceMutNtNtCs5FIOKSViJ8s_4core3fmt5Debug3fmt, symObjAddr: 0x3FC18, symBinAddr: 0x10003CD9C, symSize: 0x6C }
  - { offset: 0x9897C, size: 0x8, addend: 0x0, symName: __RNvXs4_NtNtCsfB93IpvWVaK_3std2io4copyINtNtCs7QfUfi8dEu5_5alloc3vec3VechENtB5_18BufferedWriterSpec11buffer_size, symObjAddr: 0x43330, symBinAddr: 0x1000404B4, symSize: 0x1C }
  - { offset: 0x9899B, size: 0x8, addend: 0x0, symName: __RNvXs4_NtNtCsfB93IpvWVaK_3std2io4copyINtNtCs7QfUfi8dEu5_5alloc3vec3VechENtB5_18BufferedWriterSpec11buffer_size, symObjAddr: 0x43330, symBinAddr: 0x1000404B4, symSize: 0x1C }
  - { offset: 0x989B1, size: 0x8, addend: 0x0, symName: __RNvXs4_NtNtCsfB93IpvWVaK_3std2io4copyINtNtCs7QfUfi8dEu5_5alloc3vec3VechENtB5_18BufferedWriterSpec11buffer_size, symObjAddr: 0x43330, symBinAddr: 0x1000404B4, symSize: 0x1C }
  - { offset: 0x989C6, size: 0x8, addend: 0x0, symName: __RNvXs4_NtNtCsfB93IpvWVaK_3std2io4copyINtNtCs7QfUfi8dEu5_5alloc3vec3VechENtB5_18BufferedWriterSpec11buffer_size, symObjAddr: 0x43330, symBinAddr: 0x1000404B4, symSize: 0x1C }
  - { offset: 0x98A63, size: 0x8, addend: 0x0, symName: __RNvXs6_NtNtCsfB93IpvWVaK_3std2io4utilNtB5_6RepeatNtNtCs5FIOKSViJ8s_4core3fmt5Debug3fmt, symObjAddr: 0x44568, symBinAddr: 0x1000416EC, symSize: 0x38 }
  - { offset: 0x98B2D, size: 0x8, addend: 0x0, symName: __RINvMsr_NtCsfB93IpvWVaK_3std4pathNtB6_7PathBuf4pushRNtB6_9ComponentEB8_, symObjAddr: 0x4D84, symBinAddr: 0x100004774, symSize: 0x1AC }
  - { offset: 0x98F6C, size: 0x8, addend: 0x0, symName: __RNvMsr_NtCsfB93IpvWVaK_3std4pathNtB5_7PathBuf14__add_extension, symObjAddr: 0x2EA98, symBinAddr: 0x10002C98C, symSize: 0x288 }
  - { offset: 0x9949F, size: 0x8, addend: 0x0, symName: __RNvMsr_NtCsfB93IpvWVaK_3std4pathNtB5_7PathBuf14__set_extension, symObjAddr: 0x2ED20, symBinAddr: 0x10002CC14, symSize: 0x318 }
  - { offset: 0x99BB9, size: 0x8, addend: 0x0, symName: __RNvMsr_NtCsfB93IpvWVaK_3std4pathNtB5_7PathBuf14__set_file_name, symObjAddr: 0x2F038, symBinAddr: 0x10002CF2C, symSize: 0x16C }
  - { offset: 0x9A113, size: 0x8, addend: 0x0, symName: __RNvMsr_NtCsfB93IpvWVaK_3std4pathNtB5_7PathBuf16pop_trailing_sep, symObjAddr: 0x2F1A4, symBinAddr: 0x10002D098, symSize: 0x130 }
  - { offset: 0x9A34F, size: 0x8, addend: 0x0, symName: __RNvMsr_NtCsfB93IpvWVaK_3std4pathNtB5_7PathBuf16set_trailing_sep, symObjAddr: 0x2F2D4, symBinAddr: 0x10002D1C8, symSize: 0x80 }
  - { offset: 0x9A5CE, size: 0x8, addend: 0x0, symName: __RNvMsr_NtCsfB93IpvWVaK_3std4pathNtB5_7PathBuf17push_trailing_sep, symObjAddr: 0x2F354, symBinAddr: 0x10002D248, symSize: 0x78 }
  - { offset: 0x9A839, size: 0x8, addend: 0x0, symName: __RNvMsr_NtCsfB93IpvWVaK_3std4pathNtB5_7PathBuf3pop, symObjAddr: 0x2F3CC, symBinAddr: 0x10002D2C0, symSize: 0xE4 }
  - { offset: 0x9AA59, size: 0x8, addend: 0x0, symName: __RNvMsr_NtCsfB93IpvWVaK_3std4pathNtB5_7PathBuf5__push, symObjAddr: 0x2F4B0, symBinAddr: 0x10002D3A4, symSize: 0x120 }
  - { offset: 0x9AEB5, size: 0x8, addend: 0x0, symName: __RNvMs16_NtCsfB93IpvWVaK_3std4pathNtB6_4Path10__ends_with, symObjAddr: 0x1C280, symBinAddr: 0x10001AD38, symSize: 0x174 }
  - { offset: 0x9B028, size: 0x8, addend: 0x0, symName: __RNvMs16_NtCsfB93IpvWVaK_3std4pathNtB6_4Path10components, symObjAddr: 0x1C3F4, symBinAddr: 0x10001AEAC, symSize: 0x34 }
  - { offset: 0x9B03F, size: 0x8, addend: 0x0, symName: __RNvMs16_NtCsfB93IpvWVaK_3std4pathNtB6_4Path10components, symObjAddr: 0x1C3F4, symBinAddr: 0x10001AEAC, symSize: 0x34 }
  - { offset: 0x9B068, size: 0x8, addend: 0x0, symName: __RNvMs16_NtCsfB93IpvWVaK_3std4pathNtB6_4Path10is_symlink, symObjAddr: 0x1C428, symBinAddr: 0x10001AEE0, symSize: 0x164 }
  - { offset: 0x9B2AF, size: 0x8, addend: 0x0, symName: __RNvMs16_NtCsfB93IpvWVaK_3std4pathNtB6_4Path11file_prefix, symObjAddr: 0x1C58C, symBinAddr: 0x10001B044, symSize: 0x13C }
  - { offset: 0x9B4AA, size: 0x8, addend: 0x0, symName: __RNvMs16_NtCsfB93IpvWVaK_3std4pathNtB6_4Path11is_absolute, symObjAddr: 0x1C6C8, symBinAddr: 0x10001B180, symSize: 0x1C }
  - { offset: 0x9B4C1, size: 0x8, addend: 0x0, symName: __RNvMs16_NtCsfB93IpvWVaK_3std4pathNtB6_4Path11is_absolute, symObjAddr: 0x1C6C8, symBinAddr: 0x10001B180, symSize: 0x1C }
  - { offset: 0x9B4D6, size: 0x8, addend: 0x0, symName: __RNvMs16_NtCsfB93IpvWVaK_3std4pathNtB6_4Path11is_absolute, symObjAddr: 0x1C6C8, symBinAddr: 0x10001B180, symSize: 0x1C }
  - { offset: 0x9B4EA, size: 0x8, addend: 0x0, symName: __RNvMs16_NtCsfB93IpvWVaK_3std4pathNtB6_4Path11is_absolute, symObjAddr: 0x1C6C8, symBinAddr: 0x10001B180, symSize: 0x1C }
  - { offset: 0x9B4FF, size: 0x8, addend: 0x0, symName: __RNvMs16_NtCsfB93IpvWVaK_3std4pathNtB6_4Path11is_absolute, symObjAddr: 0x1C6C8, symBinAddr: 0x10001B180, symSize: 0x1C }
  - { offset: 0x9B52A, size: 0x8, addend: 0x0, symName: __RNvMs16_NtCsfB93IpvWVaK_3std4pathNtB6_4Path11to_path_buf, symObjAddr: 0x1C6E4, symBinAddr: 0x10001B19C, symSize: 0x70 }
  - { offset: 0x9B65A, size: 0x8, addend: 0x0, symName: __RNvMs16_NtCsfB93IpvWVaK_3std4pathNtB6_4Path12__starts_with, symObjAddr: 0x1C754, symBinAddr: 0x10001B20C, symSize: 0x174 }
  - { offset: 0x9B763, size: 0x8, addend: 0x0, symName: __RNvMs16_NtCsfB93IpvWVaK_3std4pathNtB6_4Path13__strip_prefix, symObjAddr: 0x1C8C8, symBinAddr: 0x10001B380, symSize: 0x1FC }
  - { offset: 0x9B882, size: 0x8, addend: 0x0, symName: __RNvMs16_NtCsfB93IpvWVaK_3std4pathNtB6_4Path13into_path_buf, symObjAddr: 0x1CAC4, symBinAddr: 0x10001B57C, symSize: 0xC }
  - { offset: 0x9B8AB, size: 0x8, addend: 0x0, symName: __RNvMs16_NtCsfB93IpvWVaK_3std4pathNtB6_4Path15__with_extension, symObjAddr: 0x1CAD0, symBinAddr: 0x10001B588, symSize: 0x210 }
  - { offset: 0x9BD67, size: 0x8, addend: 0x0, symName: __RNvMs16_NtCsfB93IpvWVaK_3std4pathNtB6_4Path15__with_file_name, symObjAddr: 0x1CCE0, symBinAddr: 0x10001B798, symSize: 0xC8 }
  - { offset: 0x9BFAB, size: 0x8, addend: 0x0, symName: __RNvMs16_NtCsfB93IpvWVaK_3std4pathNtB6_4Path19normalize_lexically, symObjAddr: 0x1CDA8, symBinAddr: 0x10001B860, symSize: 0x400 }
  - { offset: 0x9CA1C, size: 0x8, addend: 0x0, symName: __RNvMs16_NtCsfB93IpvWVaK_3std4pathNtB6_4Path5__join, symObjAddr: 0x1D1A8, symBinAddr: 0x10001BC60, symSize: 0x178 }
  - { offset: 0x9CEDC, size: 0x8, addend: 0x0, symName: __RNvMs16_NtCsfB93IpvWVaK_3std4pathNtB6_4Path6is_dir, symObjAddr: 0x1D320, symBinAddr: 0x10001BDD8, symSize: 0x164 }
  - { offset: 0x9D114, size: 0x8, addend: 0x0, symName: __RNvMs16_NtCsfB93IpvWVaK_3std4pathNtB6_4Path6parent, symObjAddr: 0x1D484, symBinAddr: 0x10001BF3C, symSize: 0x74 }
  - { offset: 0x9D12B, size: 0x8, addend: 0x0, symName: __RNvMs16_NtCsfB93IpvWVaK_3std4pathNtB6_4Path6parent, symObjAddr: 0x1D484, symBinAddr: 0x10001BF3C, symSize: 0x74 }
  - { offset: 0x9D140, size: 0x8, addend: 0x0, symName: __RNvMs16_NtCsfB93IpvWVaK_3std4pathNtB6_4Path6parent, symObjAddr: 0x1D484, symBinAddr: 0x10001BF3C, symSize: 0x74 }
  - { offset: 0x9D195, size: 0x8, addend: 0x0, symName: __RNvMs16_NtCsfB93IpvWVaK_3std4pathNtB6_4Path7is_file, symObjAddr: 0x1D4F8, symBinAddr: 0x10001BFB0, symSize: 0x164 }
  - { offset: 0x9D3CD, size: 0x8, addend: 0x0, symName: __RNvMs16_NtCsfB93IpvWVaK_3std4pathNtB6_4Path9extension, symObjAddr: 0x1D65C, symBinAddr: 0x10001C114, symSize: 0xC0 }
  - { offset: 0x9D3E4, size: 0x8, addend: 0x0, symName: __RNvMs16_NtCsfB93IpvWVaK_3std4pathNtB6_4Path9extension, symObjAddr: 0x1D65C, symBinAddr: 0x10001C114, symSize: 0xC0 }
  - { offset: 0x9D3F9, size: 0x8, addend: 0x0, symName: __RNvMs16_NtCsfB93IpvWVaK_3std4pathNtB6_4Path9extension, symObjAddr: 0x1D65C, symBinAddr: 0x10001C114, symSize: 0xC0 }
  - { offset: 0x9D40E, size: 0x8, addend: 0x0, symName: __RNvMs16_NtCsfB93IpvWVaK_3std4pathNtB6_4Path9extension, symObjAddr: 0x1D65C, symBinAddr: 0x10001C114, symSize: 0xC0 }
  - { offset: 0x9D5E5, size: 0x8, addend: 0x0, symName: __RNvMs16_NtCsfB93IpvWVaK_3std4pathNtB6_4Path9file_name, symObjAddr: 0x1D71C, symBinAddr: 0x10001C1D4, symSize: 0x64 }
  - { offset: 0x9D5FC, size: 0x8, addend: 0x0, symName: __RNvMs16_NtCsfB93IpvWVaK_3std4pathNtB6_4Path9file_name, symObjAddr: 0x1D71C, symBinAddr: 0x10001C1D4, symSize: 0x64 }
  - { offset: 0x9D611, size: 0x8, addend: 0x0, symName: __RNvMs16_NtCsfB93IpvWVaK_3std4pathNtB6_4Path9file_name, symObjAddr: 0x1D71C, symBinAddr: 0x10001C1D4, symSize: 0x64 }
  - { offset: 0x9D64F, size: 0x8, addend: 0x0, symName: __RNvMs16_NtCsfB93IpvWVaK_3std4pathNtB6_4Path9file_stem, symObjAddr: 0x1D780, symBinAddr: 0x10001C238, symSize: 0xF0 }
  - { offset: 0x9D666, size: 0x8, addend: 0x0, symName: __RNvMs16_NtCsfB93IpvWVaK_3std4pathNtB6_4Path9file_stem, symObjAddr: 0x1D780, symBinAddr: 0x10001C238, symSize: 0xF0 }
  - { offset: 0x9D67B, size: 0x8, addend: 0x0, symName: __RNvMs16_NtCsfB93IpvWVaK_3std4pathNtB6_4Path9file_stem, symObjAddr: 0x1D780, symBinAddr: 0x10001C238, symSize: 0xF0 }
  - { offset: 0x9D690, size: 0x8, addend: 0x0, symName: __RNvMs16_NtCsfB93IpvWVaK_3std4pathNtB6_4Path9file_stem, symObjAddr: 0x1D780, symBinAddr: 0x10001C238, symSize: 0xF0 }
  - { offset: 0x9DB8F, size: 0x8, addend: 0x0, symName: __RNvMs8_NtCsfB93IpvWVaK_3std4pathNtB5_10Components25parse_next_component_back, symObjAddr: 0x22D80, symBinAddr: 0x100020E00, symSize: 0x160 }
  - { offset: 0x9DCE3, size: 0x8, addend: 0x0, symName: __RNvMs8_NtCsfB93IpvWVaK_3std4pathNtB5_10Components7as_path, symObjAddr: 0x22EE0, symBinAddr: 0x100020F60, symSize: 0x220 }
  - { offset: 0x9DF3E, size: 0x8, addend: 0x0, symName: __RNvNtCsfB93IpvWVaK_3std4path18compare_components, symObjAddr: 0x31190, symBinAddr: 0x10002F084, symSize: 0x2FC }
  - { offset: 0x9E2B2, size: 0x8, addend: 0x0, symName: __RNvXs1b_NtCsfB93IpvWVaK_3std4pathNtB6_7DisplayNtNtCs5FIOKSViJ8s_4core3fmt7Display3fmt, symObjAddr: 0x404F8, symBinAddr: 0x10003D67C, symSize: 0x10 }
  - { offset: 0x9E33B, size: 0x8, addend: 0x0, symName: __RNvXNvXs7_NtCsfB93IpvWVaK_3std4pathNtB8_10ComponentsNtNtCs5FIOKSViJ8s_4core3fmt5Debug3fmtNtB2_11DebugHelperBO_3fmt, symObjAddr: 0x3E97C, symBinAddr: 0x10003BB30, symSize: 0xD4 }
  - { offset: 0x9E3AF, size: 0x8, addend: 0x0, symName: __RNvXs7_NtCsfB93IpvWVaK_3std4pathNtB5_10ComponentsNtNtCs5FIOKSViJ8s_4core3fmt5Debug3fmt, symObjAddr: 0x45508, symBinAddr: 0x10004268C, symSize: 0x64 }
  - { offset: 0x9E3ED, size: 0x8, addend: 0x0, symName: __RNvXNvXsb_NtCsfB93IpvWVaK_3std4pathNtB8_4IterNtNtCs5FIOKSViJ8s_4core3fmt5Debug3fmtNtB2_11DebugHelperBH_3fmt, symObjAddr: 0x3EA50, symBinAddr: 0x10003BC04, symSize: 0x130 }
  - { offset: 0x9E4A7, size: 0x8, addend: 0x0, symName: __RNvXsb_NtCsfB93IpvWVaK_3std4pathNtB5_4IterNtNtCs5FIOKSViJ8s_4core3fmt5Debug3fmt, symObjAddr: 0x492FC, symBinAddr: 0x100046480, symSize: 0x64 }
  - { offset: 0x9E4DD, size: 0x8, addend: 0x0, symName: __RNvXs19_NtCsfB93IpvWVaK_3std4pathNtB6_4PathNtNtCs5FIOKSViJ8s_4core3fmt5Debug3fmt, symObjAddr: 0x3FA78, symBinAddr: 0x10003CBFC, symSize: 0x28 }
  - { offset: 0x9E56A, size: 0x8, addend: 0x0, symName: __RNvXs1Y_NtCsfB93IpvWVaK_3std4pathNtB6_9ComponentNtNtCs5FIOKSViJ8s_4core3cmp9PartialEq2eq, symObjAddr: 0x3FB14, symBinAddr: 0x10003CC98, symSize: 0x104 }
  - { offset: 0x9E629, size: 0x8, addend: 0x0, symName: __RNvXs1a_NtCsfB93IpvWVaK_3std4pathNtB6_7DisplayNtNtCs5FIOKSViJ8s_4core3fmt5Debug3fmt, symObjAddr: 0x404D0, symBinAddr: 0x10003D654, symSize: 0x28 }
  - { offset: 0x9E6DC, size: 0x8, addend: 0x0, symName: __RNvXs1u_NtCsfB93IpvWVaK_3std4pathNtB6_16StripPrefixErrorNtNtCs5FIOKSViJ8s_4core3fmt7Display3fmt, symObjAddr: 0x41134, symBinAddr: 0x10003E2B8, symSize: 0x14 }
  - { offset: 0x9E6FD, size: 0x8, addend: 0x0, symName: __RNvXs1w_NtCsfB93IpvWVaK_3std4pathNtB6_14NormalizeErrorNtNtCs5FIOKSViJ8s_4core3fmt7Display3fmt, symObjAddr: 0x41148, symBinAddr: 0x10003E2CC, symSize: 0x14 }
  - { offset: 0x9E71D, size: 0x8, addend: 0x0, symName: __RNvXs23_NtCsfB93IpvWVaK_3std4pathNtB6_9ComponentNtNtCs5FIOKSViJ8s_4core3fmt5Debug3fmt, symObjAddr: 0x412A8, symBinAddr: 0x10003E42C, symSize: 0xCC }
  - { offset: 0x9E751, size: 0x8, addend: 0x0, symName: __RNvXsi_NtCsfB93IpvWVaK_3std4pathNtB5_10ComponentsNtNtNtNtCs5FIOKSViJ8s_4core4iter6traits8iterator8Iterator4next, symObjAddr: 0x4AC24, symBinAddr: 0x100047DA8, symSize: 0x304 }
  - { offset: 0x9E84F, size: 0x8, addend: 0x0, symName: __RNvXsj_NtCsfB93IpvWVaK_3std4pathNtB5_10ComponentsNtNtNtNtCs5FIOKSViJ8s_4core4iter6traits12double_ended19DoubleEndedIterator9next_back, symObjAddr: 0x4AFFC, symBinAddr: 0x100048180, symSize: 0x3DC }
  - { offset: 0x9E9AC, size: 0x8, addend: 0x0, symName: __RNvXst_NtCsfB93IpvWVaK_3std4pathINtNtCs7QfUfi8dEu5_5alloc5boxed3BoxNtB5_4PathEINtNtCs5FIOKSViJ8s_4core7convert4FromRB13_E4from, symObjAddr: 0x4C55C, symBinAddr: 0x1000496E0, symSize: 0x6C }
  - { offset: 0x9EC52, size: 0x8, addend: 0x0, symName: __RNvMs0_NtNtCsfB93IpvWVaK_3std3ffi6os_strNtB5_8OsString17into_boxed_os_str, symObjAddr: 0x1A848, symBinAddr: 0x100019300, symSize: 0x98 }
  - { offset: 0x9EF6B, size: 0x8, addend: 0x0, symName: __RNvMsl_NtNtCsfB93IpvWVaK_3std3ffi6os_strNtB5_5OsStr18to_ascii_lowercase, symObjAddr: 0x2E280, symBinAddr: 0x10002C174, symSize: 0x178 }
  - { offset: 0x9F0D4, size: 0x8, addend: 0x0, symName: __RNvMsl_NtNtCsfB93IpvWVaK_3std3ffi6os_strNtB5_5OsStr18to_ascii_uppercase, symObjAddr: 0x2E3F8, symBinAddr: 0x10002C2EC, symSize: 0x178 }
  - { offset: 0x9F452, size: 0x8, addend: 0x0, symName: __RNvXsQ_NtNtCsfB93IpvWVaK_3std3ffi6os_strNtB5_7DisplayNtNtCs5FIOKSViJ8s_4core3fmt7Display3fmt, symObjAddr: 0x46890, symBinAddr: 0x100043A14, symSize: 0x10 }
  - { offset: 0x9F4A3, size: 0x8, addend: 0x0, symName: __RNvXsP_NtNtCsfB93IpvWVaK_3std3ffi6os_strNtB5_7DisplayNtNtCs5FIOKSViJ8s_4core3fmt5Debug3fmt, symObjAddr: 0x46850, symBinAddr: 0x1000439D4, symSize: 0x28 }
  - { offset: 0x9F528, size: 0x8, addend: 0x0, symName: __RNvXsD_NtNtCsfB93IpvWVaK_3std3ffi6os_strReINtNtCs5FIOKSViJ8s_4core7convert7TryFromRNtB5_5OsStrE8try_from, symObjAddr: 0x46754, symBinAddr: 0x1000438D8, symSize: 0x4 }
  - { offset: 0x9F546, size: 0x8, addend: 0x0, symName: __RNvXsD_NtNtCsfB93IpvWVaK_3std3ffi6os_strReINtNtCs5FIOKSViJ8s_4core7convert7TryFromRNtB5_5OsStrE8try_from, symObjAddr: 0x46754, symBinAddr: 0x1000438D8, symSize: 0x4 }
  - { offset: 0x9F55F, size: 0x8, addend: 0x0, symName: __RNvXsk_NtNtCsfB93IpvWVaK_3std3ffi6os_strNtB5_8OsStringNtNtCs5FIOKSViJ8s_4core3fmt5Write9write_str, symObjAddr: 0x4B414, symBinAddr: 0x100048598, symSize: 0x84 }
  - { offset: 0x9F847, size: 0x8, addend: 0x0, symName: __RNvMs0_NtNtNtCsfB93IpvWVaK_3std2os2fd5ownedNtB5_10BorrowedFd18try_clone_to_owned, symObjAddr: 0x1AA44, symBinAddr: 0x1000194FC, symSize: 0x68 }
  - { offset: 0x9F8F9, size: 0x8, addend: 0x0, symName: __RNvMs_NtNtNtCsfB93IpvWVaK_3std2os2fd5ownedNtB4_7OwnedFd9try_clone, symObjAddr: 0x27C94, symBinAddr: 0x100025B88, symSize: 0x68 }
  - { offset: 0x9FA26, size: 0x8, addend: 0x0, symName: __RNvXs6_NtNtNtCsfB93IpvWVaK_3std2os2fd5ownedNtB5_10BorrowedFdNtNtCs5FIOKSViJ8s_4core3fmt5Debug3fmt, symObjAddr: 0x44A38, symBinAddr: 0x100041BBC, symSize: 0x64 }
  - { offset: 0x9FA4C, size: 0x8, addend: 0x0, symName: __RNvXs7_NtNtNtCsfB93IpvWVaK_3std2os2fd5ownedNtB5_7OwnedFdNtNtCs5FIOKSViJ8s_4core3fmt5Debug3fmt, symObjAddr: 0x459F0, symBinAddr: 0x100042B74, symSize: 0x64 }
  - { offset: 0x9FAA7, size: 0x8, addend: 0x0, symName: __RNvMNtNtNtNtCsfB93IpvWVaK_3std2os4unix3net4addrNtB2_10SocketAddr10is_unnamed, symObjAddr: 0x18930, symBinAddr: 0x1000177A8, symSize: 0x44 }
  - { offset: 0x9FB0E, size: 0x8, addend: 0x0, symName: __RNvMNtNtNtNtCsfB93IpvWVaK_3std2os4unix3net4addrNtB2_10SocketAddr11as_pathname, symObjAddr: 0x18974, symBinAddr: 0x1000177EC, symSize: 0x48 }
  - { offset: 0x9FBCA, size: 0x8, addend: 0x0, symName: __RNvNtNtNtNtCsfB93IpvWVaK_3std2os4unix3net4addr11sockaddr_un, symObjAddr: 0x39998, symBinAddr: 0x100036C6C, symSize: 0x134 }
  - { offset: 0x9FCB9, size: 0x8, addend: 0x0, symName: __RNvXs0_NtNtNtNtCsfB93IpvWVaK_3std2os4unix3net4addrNtB5_10SocketAddrNtNtCs5FIOKSViJ8s_4core3fmt5Debug3fmt, symObjAddr: 0x3F5D4, symBinAddr: 0x10003C788, symSize: 0x98 }
  - { offset: 0x9FD83, size: 0x8, addend: 0x0, symName: __RNvMs0_NtNtNtNtCsfB93IpvWVaK_3std2os4unix3net6streamNtB5_10UnixStream10local_addr, symObjAddr: 0x1AD04, symBinAddr: 0x1000197BC, symSize: 0xE4 }
  - { offset: 0x9FEC2, size: 0x8, addend: 0x0, symName: __RNvMs0_NtNtNtNtCsfB93IpvWVaK_3std2os4unix3net6streamNtB5_10UnixStream12connect_addr, symObjAddr: 0x1ADE8, symBinAddr: 0x1000198A0, symSize: 0xB4 }
  - { offset: 0x9FFCB, size: 0x8, addend: 0x0, symName: __RNvMs0_NtNtNtNtCsfB93IpvWVaK_3std2os4unix3net6streamNtB5_10UnixStream12read_timeout, symObjAddr: 0x1AE9C, symBinAddr: 0x100019954, symSize: 0xE0 }
  - { offset: 0xA00DC, size: 0x8, addend: 0x0, symName: __RNvMs0_NtNtNtNtCsfB93IpvWVaK_3std2os4unix3net6streamNtB5_10UnixStream13write_timeout, symObjAddr: 0x1AF7C, symBinAddr: 0x100019A34, symSize: 0xE0 }
  - { offset: 0xA01ED, size: 0x8, addend: 0x0, symName: __RNvMs0_NtNtNtNtCsfB93IpvWVaK_3std2os4unix3net6streamNtB5_10UnixStream4pair, symObjAddr: 0x1B05C, symBinAddr: 0x100019B14, symSize: 0x5C }
  - { offset: 0xA0228, size: 0x8, addend: 0x0, symName: __RNvMs0_NtNtNtNtCsfB93IpvWVaK_3std2os4unix3net6streamNtB5_10UnixStream9peer_addr, symObjAddr: 0x1B0B8, symBinAddr: 0x100019B70, symSize: 0xE4 }
  - { offset: 0xA0367, size: 0x8, addend: 0x0, symName: __RNvMs0_NtNtNtNtCsfB93IpvWVaK_3std2os4unix3net6streamNtB5_10UnixStream9peer_cred, symObjAddr: 0x1B19C, symBinAddr: 0x100019C54, symSize: 0xD0 }
  - { offset: 0xA0443, size: 0x8, addend: 0x0, symName: __RNvMs0_NtNtNtNtCsfB93IpvWVaK_3std2os4unix3net6streamNtB5_10UnixStream9try_clone, symObjAddr: 0x1B26C, symBinAddr: 0x100019D24, symSize: 0x68 }
  - { offset: 0xA054B, size: 0x8, addend: 0x0, symName: __RNvXs2_NtNtNtNtCsfB93IpvWVaK_3std2os4unix3net6streamRNtB5_10UnixStreamNtNtBd_2io4Read8read_buf, symObjAddr: 0x4194C, symBinAddr: 0x10003EAD0, symSize: 0x74 }
  - { offset: 0xA06B0, size: 0x8, addend: 0x0, symName: __RNvXs1_NtNtNtNtCsfB93IpvWVaK_3std2os4unix3net6streamNtB5_10UnixStreamNtNtBd_2io4Read13read_vectored, symObjAddr: 0x40360, symBinAddr: 0x10003D4E4, symSize: 0x54 }
  - { offset: 0xA07B6, size: 0x8, addend: 0x0, symName: __RNvXs1_NtNtNtNtCsfB93IpvWVaK_3std2os4unix3net6streamNtB5_10UnixStreamNtNtBd_2io4Read4read, symObjAddr: 0x403B4, symBinAddr: 0x10003D538, symSize: 0x44 }
  - { offset: 0xA087F, size: 0x8, addend: 0x0, symName: __RNvXs1_NtNtNtNtCsfB93IpvWVaK_3std2os4unix3net6streamNtB5_10UnixStreamNtNtBd_2io4Read8read_buf, symObjAddr: 0x403F8, symBinAddr: 0x10003D57C, symSize: 0x70 }
  - { offset: 0xA0A23, size: 0x8, addend: 0x0, symName: __RNvXs3_NtNtNtNtCsfB93IpvWVaK_3std2os4unix3net6streamNtB5_10UnixStreamNtNtBd_2io5Write14write_vectored, symObjAddr: 0x42A64, symBinAddr: 0x10003FBE8, symSize: 0x54 }
  - { offset: 0xA0B2B, size: 0x8, addend: 0x0, symName: __RNvXs3_NtNtNtNtCsfB93IpvWVaK_3std2os4unix3net6streamNtB5_10UnixStreamNtNtBd_2io5Write5write, symObjAddr: 0x42AB8, symBinAddr: 0x10003FC3C, symSize: 0x4C }
  - { offset: 0xA0BF8, size: 0x8, addend: 0x0, symName: __RNvXs_NtNtNtNtCsfB93IpvWVaK_3std2os4unix3net6streamNtB4_10UnixStreamNtNtCs5FIOKSViJ8s_4core3fmt5Debug3fmt, symObjAddr: 0x48290, symBinAddr: 0x100045414, symSize: 0x2A0 }
  - { offset: 0xA0F12, size: 0x8, addend: 0x0, symName: __RNvMs0_NtNtNtNtCsfB93IpvWVaK_3std2os4unix3net8datagramNtB5_12UnixDatagram12connect_addr, symObjAddr: 0x1B2D4, symBinAddr: 0x100019D8C, symSize: 0x3C }
  - { offset: 0xA0FD7, size: 0x8, addend: 0x0, symName: __RNvMs0_NtNtNtNtCsfB93IpvWVaK_3std2os4unix3net8datagramNtB5_12UnixDatagram12send_to_addr, symObjAddr: 0x1B310, symBinAddr: 0x100019DC8, symSize: 0x54 }
  - { offset: 0xA10B3, size: 0x8, addend: 0x0, symName: __RNvMs0_NtNtNtNtCsfB93IpvWVaK_3std2os4unix3net8datagramNtB5_12UnixDatagram4pair, symObjAddr: 0x1B364, symBinAddr: 0x100019E1C, symSize: 0x5C }
  - { offset: 0xA10EF, size: 0x8, addend: 0x0, symName: __RNvMs0_NtNtNtNtCsfB93IpvWVaK_3std2os4unix3net8datagramNtB5_12UnixDatagram4send, symObjAddr: 0x1B3C0, symBinAddr: 0x100019E78, symSize: 0x54 }
  - { offset: 0xA11E0, size: 0x8, addend: 0x0, symName: __RNvMs0_NtNtNtNtCsfB93IpvWVaK_3std2os4unix3net8datagramNtB5_12UnixDatagram7unbound, symObjAddr: 0x1B414, symBinAddr: 0x100019ECC, symSize: 0x60 }
  - { offset: 0xA1223, size: 0x8, addend: 0x0, symName: __RNvMs0_NtNtNtNtCsfB93IpvWVaK_3std2os4unix3net8datagramNtB5_12UnixDatagram9bind_addr, symObjAddr: 0x1B474, symBinAddr: 0x100019F2C, symSize: 0xB4 }
  - { offset: 0xA135C, size: 0x8, addend: 0x0, symName: __RNvMs0_NtNtNtNtCsfB93IpvWVaK_3std2os4unix3net8datagramNtB5_12UnixDatagram9peek_from, symObjAddr: 0x1B528, symBinAddr: 0x100019FE0, symSize: 0x118 }
  - { offset: 0xA151F, size: 0x8, addend: 0x0, symName: __RNvMs0_NtNtNtNtCsfB93IpvWVaK_3std2os4unix3net8datagramNtB5_12UnixDatagram9recv_from, symObjAddr: 0x1B640, symBinAddr: 0x10001A0F8, symSize: 0x118 }
  - { offset: 0xA1743, size: 0x8, addend: 0x0, symName: __RNvXs_NtNtNtNtCsfB93IpvWVaK_3std2os4unix3net8datagramNtB4_12UnixDatagramNtNtCs5FIOKSViJ8s_4core3fmt5Debug3fmt, symObjAddr: 0x48530, symBinAddr: 0x1000456B4, symSize: 0x2A0 }
  - { offset: 0xA1A1A, size: 0x8, addend: 0x0, symName: __RNvMs_NtNtNtNtCsfB93IpvWVaK_3std2os4unix3net8listenerNtB4_12UnixListener6accept, symObjAddr: 0x28FE0, symBinAddr: 0x100026ED4, symSize: 0x17C }
  - { offset: 0xA1C96, size: 0x8, addend: 0x0, symName: __RNvMs_NtNtNtNtCsfB93IpvWVaK_3std2os4unix3net8listenerNtB4_12UnixListener9bind_addr, symObjAddr: 0x2915C, symBinAddr: 0x100027050, symSize: 0xC8 }
  - { offset: 0xA1DF7, size: 0x8, addend: 0x0, symName: __RNvXNtNtNtNtCsfB93IpvWVaK_3std2os4unix3net8listenerNtB2_12UnixListenerNtNtCs5FIOKSViJ8s_4core3fmt5Debug3fmt, symObjAddr: 0x3DF18, symBinAddr: 0x10003B0FC, symSize: 0x188 }
  - { offset: 0xA1F6F, size: 0x8, addend: 0x0, symName: __RNvXs7_NtNtNtNtCsfB93IpvWVaK_3std2os4unix3net8listenerNtB5_8IncomingNtNtNtNtCs5FIOKSViJ8s_4core4iter6traits8iterator8Iterator4next, symObjAddr: 0x45B00, symBinAddr: 0x100042C84, symSize: 0x40 }
  - { offset: 0xA1FCF, size: 0x8, addend: 0x0, symName: __RNvXNtNtNtCsfB93IpvWVaK_3std2os4unix2fsNtNtB8_2fs4FileNtB2_7FileExt11read_buf_at, symObjAddr: 0x3D6E8, symBinAddr: 0x10003A8CC, symSize: 0x7C }
  - { offset: 0xA215D, size: 0x8, addend: 0x0, symName: __RNvXNtNtNtCsfB93IpvWVaK_3std2os4unix2fsNtNtB8_2fs4FileNtB2_7FileExt16read_vectored_at, symObjAddr: 0x3D764, symBinAddr: 0x10003A948, symSize: 0x110 }
  - { offset: 0xA2349, size: 0x8, addend: 0x0, symName: __RNvXNtNtNtCsfB93IpvWVaK_3std2os4unix2fsNtNtB8_2fs4FileNtB2_7FileExt17write_vectored_at, symObjAddr: 0x3D874, symBinAddr: 0x10003AA58, symSize: 0x110 }
  - { offset: 0xA2536, size: 0x8, addend: 0x0, symName: __RNvXNtNtNtCsfB93IpvWVaK_3std2os4unix2fsNtNtB8_2fs4FileNtB2_7FileExt7read_at, symObjAddr: 0x3D984, symBinAddr: 0x10003AB68, symSize: 0x54 }
  - { offset: 0xA2628, size: 0x8, addend: 0x0, symName: __RNvXNtNtNtCsfB93IpvWVaK_3std2os4unix2fsNtNtB8_2fs4FileNtB2_7FileExt8write_at, symObjAddr: 0x3D9D8, symBinAddr: 0x10003ABBC, symSize: 0x54 }
  - { offset: 0xA2722, size: 0x8, addend: 0x0, symName: __RNvXs5_NtNtNtCsfB93IpvWVaK_3std2os4unix2fsNtNtBb_2fs8DirEntryNtB5_12DirEntryExt213file_name_ref, symObjAddr: 0x443E4, symBinAddr: 0x100041568, symSize: 0xC }
  - { offset: 0xA2741, size: 0x8, addend: 0x0, symName: __RNvXs5_NtNtNtCsfB93IpvWVaK_3std2os4unix2fsNtNtBb_2fs8DirEntryNtB5_12DirEntryExt213file_name_ref, symObjAddr: 0x443E4, symBinAddr: 0x100041568, symSize: 0xC }
  - { offset: 0xA2757, size: 0x8, addend: 0x0, symName: __RNvXs5_NtNtNtCsfB93IpvWVaK_3std2os4unix2fsNtNtBb_2fs8DirEntryNtB5_12DirEntryExt213file_name_ref, symObjAddr: 0x443E4, symBinAddr: 0x100041568, symSize: 0xC }
  - { offset: 0xA2771, size: 0x8, addend: 0x0, symName: __RNvNtNtNtCsfB93IpvWVaK_3std2os4unix2io16replace_stdio_fd, symObjAddr: 0x375C0, symBinAddr: 0x100035210, symSize: 0x54 }
  - { offset: 0xA2823, size: 0x8, addend: 0x0, symName: __RNvXNtNtNtCsfB93IpvWVaK_3std2os4unix2ioNtNtNtB8_2io5stdio6StdoutNtB2_8StdioExt7take_fd, symObjAddr: 0x3DA2C, symBinAddr: 0x10003AC10, symSize: 0x8C }
  - { offset: 0xA2A04, size: 0x8, addend: 0x0, symName: __RNvXs0_NtNtNtCsfB93IpvWVaK_3std2os4unix2ioNtNtNtBb_2io5stdio5StdinNtB5_8StdioExt7take_fd, symObjAddr: 0x3F488, symBinAddr: 0x10003C63C, symSize: 0xB8 }
  - { offset: 0xA2CA8, size: 0x8, addend: 0x0, symName: __RNvXs1_NtNtNtCsfB93IpvWVaK_3std2os4unix2ioNtNtNtBb_2io5stdio9StdinLockNtB5_8StdioExt7take_fd, symObjAddr: 0x40078, symBinAddr: 0x10003D1FC, symSize: 0x154 }
  - { offset: 0xA2F1B, size: 0x8, addend: 0x0, symName: __RNvXs2_NtNtNtCsfB93IpvWVaK_3std2os4unix2ioNtNtNtBb_2io5stdio6StderrNtB5_8StdioExt7take_fd, symObjAddr: 0x417CC, symBinAddr: 0x10003E950, symSize: 0x8C }
  - { offset: 0xA3109, size: 0x8, addend: 0x0, symName: __RNvXs3_NtNtNtCsfB93IpvWVaK_3std2os4unix2ioNtNtNtBb_2io5stdio10StderrLockNtB5_8StdioExt7take_fd, symObjAddr: 0x42814, symBinAddr: 0x10003F998, symSize: 0x190 }
  - { offset: 0xA343E, size: 0x8, addend: 0x0, symName: __RNvXs_NtNtNtCsfB93IpvWVaK_3std2os4unix2ioNtNtNtBa_2io5stdio10StdoutLockNtB4_8StdioExt7take_fd, symObjAddr: 0x47D90, symBinAddr: 0x100044F14, symSize: 0x1E0 }
  - { offset: 0xA38AD, size: 0x8, addend: 0x0, symName: __RNvNtNtNtCsfB93IpvWVaK_3std2os4unix7process9parent_id, symObjAddr: 0x37614, symBinAddr: 0x100035264, symSize: 0x4 }
  - { offset: 0xA38CC, size: 0x8, addend: 0x0, symName: __RNvNtNtNtCsfB93IpvWVaK_3std2os4unix7process9parent_id, symObjAddr: 0x37614, symBinAddr: 0x100035264, symSize: 0x4 }
  - { offset: 0xA38E5, size: 0x8, addend: 0x0, symName: __RNvXNtNtNtCsfB93IpvWVaK_3std2os4unix7processNtNtB8_7process7CommandNtB2_10CommandExt4exec, symObjAddr: 0x3DAB8, symBinAddr: 0x10003AC9C, symSize: 0x1C8 }
  - { offset: 0xA3B57, size: 0x8, addend: 0x0, symName: __RNvXNtNtNtCsfB93IpvWVaK_3std2os4unix7processNtNtB8_7process7CommandNtB2_10CommandExt6groups, symObjAddr: 0x3DC80, symBinAddr: 0x10003AE64, symSize: 0xA8 }
  - { offset: 0xA3D34, size: 0x8, addend: 0x0, symName: __RNvXs0_NtNtNtCsfB93IpvWVaK_3std2os4unix7processNtNtBb_7process15ExitStatusErrorNtB5_13ExitStatusExt8from_raw, symObjAddr: 0x3F540, symBinAddr: 0x10003C6F4, symSize: 0x38 }
  - { offset: 0xA3D66, size: 0x8, addend: 0x0, symName: __RNvXs1_NtNtNtCsfB93IpvWVaK_3std2os4unix7processNtNtBb_7process5ChildNtB5_8ChildExt11send_signal, symObjAddr: 0x401CC, symBinAddr: 0x10003D350, symSize: 0x48 }
  - { offset: 0xA3E26, size: 0x8, addend: 0x0, symName: __RNvXs0_NtNtNtNtCsfB93IpvWVaK_3std12backtrace_rs9symbolize5gimli4mmapNtB5_4MmapNtNtNtCs5FIOKSViJ8s_4core3ops4drop4Drop4drop, symObjAddr: 0x3F5C8, symBinAddr: 0x10003C77C, symSize: 0xC }
  - { offset: 0xA3E52, size: 0x8, addend: 0x0, symName: __RNvXs_NtNtNtNtCsfB93IpvWVaK_3std12backtrace_rs9symbolize5gimli4mmapNtB4_4MmapNtNtNtCs5FIOKSViJ8s_4core3ops5deref5Deref5deref, symObjAddr: 0x48284, symBinAddr: 0x100045408, symSize: 0xC }
  - { offset: 0xA3F1C, size: 0x8, addend: 0x0, symName: __RNvMs_NtNtNtNtCsfB93IpvWVaK_3std12backtrace_rs9symbolize5gimli5machoNtB4_6Object5parse, symObjAddr: 0x281F8, symBinAddr: 0x1000260EC, symSize: 0xC98 }
  - { offset: 0xA5DEC, size: 0x8, addend: 0x0, symName: __RNvMs_NtNtNtNtCsfB93IpvWVaK_3std12backtrace_rs9symbolize5gimli5machoNtB4_6Object7section, symObjAddr: 0x28E90, symBinAddr: 0x100026D84, symSize: 0x150 }
  - { offset: 0xA621B, size: 0x8, addend: 0x0, symName: __RNvNtNtNtNtCsfB93IpvWVaK_3std12backtrace_rs9symbolize5gimli5macho11find_header, symObjAddr: 0x397BC, symBinAddr: 0x100036A90, symSize: 0x1DC }
  - { offset: 0xA6238, size: 0x8, addend: 0x0, symName: __RNvNtNtNtNtCsfB93IpvWVaK_3std12backtrace_rs9symbolize5gimli5macho11find_header, symObjAddr: 0x397BC, symBinAddr: 0x100036A90, symSize: 0x1DC }
  - { offset: 0xA624C, size: 0x8, addend: 0x0, symName: __RNvNtNtNtNtCsfB93IpvWVaK_3std12backtrace_rs9symbolize5gimli5macho11find_header, symObjAddr: 0x397BC, symBinAddr: 0x100036A90, symSize: 0x1DC }
  - { offset: 0xA6260, size: 0x8, addend: 0x0, symName: __RNvNtNtNtNtCsfB93IpvWVaK_3std12backtrace_rs9symbolize5gimli5macho11find_header, symObjAddr: 0x397BC, symBinAddr: 0x100036A90, symSize: 0x1DC }
  - { offset: 0xA6274, size: 0x8, addend: 0x0, symName: __RNvNtNtNtNtCsfB93IpvWVaK_3std12backtrace_rs9symbolize5gimli5macho11find_header, symObjAddr: 0x397BC, symBinAddr: 0x100036A90, symSize: 0x1DC }
  - { offset: 0xA6289, size: 0x8, addend: 0x0, symName: __RNvNtNtNtNtCsfB93IpvWVaK_3std12backtrace_rs9symbolize5gimli5macho11find_header, symObjAddr: 0x397BC, symBinAddr: 0x100036A90, symSize: 0x1DC }
  - { offset: 0xA629E, size: 0x8, addend: 0x0, symName: __RNvNtNtNtNtCsfB93IpvWVaK_3std12backtrace_rs9symbolize5gimli5macho11find_header, symObjAddr: 0x397BC, symBinAddr: 0x100036A90, symSize: 0x1DC }
  - { offset: 0xA688D, size: 0x8, addend: 0x0, symName: __RNvMs_NtNtNtCsfB93IpvWVaK_3std12backtrace_rs9symbolize5gimliNtB4_7Context11find_frames, symObjAddr: 0x25788, symBinAddr: 0x100023808, symSize: 0x398 }
  - { offset: 0xA6D14, size: 0x8, addend: 0x0, symName: __RNvMs_NtNtNtCsfB93IpvWVaK_3std12backtrace_rs9symbolize5gimliNtB4_7Context3new, symObjAddr: 0x25B20, symBinAddr: 0x100023BA0, symSize: 0x1E88 }
  - { offset: 0xAB0AA, size: 0x8, addend: 0x0, symName: __RNvNtNtNtCsfB93IpvWVaK_3std12backtrace_rs9symbolize5gimli4mmap, symObjAddr: 0x34EFC, symBinAddr: 0x100032B4C, symSize: 0x1E0 }
  - { offset: 0xAB649, size: 0x8, addend: 0x0, symName: __RNvNtNtNtCsfB93IpvWVaK_3std12backtrace_rs9symbolize5gimli7resolve, symObjAddr: 0x350DC, symBinAddr: 0x100032D2C, symSize: 0x24E4 }
  - { offset: 0xB0BD0, size: 0x8, addend: 0x0, symName: __RNvMs_NtNtCsfB93IpvWVaK_3std12backtrace_rs9symbolizeNtB4_6Symbol12filename_raw, symObjAddr: 0x25160, symBinAddr: 0x1000231E0, symSize: 0x38 }
  - { offset: 0xB0C08, size: 0x8, addend: 0x0, symName: __RNvMs_NtNtCsfB93IpvWVaK_3std12backtrace_rs9symbolizeNtB4_6Symbol4name, symObjAddr: 0x25198, symBinAddr: 0x100023218, symSize: 0xD4 }
  - { offset: 0xB0D74, size: 0x8, addend: 0x0, symName: __RNvXs0_NtNtCsfB93IpvWVaK_3std12backtrace_rs9symbolizeNtB5_6SymbolNtNtCs5FIOKSViJ8s_4core3fmt5Debug3fmt, symObjAddr: 0x3EE4C, symBinAddr: 0x10003C000, symSize: 0xF8 }
  - { offset: 0xB0E22, size: 0x8, addend: 0x0, symName: __RNvXs2_NtNtCsfB93IpvWVaK_3std12backtrace_rs9symbolizeNtB5_10SymbolNameNtNtCs5FIOKSViJ8s_4core3fmt7Display3fmt, symObjAddr: 0x414EC, symBinAddr: 0x10003E670, symSize: 0x104 }
  - { offset: 0xB0EC1, size: 0x8, addend: 0x0, symName: __RNvXs3_NtNtCsfB93IpvWVaK_3std12backtrace_rs9symbolizeNtB5_10SymbolNameNtNtCs5FIOKSViJ8s_4core3fmt5Debug3fmt, symObjAddr: 0x41B08, symBinAddr: 0x10003EC8C, symSize: 0x104 }
  - { offset: 0xB0F77, size: 0x8, addend: 0x0, symName: __RNvXs2_NtNtNtCsfB93IpvWVaK_3std12backtrace_rs9backtrace9libunwindNtB5_4BombNtNtNtCs5FIOKSViJ8s_4core3ops4drop4Drop4drop, symObjAddr: 0x4178C, symBinAddr: 0x10003E910, symSize: 0x2C }
  - { offset: 0xB0FC7, size: 0x8, addend: 0x0, symName: __RNvXs1_NtNtNtCsfB93IpvWVaK_3std12backtrace_rs9backtrace9libunwindNtB5_5FrameNtNtCs5FIOKSViJ8s_4core5clone5Clone5clone, symObjAddr: 0x40010, symBinAddr: 0x10003D194, symSize: 0x68 }
  - { offset: 0xB1026, size: 0x8, addend: 0x0, symName: __RNvNvNtNtNtCsfB93IpvWVaK_3std12backtrace_rs9backtrace9libunwind5trace8trace_fn, symObjAddr: 0x3CAC0, symBinAddr: 0x100039CD4, symSize: 0x48 }
  - { offset: 0xB10B0, size: 0x8, addend: 0x0, symName: __RNvXs_NtNtCsfB93IpvWVaK_3std12backtrace_rs9backtraceNtB4_5FrameNtNtCs5FIOKSViJ8s_4core3fmt5Debug3fmt, symObjAddr: 0x47170, symBinAddr: 0x1000442F4, symSize: 0xDC }
  - { offset: 0xB11A2, size: 0x8, addend: 0x0, symName: __RNvMs_NtNtCsfB93IpvWVaK_3std12backtrace_rs5printNtB4_17BacktraceFrameFmt21print_raw_with_column, symObjAddr: 0x24DE4, symBinAddr: 0x100022E64, symSize: 0x37C }
  - { offset: 0xB14F5, size: 0x8, addend: 0x0, symName: __RNvNtNtCsfB93IpvWVaK_3std9panicking11panic_count17is_zero_slow_path, symObjAddr: 0x34DE4, symBinAddr: 0x10008DA84, symSize: 0x2C }
  - { offset: 0xB157B, size: 0x8, addend: 0x0, symName: __RNvNtNtCsfB93IpvWVaK_3std9panicking11panic_count19finished_panic_hook, symObjAddr: 0x34E10, symBinAddr: 0x100032A60, symSize: 0x24 }
  - { offset: 0xB163C, size: 0x8, addend: 0x0, symName: __RNvNtNtCsfB93IpvWVaK_3std9panicking11panic_count8decrease, symObjAddr: 0x34E34, symBinAddr: 0x100032A84, symSize: 0x40 }
  - { offset: 0xB173D, size: 0x8, addend: 0x0, symName: __RNvNtNtCsfB93IpvWVaK_3std9panicking11panic_count8increase, symObjAddr: 0x34E74, symBinAddr: 0x100032AC4, symSize: 0x64 }
  - { offset: 0xB1754, size: 0x8, addend: 0x0, symName: __RNvNtNtCsfB93IpvWVaK_3std9panicking11panic_count8increase, symObjAddr: 0x34E74, symBinAddr: 0x100032AC4, symSize: 0x64 }
  - { offset: 0xB1769, size: 0x8, addend: 0x0, symName: __RNvNtNtCsfB93IpvWVaK_3std9panicking11panic_count8increase, symObjAddr: 0x34E74, symBinAddr: 0x100032AC4, symSize: 0x64 }
  - { offset: 0xB181E, size: 0x8, addend: 0x0, symName: __RNvNtNtCsfB93IpvWVaK_3std9panicking11panic_count9get_count, symObjAddr: 0x34ED8, symBinAddr: 0x100032B28, symSize: 0x24 }
  - { offset: 0xB1896, size: 0x8, addend: 0x0, symName: __RINvNtCsfB93IpvWVaK_3std9panicking11begin_panicReEB4_, symObjAddr: 0x865C, symBinAddr: 0x10008BDF0, symSize: 0x1C }
  - { offset: 0xB18C2, size: 0x8, addend: 0x0, symName: __RNCINvNtCsfB93IpvWVaK_3std9panicking11begin_panicReE0B6_, symObjAddr: 0x139D4, symBinAddr: 0x100012C54, symSize: 0x30 }
  - { offset: 0xB18E1, size: 0x8, addend: 0x0, symName: __RNvXNvNtCsfB93IpvWVaK_3std9panicking11begin_panicINtB2_7PayloadReENtNtCs5FIOKSViJ8s_4core5panic12PanicPayload3getB6_, symObjAddr: 0x3E8A8, symBinAddr: 0x10003BA8C, symSize: 0x20 }
  - { offset: 0xB18FB, size: 0x8, addend: 0x0, symName: __RNvXNvNtCsfB93IpvWVaK_3std9panicking11begin_panicINtB2_7PayloadReENtNtCs5FIOKSViJ8s_4core5panic12PanicPayload8take_boxB6_, symObjAddr: 0x3E8C8, symBinAddr: 0x10003BAAC, symSize: 0x54 }
  - { offset: 0xB19B8, size: 0x8, addend: 0x0, symName: __RNvXs_NvNtCsfB93IpvWVaK_3std9panicking11begin_panicINtB4_7PayloadReENtNtCs5FIOKSViJ8s_4core3fmt7Display3fmtB8_, symObjAddr: 0x48B38, symBinAddr: 0x100045CBC, symSize: 0x24 }
  - { offset: 0xB1A15, size: 0x8, addend: 0x0, symName: __RNCNvNtCsfB93IpvWVaK_3std9panicking12default_hook0B5_, symObjAddr: 0x14B94, symBinAddr: 0x100013DB0, symSize: 0x134 }
  - { offset: 0xB1B4A, size: 0x8, addend: 0x0, symName: __RNCNvNtCsfB93IpvWVaK_3std9panicking13panic_handler0B5_, symObjAddr: 0x14CC8, symBinAddr: 0x100013EE4, symSize: 0x98 }
  - { offset: 0xB1CC1, size: 0x8, addend: 0x0, symName: __RNvXs0_NvNtCsfB93IpvWVaK_3std9panicking13panic_handlerNtB5_19FormatStringPayloadNtNtCs5FIOKSViJ8s_4core3fmt7Display3fmt, symObjAddr: 0x3F870, symBinAddr: 0x10003C9F4, symSize: 0x34 }
  - { offset: 0xB1DBB, size: 0x8, addend: 0x0, symName: __RNvXs1_NvNtCsfB93IpvWVaK_3std9panicking13panic_handlerNtB5_16StaticStrPayloadNtNtCs5FIOKSViJ8s_4core5panic12PanicPayload3get, symObjAddr: 0x40470, symBinAddr: 0x10003D5F4, symSize: 0xC }
  - { offset: 0xB1DD5, size: 0x8, addend: 0x0, symName: __RNvXs1_NvNtCsfB93IpvWVaK_3std9panicking13panic_handlerNtB5_16StaticStrPayloadNtNtCs5FIOKSViJ8s_4core5panic12PanicPayload6as_str, symObjAddr: 0x4047C, symBinAddr: 0x10003D600, symSize: 0xC }
  - { offset: 0xB1DF0, size: 0x8, addend: 0x0, symName: __RNvXs1_NvNtCsfB93IpvWVaK_3std9panicking13panic_handlerNtB5_16StaticStrPayloadNtNtCs5FIOKSViJ8s_4core5panic12PanicPayload8take_box, symObjAddr: 0x40488, symBinAddr: 0x10003D60C, symSize: 0x48 }
  - { offset: 0xB1E83, size: 0x8, addend: 0x0, symName: __RNvXs2_NvNtCsfB93IpvWVaK_3std9panicking13panic_handlerNtB5_16StaticStrPayloadNtNtCs5FIOKSViJ8s_4core3fmt7Display3fmt, symObjAddr: 0x41A00, symBinAddr: 0x10003EB84, symSize: 0x10 }
  - { offset: 0xB1ED0, size: 0x8, addend: 0x0, symName: __RNvXs_NvNtCsfB93IpvWVaK_3std9panicking13panic_handlerNtB4_19FormatStringPayloadNtNtCs5FIOKSViJ8s_4core5panic12PanicPayload3get, symObjAddr: 0x48B5C, symBinAddr: 0x100045CE0, symSize: 0xA0 }
  - { offset: 0xB2041, size: 0x8, addend: 0x0, symName: __RNvXs_NvNtCsfB93IpvWVaK_3std9panicking13panic_handlerNtB4_19FormatStringPayloadNtNtCs5FIOKSViJ8s_4core5panic12PanicPayload8take_box, symObjAddr: 0x48BFC, symBinAddr: 0x100045D80, symSize: 0x108 }
  - { offset: 0xB233D, size: 0x8, addend: 0x0, symName: __RNSINvNtCsfB93IpvWVaK_3std9panicking11begin_panicReE5reifyB6_, symObjAddr: 0x15C3C, symBinAddr: 0x10008C698, symSize: 0x14 }
  - { offset: 0xB2358, size: 0x8, addend: 0x0, symName: __RNvCs2S033ihgi4L_7___rustc10rust_panic, symObjAddr: 0x15FA4, symBinAddr: 0x10008C6AC, symSize: 0x48 }
  - { offset: 0xB2373, size: 0x8, addend: 0x0, symName: __RNvCs2S033ihgi4L_7___rustc17___rust_drop_panic, symObjAddr: 0x16118, symBinAddr: 0x100015118, symSize: 0xD4 }
  - { offset: 0xB24A6, size: 0x8, addend: 0x0, symName: __RNvCs2S033ihgi4L_7___rustc17rust_begin_unwind, symObjAddr: 0x161EC, symBinAddr: 0x1000151EC, symSize: 0x20 }
  - { offset: 0xB24D7, size: 0x8, addend: 0x0, symName: __RNvCs2S033ihgi4L_7___rustc24___rust_foreign_exception, symObjAddr: 0x1629C, symBinAddr: 0x10001529C, symSize: 0xD4 }
  - { offset: 0xB266A, size: 0x8, addend: 0x0, symName: __RNvNvNtCsfB93IpvWVaK_3std9panicking12catch_unwind7cleanup, symObjAddr: 0x3CA80, symBinAddr: 0x10008E4AC, symSize: 0x40 }
  - { offset: 0xB278D, size: 0x8, addend: 0x0, symName: __RNvNtCsfB93IpvWVaK_3std9panicking12default_hook, symObjAddr: 0x317A4, symBinAddr: 0x10002F668, symSize: 0x13C }
  - { offset: 0xB2911, size: 0x8, addend: 0x0, symName: __RNvNtCsfB93IpvWVaK_3std9panicking13resume_unwind, symObjAddr: 0x318E0, symBinAddr: 0x10008D83C, symSize: 0xBC }
  - { offset: 0xB2BB9, size: 0x8, addend: 0x0, symName: __RNvNtCsfB93IpvWVaK_3std9panicking14payload_as_str, symObjAddr: 0x3199C, symBinAddr: 0x10002F7A4, symSize: 0xC8 }
  - { offset: 0xB2D06, size: 0x8, addend: 0x0, symName: __RNvNtCsfB93IpvWVaK_3std9panicking15panic_with_hook, symObjAddr: 0x31A64, symBinAddr: 0x10002F86C, symSize: 0x388 }
  - { offset: 0xB345A, size: 0x8, addend: 0x0, symName: __RNvNtCsfB93IpvWVaK_3std9panicking8set_hook, symObjAddr: 0x31DEC, symBinAddr: 0x10002FBF4, symSize: 0xDC }
  - { offset: 0xB367E, size: 0x8, addend: 0x0, symName: __RNvNtCsfB93IpvWVaK_3std9panicking9take_hook, symObjAddr: 0x31EC8, symBinAddr: 0x10002FCD0, symSize: 0x5C }
  - { offset: 0xB3716, size: 0x8, addend: 0x0, symName: __RNvXNvNtCsfB93IpvWVaK_3std9panicking13resume_unwindNtB2_9RewrapBoxNtNtCs5FIOKSViJ8s_4core5panic12PanicPayload3get, symObjAddr: 0x3E91C, symBinAddr: 0x10003BB00, symSize: 0xC }
  - { offset: 0xB3731, size: 0x8, addend: 0x0, symName: __RNvXNvNtCsfB93IpvWVaK_3std9panicking13resume_unwindNtB2_9RewrapBoxNtNtCs5FIOKSViJ8s_4core5panic12PanicPayload8take_box, symObjAddr: 0x3E928, symBinAddr: 0x10003BB0C, symSize: 0x1C }
  - { offset: 0xB374F, size: 0x8, addend: 0x0, symName: __RNvXNvNtCsfB93IpvWVaK_3std9panicking13resume_unwindNtB2_9RewrapBoxNtNtCs5FIOKSViJ8s_4core5panic12PanicPayload8take_box, symObjAddr: 0x3E928, symBinAddr: 0x10003BB0C, symSize: 0x1C }
  - { offset: 0xB3768, size: 0x8, addend: 0x0, symName: __RNvXs_NvNtCsfB93IpvWVaK_3std9panicking13resume_unwindNtB4_9RewrapBoxNtNtCs5FIOKSViJ8s_4core3fmt7Display3fmt, symObjAddr: 0x48D04, symBinAddr: 0x100045E88, symSize: 0x14 }
  - { offset: 0xB37EC, size: 0x8, addend: 0x0, symName: __RNvXs7_NtCsfB93IpvWVaK_3std2fsRNtB5_4FileNtNtB7_2io4Read11read_to_end, symObjAddr: 0x45328, symBinAddr: 0x1000424AC, symSize: 0xE0 }
  - { offset: 0xB3959, size: 0x8, addend: 0x0, symName: __RNvXs7_NtCsfB93IpvWVaK_3std2fsRNtB5_4FileNtNtB7_2io4Read14read_to_string, symObjAddr: 0x45408, symBinAddr: 0x10004258C, symSize: 0x100 }
  - { offset: 0xB3C16, size: 0x8, addend: 0x0, symName: __RNvXsa_NtCsfB93IpvWVaK_3std2fsNtB5_4FileNtNtB7_2io4Read11read_to_end, symObjAddr: 0x48E48, symBinAddr: 0x100045FCC, symSize: 0xDC }
  - { offset: 0xB3D98, size: 0x8, addend: 0x0, symName: __RNvXsa_NtCsfB93IpvWVaK_3std2fsNtB5_4FileNtNtB7_2io4Read13read_vectored, symObjAddr: 0x48F24, symBinAddr: 0x1000460A8, symSize: 0x54 }
  - { offset: 0xB3EC0, size: 0x8, addend: 0x0, symName: __RNvXsa_NtCsfB93IpvWVaK_3std2fsNtB5_4FileNtNtB7_2io4Read14read_to_string, symObjAddr: 0x48F78, symBinAddr: 0x1000460FC, symSize: 0x24 }
  - { offset: 0xB3ED3, size: 0x8, addend: 0x0, symName: __RNvXsa_NtCsfB93IpvWVaK_3std2fsNtB5_4FileNtNtB7_2io4Read4read, symObjAddr: 0x48F9C, symBinAddr: 0x100046120, symSize: 0x54 }
  - { offset: 0xB3FFB, size: 0x8, addend: 0x0, symName: __RNvXsa_NtCsfB93IpvWVaK_3std2fsNtB5_4FileNtNtB7_2io4Read8read_buf, symObjAddr: 0x48FF0, symBinAddr: 0x100046174, symSize: 0x78 }
  - { offset: 0xB424D, size: 0x8, addend: 0x0, symName: __RNvMso_NtCsfB93IpvWVaK_3std2fsNtB5_8Metadata7created, symObjAddr: 0x2E96C, symBinAddr: 0x10002C860, symSize: 0x64 }
  - { offset: 0xB42AA, size: 0x8, addend: 0x0, symName: __RNvMso_NtCsfB93IpvWVaK_3std2fsNtB5_8Metadata8accessed, symObjAddr: 0x2E9D0, symBinAddr: 0x10002C8C4, symSize: 0x64 }
  - { offset: 0xB4307, size: 0x8, addend: 0x0, symName: __RNvMso_NtCsfB93IpvWVaK_3std2fsNtB5_8Metadata8modified, symObjAddr: 0x2EA34, symBinAddr: 0x10002C928, symSize: 0x64 }
  - { offset: 0xB43C9, size: 0x8, addend: 0x0, symName: __RNvMs2_NtCsfB93IpvWVaK_3std2fsNtB5_4File11lock_shared, symObjAddr: 0x1EE6C, symBinAddr: 0x10001D5AC, symSize: 0x3C }
  - { offset: 0xB4465, size: 0x8, addend: 0x0, symName: __RNvMs2_NtCsfB93IpvWVaK_3std2fsNtB5_4File15set_permissions, symObjAddr: 0x1EEA8, symBinAddr: 0x10001D5E8, symSize: 0x98 }
  - { offset: 0xB4504, size: 0x8, addend: 0x0, symName: __RNvMs2_NtCsfB93IpvWVaK_3std2fsNtB5_4File15try_lock_shared, symObjAddr: 0x1EF40, symBinAddr: 0x10001D680, symSize: 0x74 }
  - { offset: 0xB45B6, size: 0x8, addend: 0x0, symName: __RNvMs2_NtCsfB93IpvWVaK_3std2fsNtB5_4File4lock, symObjAddr: 0x1EFB4, symBinAddr: 0x10001D6F4, symSize: 0x3C }
  - { offset: 0xB4653, size: 0x8, addend: 0x0, symName: __RNvMs2_NtCsfB93IpvWVaK_3std2fsNtB5_4File6unlock, symObjAddr: 0x1EFF0, symBinAddr: 0x10001D730, symSize: 0x3C }
  - { offset: 0xB46F0, size: 0x8, addend: 0x0, symName: __RNvMs2_NtCsfB93IpvWVaK_3std2fsNtB5_4File7set_len, symObjAddr: 0x1F02C, symBinAddr: 0x10001D76C, symSize: 0xA0 }
  - { offset: 0xB471B, size: 0x8, addend: 0x0, symName: __RNvMs2_NtCsfB93IpvWVaK_3std2fsNtB5_4File7set_len, symObjAddr: 0x1F02C, symBinAddr: 0x10001D76C, symSize: 0xA0 }
  - { offset: 0xB4730, size: 0x8, addend: 0x0, symName: __RNvMs2_NtCsfB93IpvWVaK_3std2fsNtB5_4File7set_len, symObjAddr: 0x1F02C, symBinAddr: 0x10001D76C, symSize: 0xA0 }
  - { offset: 0xB47EB, size: 0x8, addend: 0x0, symName: __RNvMs2_NtCsfB93IpvWVaK_3std2fsNtB5_4File8metadata, symObjAddr: 0x1F0CC, symBinAddr: 0x10001D80C, symSize: 0xAC }
  - { offset: 0xB48FA, size: 0x8, addend: 0x0, symName: __RNvMs2_NtCsfB93IpvWVaK_3std2fsNtB5_4File8sync_all, symObjAddr: 0x1F178, symBinAddr: 0x10001D8B8, symSize: 0x94 }
  - { offset: 0xB49AE, size: 0x8, addend: 0x0, symName: __RNvMs2_NtCsfB93IpvWVaK_3std2fsNtB5_4File8try_lock, symObjAddr: 0x1F20C, symBinAddr: 0x10001D94C, symSize: 0x74 }
  - { offset: 0xB4A60, size: 0x8, addend: 0x0, symName: __RNvMs2_NtCsfB93IpvWVaK_3std2fsNtB5_4File9set_times, symObjAddr: 0x1F280, symBinAddr: 0x10001D9C0, symSize: 0x134 }
  - { offset: 0xB4BE1, size: 0x8, addend: 0x0, symName: __RNvMsC_NtCsfB93IpvWVaK_3std2fsNtB5_8DirEntry4path, symObjAddr: 0x23E24, symBinAddr: 0x100021EA4, symSize: 0x18 }
  - { offset: 0xB4BF8, size: 0x8, addend: 0x0, symName: __RNvMsC_NtCsfB93IpvWVaK_3std2fsNtB5_8DirEntry4path, symObjAddr: 0x23E24, symBinAddr: 0x100021EA4, symSize: 0x18 }
  - { offset: 0xB4C0D, size: 0x8, addend: 0x0, symName: __RNvMsC_NtCsfB93IpvWVaK_3std2fsNtB5_8DirEntry4path, symObjAddr: 0x23E24, symBinAddr: 0x100021EA4, symSize: 0x18 }
  - { offset: 0xB4C22, size: 0x8, addend: 0x0, symName: __RNvMsC_NtCsfB93IpvWVaK_3std2fsNtB5_8DirEntry4path, symObjAddr: 0x23E24, symBinAddr: 0x100021EA4, symSize: 0x18 }
  - { offset: 0xB4C37, size: 0x8, addend: 0x0, symName: __RNvMsC_NtCsfB93IpvWVaK_3std2fsNtB5_8DirEntry4path, symObjAddr: 0x23E24, symBinAddr: 0x100021EA4, symSize: 0x18 }
  - { offset: 0xB4D7E, size: 0x8, addend: 0x0, symName: __RNvMsC_NtCsfB93IpvWVaK_3std2fsNtB5_8DirEntry8metadata, symObjAddr: 0x23E3C, symBinAddr: 0x100021EBC, symSize: 0xC8 }
  - { offset: 0xB4F19, size: 0x8, addend: 0x0, symName: __RNvMsC_NtCsfB93IpvWVaK_3std2fsNtB5_8DirEntry9file_name, symObjAddr: 0x23F04, symBinAddr: 0x100021F84, symSize: 0x70 }
  - { offset: 0xB505D, size: 0x8, addend: 0x0, symName: __RNvMsC_NtCsfB93IpvWVaK_3std2fsNtB5_8DirEntry9file_type, symObjAddr: 0x23F74, symBinAddr: 0x100021FF4, symSize: 0xC8 }
  - { offset: 0xB524F, size: 0x8, addend: 0x0, symName: __RNvMsF_NtCsfB93IpvWVaK_3std2fsNtB5_10DirBuilder7__create, symObjAddr: 0x2403C, symBinAddr: 0x1000220BC, symSize: 0x800 }
  - { offset: 0xB6175, size: 0x8, addend: 0x0, symName: __RNvMsl_NtCsfB93IpvWVaK_3std2fsNtB5_11OpenOptions5__open, symObjAddr: 0x2E184, symBinAddr: 0x10002C078, symSize: 0xFC }
  - { offset: 0xB6305, size: 0x8, addend: 0x0, symName: __RNvXs9_NtCsfB93IpvWVaK_3std2fsRNtB5_4FileNtNtB7_2io4Seek10stream_len, symObjAddr: 0x45D7C, symBinAddr: 0x100042F00, symSize: 0xFC }
  - { offset: 0xB653B, size: 0x8, addend: 0x0, symName: __RNvXs9_NtCsfB93IpvWVaK_3std2fsRNtB5_4FileNtNtB7_2io4Seek15stream_position, symObjAddr: 0x45E78, symBinAddr: 0x100042FFC, symSize: 0x54 }
  - { offset: 0xB65FA, size: 0x8, addend: 0x0, symName: __RNvXs9_NtCsfB93IpvWVaK_3std2fsRNtB5_4FileNtNtB7_2io4Seek4seek, symObjAddr: 0x45ECC, symBinAddr: 0x100043050, symSize: 0x60 }
  - { offset: 0xB66A4, size: 0x8, addend: 0x0, symName: __RNvNtCsfB93IpvWVaK_3std2fs24buffer_capacity_required, symObjAddr: 0x2FC94, symBinAddr: 0x10002DB88, symSize: 0xD4 }
  - { offset: 0xB68E3, size: 0x8, addend: 0x0, symName: __RNvNvNtCsfB93IpvWVaK_3std2fs14read_to_string5inner, symObjAddr: 0x3C384, symBinAddr: 0x1000395D8, symSize: 0x2C0 }
  - { offset: 0xB6FAB, size: 0x8, addend: 0x0, symName: __RNvNvNtCsfB93IpvWVaK_3std2fs4read5inner, symObjAddr: 0x3C644, symBinAddr: 0x100039898, symSize: 0x240 }
  - { offset: 0xB7555, size: 0x8, addend: 0x0, symName: __RNvXs8_NtCsfB93IpvWVaK_3std2fsRNtB5_4FileNtNtB7_2io5Write5write, symObjAddr: 0x45B98, symBinAddr: 0x100042D1C, symSize: 0x58 }
  - { offset: 0xB766F, size: 0x8, addend: 0x0, symName: __RNvXsb_NtCsfB93IpvWVaK_3std2fsNtB5_4FileNtNtB7_2io5Write5write, symObjAddr: 0x492A8, symBinAddr: 0x10004642C, symSize: 0x54 }
  - { offset: 0xB7776, size: 0x8, addend: 0x0, symName: __RNvNvNtCsfB93IpvWVaK_3std2fs5write5inner, symObjAddr: 0x3C884, symBinAddr: 0x100039AD8, symSize: 0x1FC }
  - { offset: 0xB7ACB, size: 0x8, addend: 0x0, symName: __RNvXs0_NtCsfB93IpvWVaK_3std2fsNtB5_12TryLockErrorNtNtCs5FIOKSViJ8s_4core3fmt7Display3fmt, symObjAddr: 0x3EB80, symBinAddr: 0x10003BD34, symSize: 0x30 }
  - { offset: 0xB7AEC, size: 0x8, addend: 0x0, symName: __RNvXs6_NtCsfB93IpvWVaK_3std2fsNtB5_4FileNtNtCs5FIOKSViJ8s_4core3fmt5Debug3fmt, symObjAddr: 0x44484, symBinAddr: 0x100041608, symSize: 0x3C }
  - { offset: 0xB7B78, size: 0x8, addend: 0x0, symName: __RNvXsB_NtCsfB93IpvWVaK_3std2fsNtB5_7ReadDirNtNtNtNtCs5FIOKSViJ8s_4core4iter6traits8iterator8Iterator4next, symObjAddr: 0x46518, symBinAddr: 0x10004369C, symSize: 0x18C }
  - { offset: 0xB7E29, size: 0x8, addend: 0x0, symName: __RNvXsD_NtCsfB93IpvWVaK_3std2fsNtB5_8DirEntryNtNtCs5FIOKSViJ8s_4core3fmt5Debug3fmt, symObjAddr: 0x466A4, symBinAddr: 0x100043828, symSize: 0xB0 }
  - { offset: 0xB818A, size: 0x8, addend: 0x0, symName: __RNvXsU_NtCsfB93IpvWVaK_3std2fsNtB5_11PermissionsNtNtCs5FIOKSViJ8s_4core3fmt5Debug3fmt, symObjAddr: 0x46C14, symBinAddr: 0x100043D98, symSize: 0x40 }
  - { offset: 0xB81AB, size: 0x8, addend: 0x0, symName: __RNvXs_NtCsfB93IpvWVaK_3std2fsNtB4_12TryLockErrorNtNtCs5FIOKSViJ8s_4core3fmt5Debug3fmt, symObjAddr: 0x46EA0, symBinAddr: 0x100044024, symSize: 0x24 }
  - { offset: 0xB81E2, size: 0x8, addend: 0x0, symName: __RNvXsc_NtCsfB93IpvWVaK_3std2fsNtB5_4FileNtNtB7_2io4Seek10stream_len, symObjAddr: 0x494A8, symBinAddr: 0x10004662C, symSize: 0x24 }
  - { offset: 0xB81FD, size: 0x8, addend: 0x0, symName: __RNvXsc_NtCsfB93IpvWVaK_3std2fsNtB5_4FileNtNtB7_2io4Seek15stream_position, symObjAddr: 0x494CC, symBinAddr: 0x100046650, symSize: 0x50 }
  - { offset: 0xB82DA, size: 0x8, addend: 0x0, symName: __RNvXsc_NtCsfB93IpvWVaK_3std2fsNtB5_4FileNtNtB7_2io4Seek4seek, symObjAddr: 0x4951C, symBinAddr: 0x1000466A0, symSize: 0x5C }
  - { offset: 0xB83A7, size: 0x8, addend: 0x0, symName: __RNvXsd_NtCsfB93IpvWVaK_3std2fsINtNtCs7QfUfi8dEu5_5alloc4sync3ArcNtB5_4FileENtNtB7_2io4Read11read_to_end, symObjAddr: 0x49888, symBinAddr: 0x100046A0C, symSize: 0xE0 }
  - { offset: 0xB8562, size: 0x8, addend: 0x0, symName: __RNvXsd_NtCsfB93IpvWVaK_3std2fsINtNtCs7QfUfi8dEu5_5alloc4sync3ArcNtB5_4FileENtNtB7_2io4Read13read_vectored, symObjAddr: 0x49968, symBinAddr: 0x100046AEC, symSize: 0x58 }
  - { offset: 0xB86D3, size: 0x8, addend: 0x0, symName: __RNvXsd_NtCsfB93IpvWVaK_3std2fsINtNtCs7QfUfi8dEu5_5alloc4sync3ArcNtB5_4FileENtNtB7_2io4Read14read_to_string, symObjAddr: 0x499C0, symBinAddr: 0x100046B44, symSize: 0x2C }
  - { offset: 0xB8730, size: 0x8, addend: 0x0, symName: __RNvXsd_NtCsfB93IpvWVaK_3std2fsINtNtCs7QfUfi8dEu5_5alloc4sync3ArcNtB5_4FileENtNtB7_2io4Read4read, symObjAddr: 0x499EC, symBinAddr: 0x100046B70, symSize: 0x58 }
  - { offset: 0xB88A1, size: 0x8, addend: 0x0, symName: __RNvXsd_NtCsfB93IpvWVaK_3std2fsINtNtCs7QfUfi8dEu5_5alloc4sync3ArcNtB5_4FileENtNtB7_2io4Read8read_buf, symObjAddr: 0x49A44, symBinAddr: 0x100046BC8, symSize: 0x7C }
  - { offset: 0xB8AB4, size: 0x8, addend: 0x0, symName: __RNvXse_NtCsfB93IpvWVaK_3std2fsINtNtCs7QfUfi8dEu5_5alloc4sync3ArcNtB5_4FileENtNtB7_2io5Write14write_vectored, symObjAddr: 0x49DBC, symBinAddr: 0x100046F40, symSize: 0x58 }
  - { offset: 0xB8BFD, size: 0x8, addend: 0x0, symName: __RNvXse_NtCsfB93IpvWVaK_3std2fsINtNtCs7QfUfi8dEu5_5alloc4sync3ArcNtB5_4FileENtNtB7_2io5Write5write, symObjAddr: 0x49E14, symBinAddr: 0x100046F98, symSize: 0x58 }
  - { offset: 0xB8D4C, size: 0x8, addend: 0x0, symName: __RNvXsf_NtCsfB93IpvWVaK_3std2fsINtNtCs7QfUfi8dEu5_5alloc4sync3ArcNtB5_4FileENtNtB7_2io4Seek10stream_len, symObjAddr: 0x4A328, symBinAddr: 0x1000474AC, symSize: 0x2C }
  - { offset: 0xB8DA9, size: 0x8, addend: 0x0, symName: __RNvXsf_NtCsfB93IpvWVaK_3std2fsINtNtCs7QfUfi8dEu5_5alloc4sync3ArcNtB5_4FileENtNtB7_2io4Seek15stream_position, symObjAddr: 0x4A354, symBinAddr: 0x1000474D8, symSize: 0x54 }
  - { offset: 0xB8EC7, size: 0x8, addend: 0x0, symName: __RNvXsf_NtCsfB93IpvWVaK_3std2fsINtNtCs7QfUfi8dEu5_5alloc4sync3ArcNtB5_4FileENtNtB7_2io4Seek4seek, symObjAddr: 0x4A3A8, symBinAddr: 0x10004752C, symSize: 0x60 }
  - { offset: 0xB8FD5, size: 0x8, addend: 0x0, symName: __RNvXsk_NtCsfB93IpvWVaK_3std2fsNtB5_3DirNtNtCs5FIOKSViJ8s_4core3fmt5Debug3fmt, symObjAddr: 0x4B3D8, symBinAddr: 0x10004855C, symSize: 0x3C }
  - { offset: 0xB9021, size: 0x8, addend: 0x0, symName: __RNvXsp_NtCsfB93IpvWVaK_3std2fsNtB5_8MetadataNtNtCs5FIOKSViJ8s_4core3fmt5Debug3fmt, symObjAddr: 0x4BDBC, symBinAddr: 0x100048F40, symSize: 0x268 }
  - { offset: 0xB91E2, size: 0x8, addend: 0x0, symName: __RNvXsx_NtCsfB93IpvWVaK_3std2fsNtB5_8FileTypeNtNtCs5FIOKSViJ8s_4core3fmt5Debug3fmt, symObjAddr: 0x4D1A0, symBinAddr: 0x10004A324, symSize: 0xC8 }
  - { offset: 0xB92DE, size: 0x8, addend: 0x0, symName: __RINvNtCsfB93IpvWVaK_3std2rt15handle_rt_paniciEB4_, symObjAddr: 0x862C, symBinAddr: 0x10008BDC0, symSize: 0x30 }
  - { offset: 0xB9319, size: 0x8, addend: 0x0, symName: __RNCNCNCNvNtCsfB93IpvWVaK_3std2rt19lang_start_internal00s_0B9_, symObjAddr: 0x13CEC, symBinAddr: 0x10008C480, symSize: 0x30 }
  - { offset: 0xB935A, size: 0x8, addend: 0x0, symName: __RNvCs2S033ihgi4L_7___rustc12___rust_abort, symObjAddr: 0x16058, symBinAddr: 0x10008C6F4, symSize: 0xC }
  - { offset: 0xB938C, size: 0x8, addend: 0x0, symName: __RNvNtCsfB93IpvWVaK_3std2rt19lang_start_internal, symObjAddr: 0x2FD68, symBinAddr: 0x10002DC5C, symSize: 0x618 }
  - { offset: 0xB9E68, size: 0x8, addend: 0x0, symName: __RNvNtCsfB93IpvWVaK_3std2rt7cleanup, symObjAddr: 0x30380, symBinAddr: 0x10002E274, symSize: 0x60 }
  - { offset: 0xB9E8B, size: 0x8, addend: 0x0, symName: __RNvNtCsfB93IpvWVaK_3std2rt7cleanup, symObjAddr: 0x30380, symBinAddr: 0x10002E274, symSize: 0x60 }
  - { offset: 0xB9E9F, size: 0x8, addend: 0x0, symName: __RNvNtCsfB93IpvWVaK_3std2rt7cleanup, symObjAddr: 0x30380, symBinAddr: 0x10002E274, symSize: 0x60 }
  - { offset: 0xB9EB3, size: 0x8, addend: 0x0, symName: __RNvNtCsfB93IpvWVaK_3std2rt7cleanup, symObjAddr: 0x30380, symBinAddr: 0x10002E274, symSize: 0x60 }
  - { offset: 0xB9F28, size: 0x8, addend: 0x0, symName: __RNCNCNvNtNtCsfB93IpvWVaK_3std9backtrace6helper12lazy_resolve00B9_, symObjAddr: 0x14018, symBinAddr: 0x100013268, symSize: 0x1D0 }
  - { offset: 0xBA399, size: 0x8, addend: 0x0, symName: __RNCNvMs2_NtCsfB93IpvWVaK_3std9backtraceNtB7_9Backtrace6create0B9_, symObjAddr: 0x149D0, symBinAddr: 0x100013C20, symSize: 0x140 }
  - { offset: 0xBA584, size: 0x8, addend: 0x0, symName: __RNvXs4_NtCsfB93IpvWVaK_3std9backtraceNtB5_9BacktraceNtNtCs5FIOKSViJ8s_4core3fmt7Display3fmt, symObjAddr: 0x42F48, symBinAddr: 0x1000400CC, symSize: 0x3E8 }
  - { offset: 0xBAD9E, size: 0x8, addend: 0x0, symName: __RNvMs2_NtCsfB93IpvWVaK_3std9backtraceNtB5_9Backtrace13force_capture, symObjAddr: 0x1F3B8, symBinAddr: 0x10001DAF8, symSize: 0x10 }
  - { offset: 0xBADB8, size: 0x8, addend: 0x0, symName: __RNvMs2_NtCsfB93IpvWVaK_3std9backtraceNtB5_9Backtrace6create, symObjAddr: 0x1F3C8, symBinAddr: 0x10001DB08, symSize: 0x16C }
  - { offset: 0xBB171, size: 0x8, addend: 0x0, symName: __RNvMs2_NtCsfB93IpvWVaK_3std9backtraceNtB5_9Backtrace7capture, symObjAddr: 0x1F534, symBinAddr: 0x10001DC74, symSize: 0x190 }
  - { offset: 0xBB4EF, size: 0x8, addend: 0x0, symName: __RNvMs3_NtCsfB93IpvWVaK_3std9backtraceNtB5_9Backtrace6frames, symObjAddr: 0x20080, symBinAddr: 0x10001E2B8, symSize: 0x84 }
  - { offset: 0xBB5DF, size: 0x8, addend: 0x0, symName: __RNvXNtCsfB93IpvWVaK_3std9backtraceNtB2_9BacktraceNtNtCs5FIOKSViJ8s_4core3fmt5Debug3fmt, symObjAddr: 0x3CEE8, symBinAddr: 0x10003A0FC, symSize: 0x1B8 }
  - { offset: 0xBB7FB, size: 0x8, addend: 0x0, symName: __RNvXs0_NtCsfB93IpvWVaK_3std9backtraceNtB5_15BacktraceSymbolNtNtCs5FIOKSViJ8s_4core3fmt5Debug3fmt, symObjAddr: 0x3EC88, symBinAddr: 0x10003BE3C, symSize: 0x1C4 }
  - { offset: 0xBBA3F, size: 0x8, addend: 0x0, symName: __RNvXs1_NtCsfB93IpvWVaK_3std9backtraceNtB5_11BytesOrWideNtNtCs5FIOKSViJ8s_4core3fmt5Debug3fmt, symObjAddr: 0x3FDA4, symBinAddr: 0x10003CF28, symSize: 0xB4 }
  - { offset: 0xBBB7A, size: 0x8, addend: 0x0, symName: __RNvXs_NtCsfB93IpvWVaK_3std9backtraceNtB4_14BacktraceFrameNtNtCs5FIOKSViJ8s_4core3fmt5Debug3fmt, symObjAddr: 0x470F4, symBinAddr: 0x100044278, symSize: 0x7C }
  - { offset: 0xBBBED, size: 0x8, addend: 0x0, symName: __RNCNvNtCsfB93IpvWVaK_3std5alloc8rust_oom0B5_, symObjAddr: 0x14B60, symBinAddr: 0x10008C4B0, symSize: 0x34 }
  - { offset: 0xBBC3A, size: 0x8, addend: 0x0, symName: __RNvCs2S033ihgi4L_7___rustc11___rdl_alloc, symObjAddr: 0x15FEC, symBinAddr: 0x100014FF8, symSize: 0x6C }
  - { offset: 0xBBCB8, size: 0x8, addend: 0x0, symName: __RNvCs2S033ihgi4L_7___rustc13___rdl_dealloc, symObjAddr: 0x16064, symBinAddr: 0x100015064, symSize: 0x4 }
  - { offset: 0xBBCD6, size: 0x8, addend: 0x0, symName: __RNvCs2S033ihgi4L_7___rustc13___rdl_dealloc, symObjAddr: 0x16064, symBinAddr: 0x100015064, symSize: 0x4 }
  - { offset: 0xBBCE9, size: 0x8, addend: 0x0, symName: __RNvCs2S033ihgi4L_7___rustc13___rdl_realloc, symObjAddr: 0x16068, symBinAddr: 0x100015068, symSize: 0xB0 }
  - { offset: 0xBBDBD, size: 0x8, addend: 0x0, symName: __RNvCs2S033ihgi4L_7___rustc18___rdl_alloc_zeroed, symObjAddr: 0x1620C, symBinAddr: 0x10001520C, symSize: 0x90 }
  - { offset: 0xBBE62, size: 0x8, addend: 0x0, symName: __RNvCs2S033ihgi4L_7___rustc26___rust_alloc_error_handler, symObjAddr: 0x16370, symBinAddr: 0x10008C700, symSize: 0x18 }
  - { offset: 0xBBEC6, size: 0x8, addend: 0x0, symName: __RNvNtCsfB93IpvWVaK_3std5alloc20set_alloc_error_hook, symObjAddr: 0x3148C, symBinAddr: 0x10002F380, symSize: 0x10 }
  - { offset: 0xBBEE4, size: 0x8, addend: 0x0, symName: __RNvNtCsfB93IpvWVaK_3std5alloc20set_alloc_error_hook, symObjAddr: 0x3148C, symBinAddr: 0x10002F380, symSize: 0x10 }
  - { offset: 0xBBEF9, size: 0x8, addend: 0x0, symName: __RNvNtCsfB93IpvWVaK_3std5alloc20set_alloc_error_hook, symObjAddr: 0x3148C, symBinAddr: 0x10002F380, symSize: 0x10 }
  - { offset: 0xBBF0D, size: 0x8, addend: 0x0, symName: __RNvNtCsfB93IpvWVaK_3std5alloc24default_alloc_error_hook, symObjAddr: 0x3149C, symBinAddr: 0x10002F390, symSize: 0x108 }
  - { offset: 0xBBF7E, size: 0x8, addend: 0x0, symName: __RNvNtCsfB93IpvWVaK_3std5alloc8rust_oom, symObjAddr: 0x315A4, symBinAddr: 0x10008D80C, symSize: 0x18 }
  - { offset: 0xBBFA3, size: 0x8, addend: 0x0, symName: __RNvMNtCsfB93IpvWVaK_3std4timeNtB2_7Instant11checked_add, symObjAddr: 0x16388, symBinAddr: 0x100015370, symSize: 0x70 }
  - { offset: 0xBC05E, size: 0x8, addend: 0x0, symName: __RNvMNtCsfB93IpvWVaK_3std4timeNtB2_7Instant11checked_sub, symObjAddr: 0x163F8, symBinAddr: 0x1000153E0, symSize: 0x60 }
  - { offset: 0xBC127, size: 0x8, addend: 0x0, symName: __RNvMNtCsfB93IpvWVaK_3std4timeNtB2_7Instant14duration_since, symObjAddr: 0x16458, symBinAddr: 0x100015440, symSize: 0x4C }
  - { offset: 0xBC190, size: 0x8, addend: 0x0, symName: __RNvMNtCsfB93IpvWVaK_3std4timeNtB2_7Instant22checked_duration_since, symObjAddr: 0x164A4, symBinAddr: 0x10001548C, symSize: 0x50 }
  - { offset: 0xBC1CE, size: 0x8, addend: 0x0, symName: __RNvMNtCsfB93IpvWVaK_3std4timeNtB2_7Instant3now, symObjAddr: 0x164F4, symBinAddr: 0x1000154DC, symSize: 0x8 }
  - { offset: 0xBC1E5, size: 0x8, addend: 0x0, symName: __RNvMNtCsfB93IpvWVaK_3std4timeNtB2_7Instant3now, symObjAddr: 0x164F4, symBinAddr: 0x1000154DC, symSize: 0x8 }
  - { offset: 0xBC213, size: 0x8, addend: 0x0, symName: __RNvMNtCsfB93IpvWVaK_3std4timeNtB2_7Instant7elapsed, symObjAddr: 0x164FC, symBinAddr: 0x1000154E4, symSize: 0x6C }
  - { offset: 0xBC311, size: 0x8, addend: 0x0, symName: __RNvXs3_NtCsfB93IpvWVaK_3std4timeNtB5_7InstantNtNtNtCs5FIOKSViJ8s_4core3ops5arith3Sub3sub, symObjAddr: 0x41A10, symBinAddr: 0x10003EB94, symSize: 0x50 }
  - { offset: 0xBC396, size: 0x8, addend: 0x0, symName: __RNvMs5_NtCsfB93IpvWVaK_3std4timeNtB5_10SystemTime14duration_since, symObjAddr: 0x22390, symBinAddr: 0x100020410, symSize: 0x50 }
  - { offset: 0xBC3E3, size: 0x8, addend: 0x0, symName: __RNvMs5_NtCsfB93IpvWVaK_3std4timeNtB5_10SystemTime14saturating_add, symObjAddr: 0x223E0, symBinAddr: 0x100020460, symSize: 0x90 }
  - { offset: 0xBC4D7, size: 0x8, addend: 0x0, symName: __RNvMs5_NtCsfB93IpvWVaK_3std4timeNtB5_10SystemTime14saturating_sub, symObjAddr: 0x22470, symBinAddr: 0x1000204F0, symSize: 0x8C }
  - { offset: 0xBC5C3, size: 0x8, addend: 0x0, symName: __RNvMs5_NtCsfB93IpvWVaK_3std4timeNtB5_10SystemTime25saturating_duration_since, symObjAddr: 0x224FC, symBinAddr: 0x10002057C, symSize: 0x4C }
  - { offset: 0xBC633, size: 0x8, addend: 0x0, symName: __RNvMs5_NtCsfB93IpvWVaK_3std4timeNtB5_10SystemTime3now, symObjAddr: 0x22548, symBinAddr: 0x1000205C8, symSize: 0x8 }
  - { offset: 0xBC64A, size: 0x8, addend: 0x0, symName: __RNvMs5_NtCsfB93IpvWVaK_3std4timeNtB5_10SystemTime3now, symObjAddr: 0x22548, symBinAddr: 0x1000205C8, symSize: 0x8 }
  - { offset: 0xBC66B, size: 0x8, addend: 0x0, symName: __RNvMs5_NtCsfB93IpvWVaK_3std4timeNtB5_10SystemTime7elapsed, symObjAddr: 0x22550, symBinAddr: 0x1000205D0, symSize: 0x68 }
  - { offset: 0xBC705, size: 0x8, addend: 0x0, symName: __RNvXs_NtCsfB93IpvWVaK_3std4timeNtB4_7InstantINtNtNtCs5FIOKSViJ8s_4core3ops5arith3AddNtNtBN_4time8DurationE3add, symObjAddr: 0x46F28, symBinAddr: 0x1000440AC, symSize: 0x64 }
  - { offset: 0xBC71C, size: 0x8, addend: 0x0, symName: __RNvXs_NtCsfB93IpvWVaK_3std4timeNtB4_7InstantINtNtNtCs5FIOKSViJ8s_4core3ops5arith3AddNtNtBN_4time8DurationE3add, symObjAddr: 0x46F28, symBinAddr: 0x1000440AC, symSize: 0x64 }
  - { offset: 0xBC731, size: 0x8, addend: 0x0, symName: __RNvXs_NtCsfB93IpvWVaK_3std4timeNtB4_7InstantINtNtNtCs5FIOKSViJ8s_4core3ops5arith3AddNtNtBN_4time8DurationE3add, symObjAddr: 0x46F28, symBinAddr: 0x1000440AC, symSize: 0x64 }
  - { offset: 0xBC746, size: 0x8, addend: 0x0, symName: __RNvXs_NtCsfB93IpvWVaK_3std4timeNtB4_7InstantINtNtNtCs5FIOKSViJ8s_4core3ops5arith3AddNtNtBN_4time8DurationE3add, symObjAddr: 0x46F28, symBinAddr: 0x1000440AC, symSize: 0x64 }
  - { offset: 0xBC75A, size: 0x8, addend: 0x0, symName: __RNvXs_NtCsfB93IpvWVaK_3std4timeNtB4_7InstantINtNtNtCs5FIOKSViJ8s_4core3ops5arith3AddNtNtBN_4time8DurationE3add, symObjAddr: 0x46F28, symBinAddr: 0x1000440AC, symSize: 0x64 }
  - { offset: 0xBC76E, size: 0x8, addend: 0x0, symName: __RNvXs_NtCsfB93IpvWVaK_3std4timeNtB4_7InstantINtNtNtCs5FIOKSViJ8s_4core3ops5arith3AddNtNtBN_4time8DurationE3add, symObjAddr: 0x46F28, symBinAddr: 0x1000440AC, symSize: 0x64 }
  - { offset: 0xBC783, size: 0x8, addend: 0x0, symName: __RNvXs_NtCsfB93IpvWVaK_3std4timeNtB4_7InstantINtNtNtCs5FIOKSViJ8s_4core3ops5arith3AddNtNtBN_4time8DurationE3add, symObjAddr: 0x46F28, symBinAddr: 0x1000440AC, symSize: 0x64 }
  - { offset: 0xBC80A, size: 0x8, addend: 0x0, symName: __RNvXs0_NtCsfB93IpvWVaK_3std4timeNtB5_7InstantINtNtNtCs5FIOKSViJ8s_4core3ops5arith9AddAssignNtNtBO_4time8DurationE10add_assign, symObjAddr: 0x3EC14, symBinAddr: 0x10003BDC8, symSize: 0x74 }
  - { offset: 0xBC90B, size: 0x8, addend: 0x0, symName: __RNvXs1_NtCsfB93IpvWVaK_3std4timeNtB5_7InstantINtNtNtCs5FIOKSViJ8s_4core3ops5arith3SubNtNtBO_4time8DurationE3sub, symObjAddr: 0x3FCE8, symBinAddr: 0x10003CE6C, symSize: 0x5C }
  - { offset: 0xBC948, size: 0x8, addend: 0x0, symName: __RNvXs1_NtCsfB93IpvWVaK_3std4timeNtB5_7InstantINtNtNtCs5FIOKSViJ8s_4core3ops5arith3SubNtNtBO_4time8DurationE3sub, symObjAddr: 0x3FCE8, symBinAddr: 0x10003CE6C, symSize: 0x5C }
  - { offset: 0xBC95C, size: 0x8, addend: 0x0, symName: __RNvXs1_NtCsfB93IpvWVaK_3std4timeNtB5_7InstantINtNtNtCs5FIOKSViJ8s_4core3ops5arith3SubNtNtBO_4time8DurationE3sub, symObjAddr: 0x3FCE8, symBinAddr: 0x10003CE6C, symSize: 0x5C }
  - { offset: 0xBC971, size: 0x8, addend: 0x0, symName: __RNvXs1_NtCsfB93IpvWVaK_3std4timeNtB5_7InstantINtNtNtCs5FIOKSViJ8s_4core3ops5arith3SubNtNtBO_4time8DurationE3sub, symObjAddr: 0x3FCE8, symBinAddr: 0x10003CE6C, symSize: 0x5C }
  - { offset: 0xBCA06, size: 0x8, addend: 0x0, symName: __RNvXs2_NtCsfB93IpvWVaK_3std4timeNtB5_7InstantINtNtNtCs5FIOKSViJ8s_4core3ops5arith9SubAssignNtNtBO_4time8DurationE10sub_assign, symObjAddr: 0x413DC, symBinAddr: 0x10003E560, symSize: 0x74 }
  - { offset: 0xBCB08, size: 0x8, addend: 0x0, symName: __RNvXs4_NtCsfB93IpvWVaK_3std4timeNtB5_7InstantNtNtCs5FIOKSViJ8s_4core3fmt5Debug3fmt, symObjAddr: 0x42E18, symBinAddr: 0x10003FF9C, symSize: 0x80 }
  - { offset: 0xBCB3E, size: 0x8, addend: 0x0, symName: __RNvXs6_NtCsfB93IpvWVaK_3std4timeNtB5_10SystemTimeINtNtNtCs5FIOKSViJ8s_4core3ops5arith3AddNtNtBS_4time8DurationE3add, symObjAddr: 0x44504, symBinAddr: 0x100041688, symSize: 0x64 }
  - { offset: 0xBCB55, size: 0x8, addend: 0x0, symName: __RNvXs6_NtCsfB93IpvWVaK_3std4timeNtB5_10SystemTimeINtNtNtCs5FIOKSViJ8s_4core3ops5arith3AddNtNtBS_4time8DurationE3add, symObjAddr: 0x44504, symBinAddr: 0x100041688, symSize: 0x64 }
  - { offset: 0xBCB6A, size: 0x8, addend: 0x0, symName: __RNvXs6_NtCsfB93IpvWVaK_3std4timeNtB5_10SystemTimeINtNtNtCs5FIOKSViJ8s_4core3ops5arith3AddNtNtBS_4time8DurationE3add, symObjAddr: 0x44504, symBinAddr: 0x100041688, symSize: 0x64 }
  - { offset: 0xBCB7F, size: 0x8, addend: 0x0, symName: __RNvXs6_NtCsfB93IpvWVaK_3std4timeNtB5_10SystemTimeINtNtNtCs5FIOKSViJ8s_4core3ops5arith3AddNtNtBS_4time8DurationE3add, symObjAddr: 0x44504, symBinAddr: 0x100041688, symSize: 0x64 }
  - { offset: 0xBCB93, size: 0x8, addend: 0x0, symName: __RNvXs6_NtCsfB93IpvWVaK_3std4timeNtB5_10SystemTimeINtNtNtCs5FIOKSViJ8s_4core3ops5arith3AddNtNtBS_4time8DurationE3add, symObjAddr: 0x44504, symBinAddr: 0x100041688, symSize: 0x64 }
  - { offset: 0xBCBA7, size: 0x8, addend: 0x0, symName: __RNvXs6_NtCsfB93IpvWVaK_3std4timeNtB5_10SystemTimeINtNtNtCs5FIOKSViJ8s_4core3ops5arith3AddNtNtBS_4time8DurationE3add, symObjAddr: 0x44504, symBinAddr: 0x100041688, symSize: 0x64 }
  - { offset: 0xBCBBC, size: 0x8, addend: 0x0, symName: __RNvXs6_NtCsfB93IpvWVaK_3std4timeNtB5_10SystemTimeINtNtNtCs5FIOKSViJ8s_4core3ops5arith3AddNtNtBS_4time8DurationE3add, symObjAddr: 0x44504, symBinAddr: 0x100041688, symSize: 0x64 }
  - { offset: 0xBCC51, size: 0x8, addend: 0x0, symName: __RNvXs7_NtCsfB93IpvWVaK_3std4timeNtB5_10SystemTimeINtNtNtCs5FIOKSViJ8s_4core3ops5arith9AddAssignNtNtBS_4time8DurationE10add_assign, symObjAddr: 0x4556C, symBinAddr: 0x1000426F0, symSize: 0x74 }
  - { offset: 0xBCD52, size: 0x8, addend: 0x0, symName: __RNvXs8_NtCsfB93IpvWVaK_3std4timeNtB5_10SystemTimeINtNtNtCs5FIOKSViJ8s_4core3ops5arith3SubNtNtBS_4time8DurationE3sub, symObjAddr: 0x45BF0, symBinAddr: 0x100042D74, symSize: 0x5C }
  - { offset: 0xBCD8F, size: 0x8, addend: 0x0, symName: __RNvXs8_NtCsfB93IpvWVaK_3std4timeNtB5_10SystemTimeINtNtNtCs5FIOKSViJ8s_4core3ops5arith3SubNtNtBS_4time8DurationE3sub, symObjAddr: 0x45BF0, symBinAddr: 0x100042D74, symSize: 0x5C }
  - { offset: 0xBCDA3, size: 0x8, addend: 0x0, symName: __RNvXs8_NtCsfB93IpvWVaK_3std4timeNtB5_10SystemTimeINtNtNtCs5FIOKSViJ8s_4core3ops5arith3SubNtNtBS_4time8DurationE3sub, symObjAddr: 0x45BF0, symBinAddr: 0x100042D74, symSize: 0x5C }
  - { offset: 0xBCDB8, size: 0x8, addend: 0x0, symName: __RNvXs8_NtCsfB93IpvWVaK_3std4timeNtB5_10SystemTimeINtNtNtCs5FIOKSViJ8s_4core3ops5arith3SubNtNtBS_4time8DurationE3sub, symObjAddr: 0x45BF0, symBinAddr: 0x100042D74, symSize: 0x5C }
  - { offset: 0xBCE4D, size: 0x8, addend: 0x0, symName: __RNvXs9_NtCsfB93IpvWVaK_3std4timeNtB5_10SystemTimeINtNtNtCs5FIOKSViJ8s_4core3ops5arith9SubAssignNtNtBS_4time8DurationE10sub_assign, symObjAddr: 0x45F2C, symBinAddr: 0x1000430B0, symSize: 0x74 }
  - { offset: 0xBCF4F, size: 0x8, addend: 0x0, symName: __RNvXsa_NtCsfB93IpvWVaK_3std4timeNtB5_10SystemTimeNtNtCs5FIOKSViJ8s_4core3fmt5Debug3fmt, symObjAddr: 0x49150, symBinAddr: 0x1000462D4, symSize: 0x80 }
  - { offset: 0xBCF86, size: 0x8, addend: 0x0, symName: __RNvXsd_NtCsfB93IpvWVaK_3std4timeNtB5_15SystemTimeErrorNtNtCs5FIOKSViJ8s_4core3fmt7Display3fmt, symObjAddr: 0x49B24, symBinAddr: 0x100046CA8, symSize: 0x18 }
  - { offset: 0xBCFA4, size: 0x8, addend: 0x0, symName: __RNvXsd_NtCsfB93IpvWVaK_3std4timeNtB5_15SystemTimeErrorNtNtCs5FIOKSViJ8s_4core3fmt7Display3fmt, symObjAddr: 0x49B24, symBinAddr: 0x100046CA8, symSize: 0x18 }
  - { offset: 0xBCFC9, size: 0x8, addend: 0x0, symName: __RNvMNtNtCsfB93IpvWVaK_3std3net3tcpNtB2_9TcpStream10local_addr, symObjAddr: 0x16BA8, symBinAddr: 0x100015B90, symSize: 0xC }
  - { offset: 0xBCFE3, size: 0x8, addend: 0x0, symName: __RNvMNtNtCsfB93IpvWVaK_3std3net3tcpNtB2_9TcpStream10set_linger, symObjAddr: 0x16BB4, symBinAddr: 0x100015B9C, symSize: 0x74 }
  - { offset: 0xBD0F8, size: 0x8, addend: 0x0, symName: __RNvMNtNtCsfB93IpvWVaK_3std3net3tcpNtB2_9TcpStream10take_error, symObjAddr: 0x16C28, symBinAddr: 0x100015C10, symSize: 0x74 }
  - { offset: 0xBD1F0, size: 0x8, addend: 0x0, symName: __RNvMNtNtCsfB93IpvWVaK_3std3net3tcpNtB2_9TcpStream11set_nodelay, symObjAddr: 0x16C9C, symBinAddr: 0x100015C84, symSize: 0x54 }
  - { offset: 0xBD2B8, size: 0x8, addend: 0x0, symName: __RNvMNtNtCsfB93IpvWVaK_3std3net3tcpNtB2_9TcpStream12read_timeout, symObjAddr: 0x16CF0, symBinAddr: 0x100015CD8, symSize: 0xE0 }
  - { offset: 0xBD3D7, size: 0x8, addend: 0x0, symName: __RNvMNtNtCsfB93IpvWVaK_3std3net3tcpNtB2_9TcpStream13write_timeout, symObjAddr: 0x16DD0, symBinAddr: 0x100015DB8, symSize: 0xE0 }
  - { offset: 0xBD4F6, size: 0x8, addend: 0x0, symName: __RNvMNtNtCsfB93IpvWVaK_3std3net3tcpNtB2_9TcpStream15connect_timeout, symObjAddr: 0x16EB0, symBinAddr: 0x100015E98, symSize: 0x420 }
  - { offset: 0xBDB48, size: 0x8, addend: 0x0, symName: __RNvMNtNtCsfB93IpvWVaK_3std3net3tcpNtB2_9TcpStream15set_nonblocking, symObjAddr: 0x172D0, symBinAddr: 0x1000162B8, symSize: 0x54 }
  - { offset: 0xBDBFB, size: 0x8, addend: 0x0, symName: __RNvMNtNtCsfB93IpvWVaK_3std3net3tcpNtB2_9TcpStream16set_read_timeout, symObjAddr: 0x17324, symBinAddr: 0x10001630C, symSize: 0xC0 }
  - { offset: 0xBDCD0, size: 0x8, addend: 0x0, symName: __RNvMNtNtCsfB93IpvWVaK_3std3net3tcpNtB2_9TcpStream17set_write_timeout, symObjAddr: 0x173E4, symBinAddr: 0x1000163CC, symSize: 0xC0 }
  - { offset: 0xBDDA5, size: 0x8, addend: 0x0, symName: __RNvMNtNtCsfB93IpvWVaK_3std3net3tcpNtB2_9TcpStream3ttl, symObjAddr: 0x174A4, symBinAddr: 0x10001648C, symSize: 0x78 }
  - { offset: 0xBDE72, size: 0x8, addend: 0x0, symName: __RNvMNtNtCsfB93IpvWVaK_3std3net3tcpNtB2_9TcpStream4peek, symObjAddr: 0x1751C, symBinAddr: 0x100016504, symSize: 0x44 }
  - { offset: 0xBDF3B, size: 0x8, addend: 0x0, symName: __RNvMNtNtCsfB93IpvWVaK_3std3net3tcpNtB2_9TcpStream6linger, symObjAddr: 0x17560, symBinAddr: 0x100016548, symSize: 0x88 }
  - { offset: 0xBE01D, size: 0x8, addend: 0x0, symName: __RNvMNtNtCsfB93IpvWVaK_3std3net3tcpNtB2_9TcpStream7nodelay, symObjAddr: 0x175E8, symBinAddr: 0x1000165D0, symSize: 0x80 }
  - { offset: 0xBE100, size: 0x8, addend: 0x0, symName: __RNvMNtNtCsfB93IpvWVaK_3std3net3tcpNtB2_9TcpStream7set_ttl, symObjAddr: 0x17668, symBinAddr: 0x100016650, symSize: 0x54 }
  - { offset: 0xBE1B2, size: 0x8, addend: 0x0, symName: __RNvMNtNtCsfB93IpvWVaK_3std3net3tcpNtB2_9TcpStream8shutdown, symObjAddr: 0x176BC, symBinAddr: 0x1000166A4, symSize: 0x3C }
  - { offset: 0xBE263, size: 0x8, addend: 0x0, symName: __RNvMNtNtCsfB93IpvWVaK_3std3net3tcpNtB2_9TcpStream9peer_addr, symObjAddr: 0x176F8, symBinAddr: 0x1000166E0, symSize: 0xC }
  - { offset: 0xBE27D, size: 0x8, addend: 0x0, symName: __RNvMNtNtCsfB93IpvWVaK_3std3net3tcpNtB2_9TcpStream9try_clone, symObjAddr: 0x17704, symBinAddr: 0x1000166EC, symSize: 0x68 }
  - { offset: 0xBE353, size: 0x8, addend: 0x0, symName: __RNvMs7_NtNtCsfB93IpvWVaK_3std3net3tcpNtB5_11TcpListener11set_only_v6, symObjAddr: 0x22AE0, symBinAddr: 0x100020B60, symSize: 0x54 }
  - { offset: 0xBE405, size: 0x8, addend: 0x0, symName: __RNvMs7_NtNtCsfB93IpvWVaK_3std3net3tcpNtB5_11TcpListener6accept, symObjAddr: 0x22B34, symBinAddr: 0x100020BB4, symSize: 0x1CC }
  - { offset: 0xBE6B3, size: 0x8, addend: 0x0, symName: __RNvMs7_NtNtCsfB93IpvWVaK_3std3net3tcpNtB5_11TcpListener7only_v6, symObjAddr: 0x22D00, symBinAddr: 0x100020D80, symSize: 0x80 }
  - { offset: 0xBE786, size: 0x8, addend: 0x0, symName: __RNvXs0_NtNtCsfB93IpvWVaK_3std3net3tcpNtB5_9TcpStreamNtNtB9_2io5Write14write_vectored, symObjAddr: 0x3F354, symBinAddr: 0x10003C508, symSize: 0x54 }
  - { offset: 0xBE894, size: 0x8, addend: 0x0, symName: __RNvXs1_NtNtCsfB93IpvWVaK_3std3net3tcpRNtB5_9TcpStreamNtNtB9_2io4Read13read_vectored, symObjAddr: 0x3FE58, symBinAddr: 0x10003CFDC, symSize: 0x58 }
  - { offset: 0xBE99A, size: 0x8, addend: 0x0, symName: __RNvXs1_NtNtCsfB93IpvWVaK_3std3net3tcpRNtB5_9TcpStreamNtNtB9_2io4Read4read, symObjAddr: 0x3FEB0, symBinAddr: 0x10003D034, symSize: 0x48 }
  - { offset: 0xBEA63, size: 0x8, addend: 0x0, symName: __RNvXs1_NtNtCsfB93IpvWVaK_3std3net3tcpRNtB5_9TcpStreamNtNtB9_2io4Read8read_buf, symObjAddr: 0x3FEF8, symBinAddr: 0x10003D07C, symSize: 0x74 }
  - { offset: 0xBEBE5, size: 0x8, addend: 0x0, symName: __RNvXs2_NtNtCsfB93IpvWVaK_3std3net3tcpRNtB5_9TcpStreamNtNtB9_2io5Write14write_vectored, symObjAddr: 0x41628, symBinAddr: 0x10003E7AC, symSize: 0x58 }
  - { offset: 0xBECED, size: 0x8, addend: 0x0, symName: __RNvXs2_NtNtCsfB93IpvWVaK_3std3net3tcpRNtB5_9TcpStreamNtNtB9_2io5Write5write, symObjAddr: 0x41680, symBinAddr: 0x10003E804, symSize: 0x50 }
  - { offset: 0xBEDA4, size: 0x8, addend: 0x0, symName: __RNvXs6_NtNtCsfB93IpvWVaK_3std3net3tcpNtB5_9TcpStreamNtNtCs5FIOKSViJ8s_4core3fmt5Debug3fmt, symObjAddr: 0x449F4, symBinAddr: 0x100041B78, symSize: 0x4 }
  - { offset: 0xBEDC5, size: 0x8, addend: 0x0, symName: __RNvXs8_NtNtCsfB93IpvWVaK_3std3net3tcpNtB5_8IncomingNtNtNtNtCs5FIOKSViJ8s_4core4iter6traits8iterator8Iterator4next, symObjAddr: 0x45D3C, symBinAddr: 0x100042EC0, symSize: 0x40 }
  - { offset: 0xBEDFC, size: 0x8, addend: 0x0, symName: __RNvXs_NtNtCsfB93IpvWVaK_3std3net3tcpNtB4_9TcpStreamNtNtB8_2io4Read13read_vectored, symObjAddr: 0x477C8, symBinAddr: 0x10004494C, symSize: 0x54 }
  - { offset: 0xBEF02, size: 0x8, addend: 0x0, symName: __RNvXs_NtNtCsfB93IpvWVaK_3std3net3tcpNtB4_9TcpStreamNtNtB8_2io4Read8read_buf, symObjAddr: 0x4781C, symBinAddr: 0x1000449A0, symSize: 0x70 }
  - { offset: 0xBF084, size: 0x8, addend: 0x0, symName: __RNvXsa_NtNtCsfB93IpvWVaK_3std3net3tcpNtB5_12IntoIncomingNtNtNtNtCs5FIOKSViJ8s_4core4iter6traits8iterator8Iterator4next, symObjAddr: 0x491D0, symBinAddr: 0x100046354, symSize: 0x3C }
  - { offset: 0xBF0BB, size: 0x8, addend: 0x0, symName: __RNvXsf_NtNtCsfB93IpvWVaK_3std3net3tcpNtB5_11TcpListenerNtNtCs5FIOKSViJ8s_4core3fmt5Debug3fmt, symObjAddr: 0x4A408, symBinAddr: 0x10004758C, symSize: 0x4 }
  - { offset: 0xBF0E2, size: 0x8, addend: 0x0, symName: __RNvMNtNtCsfB93IpvWVaK_3std3net3udpNtB2_9UdpSocket13set_broadcast, symObjAddr: 0x1776C, symBinAddr: 0x100016754, symSize: 0x54 }
  - { offset: 0xBF194, size: 0x8, addend: 0x0, symName: __RNvMNtNtCsfB93IpvWVaK_3std3net3udpNtB2_9UdpSocket16multicast_ttl_v4, symObjAddr: 0x177C0, symBinAddr: 0x1000167A8, symSize: 0x78 }
  - { offset: 0xBF261, size: 0x8, addend: 0x0, symName: __RNvMNtNtCsfB93IpvWVaK_3std3net3udpNtB2_9UdpSocket17join_multicast_v4, symObjAddr: 0x17838, symBinAddr: 0x100016820, symSize: 0x60 }
  - { offset: 0xBF313, size: 0x8, addend: 0x0, symName: __RNvMNtNtCsfB93IpvWVaK_3std3net3udpNtB2_9UdpSocket17join_multicast_v6, symObjAddr: 0x17898, symBinAddr: 0x100016880, symSize: 0x5C }
  - { offset: 0xBF3DA, size: 0x8, addend: 0x0, symName: __RNvMNtNtCsfB93IpvWVaK_3std3net3udpNtB2_9UdpSocket17multicast_loop_v4, symObjAddr: 0x178F4, symBinAddr: 0x1000168DC, symSize: 0x80 }
  - { offset: 0xBF4A7, size: 0x8, addend: 0x0, symName: __RNvMNtNtCsfB93IpvWVaK_3std3net3udpNtB2_9UdpSocket17multicast_loop_v6, symObjAddr: 0x17974, symBinAddr: 0x10001695C, symSize: 0x80 }
  - { offset: 0xBF574, size: 0x8, addend: 0x0, symName: __RNvMNtNtCsfB93IpvWVaK_3std3net3udpNtB2_9UdpSocket18leave_multicast_v4, symObjAddr: 0x179F4, symBinAddr: 0x1000169DC, symSize: 0x60 }
  - { offset: 0xBF626, size: 0x8, addend: 0x0, symName: __RNvMNtNtCsfB93IpvWVaK_3std3net3udpNtB2_9UdpSocket18leave_multicast_v6, symObjAddr: 0x17A54, symBinAddr: 0x100016A3C, symSize: 0x5C }
  - { offset: 0xBF6ED, size: 0x8, addend: 0x0, symName: __RNvMNtNtCsfB93IpvWVaK_3std3net3udpNtB2_9UdpSocket20set_multicast_ttl_v4, symObjAddr: 0x17AB0, symBinAddr: 0x100016A98, symSize: 0x54 }
  - { offset: 0xBF79F, size: 0x8, addend: 0x0, symName: __RNvMNtNtCsfB93IpvWVaK_3std3net3udpNtB2_9UdpSocket21set_multicast_loop_v4, symObjAddr: 0x17B04, symBinAddr: 0x100016AEC, symSize: 0x54 }
  - { offset: 0xBF851, size: 0x8, addend: 0x0, symName: __RNvMNtNtCsfB93IpvWVaK_3std3net3udpNtB2_9UdpSocket21set_multicast_loop_v6, symObjAddr: 0x17B58, symBinAddr: 0x100016B40, symSize: 0x54 }
  - { offset: 0xBF903, size: 0x8, addend: 0x0, symName: __RNvMNtNtCsfB93IpvWVaK_3std3net3udpNtB2_9UdpSocket4recv, symObjAddr: 0x17BAC, symBinAddr: 0x100016B94, symSize: 0x44 }
  - { offset: 0xBF9CC, size: 0x8, addend: 0x0, symName: __RNvMNtNtCsfB93IpvWVaK_3std3net3udpNtB2_9UdpSocket4send, symObjAddr: 0x17BF0, symBinAddr: 0x100016BD8, symSize: 0x4C }
  - { offset: 0xBFA7D, size: 0x8, addend: 0x0, symName: __RNvMNtNtCsfB93IpvWVaK_3std3net3udpNtB2_9UdpSocket9broadcast, symObjAddr: 0x17C3C, symBinAddr: 0x100016C24, symSize: 0x80 }
  - { offset: 0xBFB4A, size: 0x8, addend: 0x0, symName: __RNvMNtNtCsfB93IpvWVaK_3std3net3udpNtB2_9UdpSocket9peek_from, symObjAddr: 0x17CBC, symBinAddr: 0x100016CA4, symSize: 0x18 }
  - { offset: 0xBFB8F, size: 0x8, addend: 0x0, symName: __RNvMNtNtCsfB93IpvWVaK_3std3net3udpNtB2_9UdpSocket9peer_addr, symObjAddr: 0x17CD4, symBinAddr: 0x100016CBC, symSize: 0x144 }
  - { offset: 0xBFD21, size: 0x8, addend: 0x0, symName: __RNvMNtNtCsfB93IpvWVaK_3std3net3udpNtB2_9UdpSocket9recv_from, symObjAddr: 0x17E18, symBinAddr: 0x100016E00, symSize: 0x18 }
  - { offset: 0xBFD6C, size: 0x8, addend: 0x0, symName: __RNvXs2_NtNtCsfB93IpvWVaK_3std3net3udpNtB5_9UdpSocketNtNtCs5FIOKSViJ8s_4core3fmt5Debug3fmt, symObjAddr: 0x416D0, symBinAddr: 0x10003E854, symSize: 0x4 }
  - { offset: 0xBFD8E, size: 0x8, addend: 0x0, symName: __RNvNtNtCsfB93IpvWVaK_3std3net11socket_addr11lookup_host, symObjAddr: 0x3258C, symBinAddr: 0x100030394, symSize: 0x244 }
  - { offset: 0xC0180, size: 0x8, addend: 0x0, symName: __RNvXs4_NtNtCsfB93IpvWVaK_3std3net11socket_addrTRetENtB5_13ToSocketAddrs15to_socket_addrs, symObjAddr: 0x43AB4, symBinAddr: 0x100040C38, symSize: 0xF4 }
  - { offset: 0xC0269, size: 0x8, addend: 0x0, symName: __RNvXs5_NtNtCsfB93IpvWVaK_3std3net11socket_addrTNtNtCs7QfUfi8dEu5_5alloc6string6StringtENtB5_13ToSocketAddrs15to_socket_addrs, symObjAddr: 0x443B4, symBinAddr: 0x100041538, symSize: 0x30 }
  - { offset: 0xC0325, size: 0x8, addend: 0x0, symName: __RNvXs6_NtNtCsfB93IpvWVaK_3std3net11socket_addreNtB5_13ToSocketAddrs15to_socket_addrs, symObjAddr: 0x4482C, symBinAddr: 0x1000419B0, symSize: 0x1C8 }
  - { offset: 0xC062B, size: 0x8, addend: 0x0, symName: __RNvXs9_NtNtCsfB93IpvWVaK_3std3net11socket_addrNtNtCs7QfUfi8dEu5_5alloc6string6StringNtB5_13ToSocketAddrs15to_socket_addrs, symObjAddr: 0x463E4, symBinAddr: 0x100043568, symSize: 0xC }
  - { offset: 0xC064A, size: 0x8, addend: 0x0, symName: __RNvXs9_NtNtCsfB93IpvWVaK_3std3net11socket_addrNtNtCs7QfUfi8dEu5_5alloc6string6StringNtB5_13ToSocketAddrs15to_socket_addrs, symObjAddr: 0x463E4, symBinAddr: 0x100043568, symSize: 0xC }
  - { offset: 0xC0660, size: 0x8, addend: 0x0, symName: __RNvXs9_NtNtCsfB93IpvWVaK_3std3net11socket_addrNtNtCs7QfUfi8dEu5_5alloc6string6StringNtB5_13ToSocketAddrs15to_socket_addrs, symObjAddr: 0x463E4, symBinAddr: 0x100043568, symSize: 0xC }
  - { offset: 0xC0675, size: 0x8, addend: 0x0, symName: __RNvXs9_NtNtCsfB93IpvWVaK_3std3net11socket_addrNtNtCs7QfUfi8dEu5_5alloc6string6StringNtB5_13ToSocketAddrs15to_socket_addrs, symObjAddr: 0x463E4, symBinAddr: 0x100043568, symSize: 0xC }
  - { offset: 0xC068A, size: 0x8, addend: 0x0, symName: __RNvXs9_NtNtCsfB93IpvWVaK_3std3net11socket_addrNtNtCs7QfUfi8dEu5_5alloc6string6StringNtB5_13ToSocketAddrs15to_socket_addrs, symObjAddr: 0x463E4, symBinAddr: 0x100043568, symSize: 0xC }
  - { offset: 0xC069F, size: 0x8, addend: 0x0, symName: __RNvXs9_NtNtCsfB93IpvWVaK_3std3net11socket_addrNtNtCs7QfUfi8dEu5_5alloc6string6StringNtB5_13ToSocketAddrs15to_socket_addrs, symObjAddr: 0x463E4, symBinAddr: 0x100043568, symSize: 0xC }
  - { offset: 0xC06B4, size: 0x8, addend: 0x0, symName: __RNvXs9_NtNtCsfB93IpvWVaK_3std3net11socket_addrNtNtCs7QfUfi8dEu5_5alloc6string6StringNtB5_13ToSocketAddrs15to_socket_addrs, symObjAddr: 0x463E4, symBinAddr: 0x100043568, symSize: 0xC }
  - { offset: 0xC06C9, size: 0x8, addend: 0x0, symName: __RNvXs9_NtNtCsfB93IpvWVaK_3std3net11socket_addrNtNtCs7QfUfi8dEu5_5alloc6string6StringNtB5_13ToSocketAddrs15to_socket_addrs, symObjAddr: 0x463E4, symBinAddr: 0x100043568, symSize: 0xC }
  - { offset: 0xC06E9, size: 0x8, addend: 0x0, symName: __RNvNtNtCsfB93IpvWVaK_3std3net8hostname8hostname, symObjAddr: 0x327D0, symBinAddr: 0x1000305D8, symSize: 0x14C }
  - { offset: 0xC0A2B, size: 0x8, addend: 0x0, symName: __RNvNtCsfB93IpvWVaK_3std5panic13resume_unwind, symObjAddr: 0x315BC, symBinAddr: 0x10008D824, symSize: 0xC }
  - { offset: 0xC0A66, size: 0x8, addend: 0x0, symName: __RNvNtCsfB93IpvWVaK_3std5panic19get_backtrace_style, symObjAddr: 0x315C8, symBinAddr: 0x10002F498, symSize: 0x1A0 }
  - { offset: 0xC0A84, size: 0x8, addend: 0x0, symName: __RNvNtCsfB93IpvWVaK_3std5panic19get_backtrace_style, symObjAddr: 0x315C8, symBinAddr: 0x10002F498, symSize: 0x1A0 }
  - { offset: 0xC0A99, size: 0x8, addend: 0x0, symName: __RNvNtCsfB93IpvWVaK_3std5panic19get_backtrace_style, symObjAddr: 0x315C8, symBinAddr: 0x10002F498, symSize: 0x1A0 }
  - { offset: 0xC0FAA, size: 0x8, addend: 0x0, symName: __RNvNtCsfB93IpvWVaK_3std5panic19set_backtrace_style, symObjAddr: 0x31768, symBinAddr: 0x10002F638, symSize: 0x10 }
  - { offset: 0xC0FC8, size: 0x8, addend: 0x0, symName: __RNvNtCsfB93IpvWVaK_3std5panic19set_backtrace_style, symObjAddr: 0x31768, symBinAddr: 0x10002F638, symSize: 0x10 }
  - { offset: 0xC105A, size: 0x8, addend: 0x0, symName: __RNvXs_NtCsfB93IpvWVaK_3std5panicNtB4_13PanicHookInfoNtNtCs5FIOKSViJ8s_4core3fmt7Display3fmt, symObjAddr: 0x46F8C, symBinAddr: 0x100044110, symSize: 0x168 }
  - { offset: 0xC12C5, size: 0x8, addend: 0x0, symName: __RNvXs0_NtCsfB93IpvWVaK_3std3envNtB5_6VarsOsNtNtNtNtCs5FIOKSViJ8s_4core4iter6traits8iterator8Iterator4next, symObjAddr: 0x3EBB0, symBinAddr: 0x10003BD64, symSize: 0x38 }
  - { offset: 0xC1345, size: 0x8, addend: 0x0, symName: __RNvXs0_NtCsfB93IpvWVaK_3std3envNtB5_6VarsOsNtNtNtNtCs5FIOKSViJ8s_4core4iter6traits8iterator8Iterator9size_hint, symObjAddr: 0x3EBE8, symBinAddr: 0x10003BD9C, symSize: 0x2C }
  - { offset: 0xC135C, size: 0x8, addend: 0x0, symName: __RNvXs0_NtCsfB93IpvWVaK_3std3envNtB5_6VarsOsNtNtNtNtCs5FIOKSViJ8s_4core4iter6traits8iterator8Iterator9size_hint, symObjAddr: 0x3EBE8, symBinAddr: 0x10003BD9C, symSize: 0x2C }
  - { offset: 0xC13C5, size: 0x8, addend: 0x0, symName: __RNvNtCsfB93IpvWVaK_3std3env11current_dir, symObjAddr: 0x303E0, symBinAddr: 0x10002E2D4, symSize: 0x198 }
  - { offset: 0xC182B, size: 0x8, addend: 0x0, symName: __RNvNtCsfB93IpvWVaK_3std3env11current_exe, symObjAddr: 0x30578, symBinAddr: 0x10002E46C, symSize: 0xCC }
  - { offset: 0xC1A6D, size: 0x8, addend: 0x0, symName: __RNvNtCsfB93IpvWVaK_3std3env4__var, symObjAddr: 0x30644, symBinAddr: 0x10002E538, symSize: 0x144 }
  - { offset: 0xC1C41, size: 0x8, addend: 0x0, symName: __RNvNtCsfB93IpvWVaK_3std3env4args, symObjAddr: 0x30788, symBinAddr: 0x10002E67C, symSize: 0x4 }
  - { offset: 0xC1C5C, size: 0x8, addend: 0x0, symName: __RNvNtCsfB93IpvWVaK_3std3env4vars, symObjAddr: 0x3078C, symBinAddr: 0x10002E680, symSize: 0x4 }
  - { offset: 0xC1C75, size: 0x8, addend: 0x0, symName: __RNvNtCsfB93IpvWVaK_3std3env7__var_os, symObjAddr: 0x30790, symBinAddr: 0x10002E684, symSize: 0xF0 }
  - { offset: 0xC1D2E, size: 0x8, addend: 0x0, symName: __RNvNtCsfB93IpvWVaK_3std3env7args_os, symObjAddr: 0x30880, symBinAddr: 0x10002E774, symSize: 0x1A4 }
  - { offset: 0xC2213, size: 0x8, addend: 0x0, symName: __RNvNtCsfB93IpvWVaK_3std3env7vars_os, symObjAddr: 0x30A24, symBinAddr: 0x10002E918, symSize: 0x338 }
  - { offset: 0xC2819, size: 0x8, addend: 0x0, symName: __RNvNtCsfB93IpvWVaK_3std3env8home_dir, symObjAddr: 0x30D5C, symBinAddr: 0x10002EC50, symSize: 0x200 }
  - { offset: 0xC2D8B, size: 0x8, addend: 0x0, symName: __RNvNtCsfB93IpvWVaK_3std3env8temp_dir, symObjAddr: 0x30F5C, symBinAddr: 0x10002EE50, symSize: 0x234 }
  - { offset: 0xC32CD, size: 0x8, addend: 0x0, symName: __RNvXNtCsfB93IpvWVaK_3std3envNtB2_4VarsNtNtNtNtCs5FIOKSViJ8s_4core4iter6traits8iterator8Iterator4next, symObjAddr: 0x3CCB0, symBinAddr: 0x100039EC4, symSize: 0x1B8 }
  - { offset: 0xC38CA, size: 0x8, addend: 0x0, symName: __RNvXNtCsfB93IpvWVaK_3std3envNtB2_4VarsNtNtNtNtCs5FIOKSViJ8s_4core4iter6traits8iterator8Iterator9size_hint, symObjAddr: 0x3CE68, symBinAddr: 0x10003A07C, symSize: 0x2C }
  - { offset: 0xC38E7, size: 0x8, addend: 0x0, symName: __RNvXNtCsfB93IpvWVaK_3std3envNtB2_4VarsNtNtNtNtCs5FIOKSViJ8s_4core4iter6traits8iterator8Iterator9size_hint, symObjAddr: 0x3CE68, symBinAddr: 0x10003A07C, symSize: 0x2C }
  - { offset: 0xC38FB, size: 0x8, addend: 0x0, symName: __RNvXNtCsfB93IpvWVaK_3std3envNtB2_4VarsNtNtNtNtCs5FIOKSViJ8s_4core4iter6traits8iterator8Iterator9size_hint, symObjAddr: 0x3CE68, symBinAddr: 0x10003A07C, symSize: 0x2C }
  - { offset: 0xC396A, size: 0x8, addend: 0x0, symName: __RNvXs1_NtCsfB93IpvWVaK_3std3envNtB5_6VarsOsNtNtCs5FIOKSViJ8s_4core3fmt5Debug3fmt, symObjAddr: 0x3FC84, symBinAddr: 0x10003CE08, symSize: 0x64 }
  - { offset: 0xC398A, size: 0x8, addend: 0x0, symName: __RNvXs2_NtCsfB93IpvWVaK_3std3envNtB5_8VarErrorNtNtCs5FIOKSViJ8s_4core3fmt7Display3fmt, symObjAddr: 0x41374, symBinAddr: 0x10003E4F8, symSize: 0x68 }
  - { offset: 0xC39D8, size: 0x8, addend: 0x0, symName: __RNvXs4_NtCsfB93IpvWVaK_3std3envNtB5_10SplitPathsNtNtNtNtCs5FIOKSViJ8s_4core4iter6traits8iterator8Iterator4next, symObjAddr: 0x42D50, symBinAddr: 0x10003FED4, symSize: 0xC8 }
  - { offset: 0xC3BA3, size: 0x8, addend: 0x0, symName: __RNvXs5_NtCsfB93IpvWVaK_3std3envNtB5_10SplitPathsNtNtCs5FIOKSViJ8s_4core3fmt5Debug3fmt, symObjAddr: 0x43C44, symBinAddr: 0x100040DC8, symSize: 0x38 }
  - { offset: 0xC3BC4, size: 0x8, addend: 0x0, symName: __RNvXs6_NtCsfB93IpvWVaK_3std3envNtB5_14JoinPathsErrorNtNtCs5FIOKSViJ8s_4core3fmt7Display3fmt, symObjAddr: 0x444C0, symBinAddr: 0x100041644, symSize: 0x44 }
  - { offset: 0xC3C25, size: 0x8, addend: 0x0, symName: __RNvXs_NtCsfB93IpvWVaK_3std3envNtB4_4VarsNtNtCs5FIOKSViJ8s_4core3fmt5Debug3fmt, symObjAddr: 0x46EC4, symBinAddr: 0x100044048, symSize: 0x64 }
  - { offset: 0xC3C6B, size: 0x8, addend: 0x0, symName: __RNvXsa_NtCsfB93IpvWVaK_3std3envNtB5_4ArgsNtNtNtNtCs5FIOKSViJ8s_4core4iter6traits8iterator8Iterator4next, symObjAddr: 0x49068, symBinAddr: 0x1000461EC, symSize: 0xE8 }
  - { offset: 0xC3F2C, size: 0x8, addend: 0x0, symName: __RNvXsc_NtCsfB93IpvWVaK_3std3envNtB5_4ArgsNtNtNtNtCs5FIOKSViJ8s_4core4iter6traits12double_ended19DoubleEndedIterator9next_back, symObjAddr: 0x49578, symBinAddr: 0x1000466FC, symSize: 0xE4 }
  - { offset: 0xC419F, size: 0x8, addend: 0x0, symName: __RNvXsd_NtCsfB93IpvWVaK_3std3envNtB5_4ArgsNtNtCs5FIOKSViJ8s_4core3fmt5Debug3fmt, symObjAddr: 0x49AC0, symBinAddr: 0x100046C44, symSize: 0x64 }
  - { offset: 0xC41C0, size: 0x8, addend: 0x0, symName: __RNvXsj_NtCsfB93IpvWVaK_3std3envNtB5_6ArgsOsNtNtCs5FIOKSViJ8s_4core3fmt5Debug3fmt, symObjAddr: 0x4AF98, symBinAddr: 0x10004811C, symSize: 0x64 }
  - { offset: 0xC41E6, size: 0x8, addend: 0x0, symName: __RNvMsN_NtCsfB93IpvWVaK_3std7processNtB5_15ExitStatusError12code_nonzero, symObjAddr: 0x2483C, symBinAddr: 0x1000228BC, symSize: 0x50 }
  - { offset: 0xC42B1, size: 0x8, addend: 0x0, symName: __RNvMsN_NtCsfB93IpvWVaK_3std7processNtB5_15ExitStatusError4code, symObjAddr: 0x2488C, symBinAddr: 0x10002290C, symSize: 0x58 }
  - { offset: 0xC43A3, size: 0x8, addend: 0x0, symName: __RNvMsS_NtCsfB93IpvWVaK_3std7processNtB5_8ExitCode12exit_process, symObjAddr: 0x248E4, symBinAddr: 0x100022964, symSize: 0x10 }
  - { offset: 0xC4426, size: 0x8, addend: 0x0, symName: __RNvMsY_NtCsfB93IpvWVaK_3std7processNtB5_5Child16wait_with_output, symObjAddr: 0x248F4, symBinAddr: 0x100022974, symSize: 0x2F8 }
  - { offset: 0xC48DA, size: 0x8, addend: 0x0, symName: __RNvMsY_NtCsfB93IpvWVaK_3std7processNtB5_5Child4kill, symObjAddr: 0x24BEC, symBinAddr: 0x100022C6C, symSize: 0x4C }
  - { offset: 0xC497C, size: 0x8, addend: 0x0, symName: __RNvMsY_NtCsfB93IpvWVaK_3std7processNtB5_5Child4wait, symObjAddr: 0x24C38, symBinAddr: 0x100022CB8, symSize: 0xFC }
  - { offset: 0xC4AD6, size: 0x8, addend: 0x0, symName: __RNvMsY_NtCsfB93IpvWVaK_3std7processNtB5_5Child8try_wait, symObjAddr: 0x24D34, symBinAddr: 0x100022DB4, symSize: 0xB0 }
  - { offset: 0xC4B9C, size: 0x8, addend: 0x0, symName: __RNvMsk_NtCsfB93IpvWVaK_3std7processNtB5_7Command11get_program, symObjAddr: 0x2DB28, symBinAddr: 0x10002BA1C, symSize: 0x10 }
  - { offset: 0xC4BE2, size: 0x8, addend: 0x0, symName: __RNvMsk_NtCsfB93IpvWVaK_3std7processNtB5_7Command15get_current_dir, symObjAddr: 0x2DB38, symBinAddr: 0x10002BA2C, symSize: 0x10 }
  - { offset: 0xC4C29, size: 0x8, addend: 0x0, symName: __RNvMsk_NtCsfB93IpvWVaK_3std7processNtB5_7Command5spawn, symObjAddr: 0x2DB48, symBinAddr: 0x10002BA3C, symSize: 0x78 }
  - { offset: 0xC4C5A, size: 0x8, addend: 0x0, symName: __RNvMsk_NtCsfB93IpvWVaK_3std7processNtB5_7Command6output, symObjAddr: 0x2DBC0, symBinAddr: 0x10002BAB4, symSize: 0x338 }
  - { offset: 0xC51E2, size: 0x8, addend: 0x0, symName: __RNvMsk_NtCsfB93IpvWVaK_3std7processNtB5_7Command6status, symObjAddr: 0x2DEF8, symBinAddr: 0x10002BDEC, symSize: 0x168 }
  - { offset: 0xC543A, size: 0x8, addend: 0x0, symName: __RNvMsk_NtCsfB93IpvWVaK_3std7processNtB5_7Command8get_args, symObjAddr: 0x2E060, symBinAddr: 0x10002BF54, symSize: 0x44 }
  - { offset: 0xC5515, size: 0x8, addend: 0x0, symName: __RNvMsk_NtCsfB93IpvWVaK_3std7processNtB5_7Command9env_clear, symObjAddr: 0x2E0A4, symBinAddr: 0x10002BF98, symSize: 0xE0 }
  - { offset: 0xC586C, size: 0x8, addend: 0x0, symName: __RNvMst_NtCsfB93IpvWVaK_3std7processNtB5_6Output7exit_ok, symObjAddr: 0x2F5D0, symBinAddr: 0x10002D4C4, symSize: 0x7C }
  - { offset: 0xC5A62, size: 0x8, addend: 0x0, symName: __RNvNtCsfB93IpvWVaK_3std7process2id, symObjAddr: 0x31778, symBinAddr: 0x10002F648, symSize: 0x4 }
  - { offset: 0xC5A80, size: 0x8, addend: 0x0, symName: __RNvNtCsfB93IpvWVaK_3std7process2id, symObjAddr: 0x31778, symBinAddr: 0x10002F648, symSize: 0x4 }
  - { offset: 0xC5A93, size: 0x8, addend: 0x0, symName: __RNvNtCsfB93IpvWVaK_3std7process4exit, symObjAddr: 0x3177C, symBinAddr: 0x10002F64C, symSize: 0x1C }
  - { offset: 0xC5AAE, size: 0x8, addend: 0x0, symName: __RNvNtCsfB93IpvWVaK_3std7process5abort, symObjAddr: 0x31798, symBinAddr: 0x10008D830, symSize: 0xC }
  - { offset: 0xC5ACE, size: 0x8, addend: 0x0, symName: __RNvXs1_NtCsfB93IpvWVaK_3std7processNtB5_5ChildINtNtB7_3sys9IntoInnerNtNtNtNtBL_7process4unix4unix7ProcessE10into_inner, symObjAddr: 0x3FD44, symBinAddr: 0x10003CEC8, symSize: 0x60 }
  - { offset: 0xC5C4C, size: 0x8, addend: 0x0, symName: __RNvXs1f_NtCsfB93IpvWVaK_3std7processNtB6_10ExitStatusNtNtCs5FIOKSViJ8s_4core3fmt5Debug3fmt, symObjAddr: 0x40508, symBinAddr: 0x10003D68C, symSize: 0x40 }
  - { offset: 0xC5C7A, size: 0x8, addend: 0x0, symName: __RNvXs8_NtCsfB93IpvWVaK_3std7processNtB5_10ChildStdinNtNtCs5FIOKSViJ8s_4core3fmt5Debug3fmt, symObjAddr: 0x45C4C, symBinAddr: 0x100042DD0, symSize: 0x38 }
  - { offset: 0xC5CA1, size: 0x8, addend: 0x0, symName: __RNvXsi_NtCsfB93IpvWVaK_3std7processNtB5_11ChildStderrNtNtCs5FIOKSViJ8s_4core3fmt5Debug3fmt, symObjAddr: 0x4AF28, symBinAddr: 0x1000480AC, symSize: 0x38 }
  - { offset: 0xC5CC8, size: 0x8, addend: 0x0, symName: __RNvXsd_NtCsfB93IpvWVaK_3std7processNtB5_11ChildStdoutNtNtCs5FIOKSViJ8s_4core3fmt5Debug3fmt, symObjAddr: 0x49B3C, symBinAddr: 0x100046CC0, symSize: 0x38 }
  - { offset: 0xC5CE2, size: 0x8, addend: 0x0, symName: __RNvXs2_NtCsfB93IpvWVaK_3std7processNtB5_5ChildNtNtCs5FIOKSViJ8s_4core3fmt5Debug3fmt, symObjAddr: 0x41450, symBinAddr: 0x10003E5D4, symSize: 0x9C }
  - { offset: 0xC5D1E, size: 0x8, addend: 0x0, symName: __RNvXs4_NtCsfB93IpvWVaK_3std7processRNtB5_10ChildStdinNtNtB7_2io5Write14write_vectored, symObjAddr: 0x42E98, symBinAddr: 0x10004001C, symSize: 0x58 }
  - { offset: 0xC5E1D, size: 0x8, addend: 0x0, symName: __RNvXs4_NtCsfB93IpvWVaK_3std7processRNtB5_10ChildStdinNtNtB7_2io5Write5write, symObjAddr: 0x42EF0, symBinAddr: 0x100040074, symSize: 0x58 }
  - { offset: 0xC5F23, size: 0x8, addend: 0x0, symName: __RNvXs3_NtCsfB93IpvWVaK_3std7processNtB5_10ChildStdinNtNtB7_2io5Write14write_vectored, symObjAddr: 0x41A60, symBinAddr: 0x10003EBE4, symSize: 0x54 }
  - { offset: 0xC6040, size: 0x8, addend: 0x0, symName: __RNvXs3_NtCsfB93IpvWVaK_3std7processNtB5_10ChildStdinNtNtB7_2io5Write5write, symObjAddr: 0x41AB4, symBinAddr: 0x10003EC38, symSize: 0x54 }
  - { offset: 0xC6163, size: 0x8, addend: 0x0, symName: __RNvXsL_NtCsfB93IpvWVaK_3std7processNtB5_10ExitStatusNtNtCs5FIOKSViJ8s_4core3fmt7Display3fmt, symObjAddr: 0x46808, symBinAddr: 0x10004398C, symSize: 0x4 }
  - { offset: 0xC6184, size: 0x8, addend: 0x0, symName: __RNvXsP_NtCsfB93IpvWVaK_3std7processNtB5_15ExitStatusErrorNtNtCs5FIOKSViJ8s_4core3fmt7Display3fmt, symObjAddr: 0x4680C, symBinAddr: 0x100043990, symSize: 0x44 }
  - { offset: 0xC61D1, size: 0x8, addend: 0x0, symName: __RNvXsl_NtCsfB93IpvWVaK_3std7processNtB5_7CommandNtNtCs5FIOKSViJ8s_4core3fmt5Debug3fmt, symObjAddr: 0x4B5A0, symBinAddr: 0x100048724, symSize: 0x4 }
  - { offset: 0xC61F2, size: 0x8, addend: 0x0, symName: __RNvXso_NtCsfB93IpvWVaK_3std7processNtB5_11CommandArgsNtNtNtNtCs5FIOKSViJ8s_4core4iter6traits8iterator8Iterator4next, symObjAddr: 0x4B814, symBinAddr: 0x100048998, symSize: 0x44 }
  - { offset: 0xC62A2, size: 0x8, addend: 0x0, symName: __RNvXso_NtCsfB93IpvWVaK_3std7processNtB5_11CommandArgsNtNtNtNtCs5FIOKSViJ8s_4core4iter6traits8iterator8Iterator9size_hint, symObjAddr: 0x4B858, symBinAddr: 0x1000489DC, symSize: 0x1C }
  - { offset: 0xC62C0, size: 0x8, addend: 0x0, symName: __RNvXso_NtCsfB93IpvWVaK_3std7processNtB5_11CommandArgsNtNtNtNtCs5FIOKSViJ8s_4core4iter6traits8iterator8Iterator9size_hint, symObjAddr: 0x4B858, symBinAddr: 0x1000489DC, symSize: 0x1C }
  - { offset: 0xC62D5, size: 0x8, addend: 0x0, symName: __RNvXso_NtCsfB93IpvWVaK_3std7processNtB5_11CommandArgsNtNtNtNtCs5FIOKSViJ8s_4core4iter6traits8iterator8Iterator9size_hint, symObjAddr: 0x4B858, symBinAddr: 0x1000489DC, symSize: 0x1C }
  - { offset: 0xC6345, size: 0x8, addend: 0x0, symName: __RNvXsp_NtCsfB93IpvWVaK_3std7processNtB5_11CommandArgsNtNtNtNtCs5FIOKSViJ8s_4core4iter6traits10exact_size17ExactSizeIterator3len, symObjAddr: 0x4C024, symBinAddr: 0x1000491A8, symSize: 0x10 }
  - { offset: 0xC6363, size: 0x8, addend: 0x0, symName: __RNvXsp_NtCsfB93IpvWVaK_3std7processNtB5_11CommandArgsNtNtNtNtCs5FIOKSViJ8s_4core4iter6traits10exact_size17ExactSizeIterator3len, symObjAddr: 0x4C024, symBinAddr: 0x1000491A8, symSize: 0x10 }
  - { offset: 0xC6378, size: 0x8, addend: 0x0, symName: __RNvXsp_NtCsfB93IpvWVaK_3std7processNtB5_11CommandArgsNtNtNtNtCs5FIOKSViJ8s_4core4iter6traits10exact_size17ExactSizeIterator3len, symObjAddr: 0x4C024, symBinAddr: 0x1000491A8, symSize: 0x10 }
  - { offset: 0xC638D, size: 0x8, addend: 0x0, symName: __RNvXsp_NtCsfB93IpvWVaK_3std7processNtB5_11CommandArgsNtNtNtNtCs5FIOKSViJ8s_4core4iter6traits10exact_size17ExactSizeIterator3len, symObjAddr: 0x4C024, symBinAddr: 0x1000491A8, symSize: 0x10 }
  - { offset: 0xC63E8, size: 0x8, addend: 0x0, symName: __RNvXsq_NtCsfB93IpvWVaK_3std7processNtB5_11CommandEnvsNtNtNtNtCs5FIOKSViJ8s_4core4iter6traits8iterator8Iterator4next, symObjAddr: 0x4C0E0, symBinAddr: 0x100049264, symSize: 0x50 }
  - { offset: 0xC6475, size: 0x8, addend: 0x0, symName: __RNvXss_NtCsfB93IpvWVaK_3std7processNtB5_11CommandEnvsNtNtCs5FIOKSViJ8s_4core3fmt5Debug3fmt, symObjAddr: 0x4C4A8, symBinAddr: 0x10004962C, symSize: 0x4C }
  - { offset: 0xC64AC, size: 0x8, addend: 0x0, symName: __RNvXsu_NtCsfB93IpvWVaK_3std7processNtB5_6OutputNtNtCs5FIOKSViJ8s_4core3fmt5Debug3fmt, symObjAddr: 0x4CD28, symBinAddr: 0x100049EAC, symSize: 0x10C }
  - { offset: 0xC65D9, size: 0x8, addend: 0x0, symName: __RNvXsx_NtCsfB93IpvWVaK_3std7processNtB5_5StdioNtNtCs5FIOKSViJ8s_4core3fmt5Debug3fmt, symObjAddr: 0x4D268, symBinAddr: 0x10004A3EC, symSize: 0x38 }
  - { offset: 0xC6600, size: 0x8, addend: 0x0, symName: __RNvXNtCsfB93IpvWVaK_3std6randomNtB2_19DefaultRandomSourceNtNtCs5FIOKSViJ8s_4core6random12RandomSource10fill_bytes, symObjAddr: 0x3CE94, symBinAddr: 0x10003A0A8, symSize: 0x54 }
  - { offset: 0xC663A, size: 0x8, addend: 0x0, symName: __RNvXs4_NtNtCsfB93IpvWVaK_3std4hash6randomNtB5_11RandomStateNtNtCs5FIOKSViJ8s_4core3fmt5Debug3fmt, symObjAddr: 0x43BA8, symBinAddr: 0x100040D2C, symSize: 0x38 }
  - { offset: 0xC67A0, size: 0x8, addend: 0x0, symName: __RINvMs0_NtNtCs7r4Y2Wsbri8_6object4read7archiveNtB6_13ArchiveMember5parseRShECsfB93IpvWVaK_3std, symObjAddr: 0x2EFC, symBinAddr: 0x1000028EC, symSize: 0x5AC }
  - { offset: 0xC7F69, size: 0x8, addend: 0x0, symName: _OUTLINED_FUNCTION_0, symObjAddr: 0x4E90C, symBinAddr: 0x10004BA90, symSize: 0xC }
  - { offset: 0xC7F81, size: 0x8, addend: 0x0, symName: _OUTLINED_FUNCTION_1, symObjAddr: 0x4E918, symBinAddr: 0x10004BA9C, symSize: 0x8 }
  - { offset: 0xC7F99, size: 0x8, addend: 0x0, symName: _OUTLINED_FUNCTION_2, symObjAddr: 0x4E920, symBinAddr: 0x10004BAA4, symSize: 0xC }
  - { offset: 0xC7FB1, size: 0x8, addend: 0x0, symName: _OUTLINED_FUNCTION_3, symObjAddr: 0x4E92C, symBinAddr: 0x10004BAB0, symSize: 0xC }
  - { offset: 0xC7FC9, size: 0x8, addend: 0x0, symName: _OUTLINED_FUNCTION_4, symObjAddr: 0x4E938, symBinAddr: 0x10004BABC, symSize: 0x10 }
  - { offset: 0xC7FE1, size: 0x8, addend: 0x0, symName: _OUTLINED_FUNCTION_5, symObjAddr: 0x4E948, symBinAddr: 0x10004BACC, symSize: 0xC }
  - { offset: 0xC7FF9, size: 0x8, addend: 0x0, symName: _OUTLINED_FUNCTION_6, symObjAddr: 0x4E954, symBinAddr: 0x10004BAD8, symSize: 0x10 }
  - { offset: 0xC8011, size: 0x8, addend: 0x0, symName: _OUTLINED_FUNCTION_7, symObjAddr: 0x4E964, symBinAddr: 0x10004BAE8, symSize: 0xC }
  - { offset: 0xC8029, size: 0x8, addend: 0x0, symName: _OUTLINED_FUNCTION_8, symObjAddr: 0x4E970, symBinAddr: 0x10004BAF4, symSize: 0xC }
  - { offset: 0xC8041, size: 0x8, addend: 0x0, symName: _OUTLINED_FUNCTION_9, symObjAddr: 0x4E97C, symBinAddr: 0x10004BB00, symSize: 0xC }
  - { offset: 0xC8059, size: 0x8, addend: 0x0, symName: _OUTLINED_FUNCTION_10, symObjAddr: 0x4E988, symBinAddr: 0x10004BB0C, symSize: 0x8 }
  - { offset: 0xC8071, size: 0x8, addend: 0x0, symName: _OUTLINED_FUNCTION_11, symObjAddr: 0x4E990, symBinAddr: 0x10004BB14, symSize: 0x8 }
  - { offset: 0xC8089, size: 0x8, addend: 0x0, symName: _OUTLINED_FUNCTION_12, symObjAddr: 0x4E998, symBinAddr: 0x10004BB1C, symSize: 0x28 }
  - { offset: 0xC80A1, size: 0x8, addend: 0x0, symName: _OUTLINED_FUNCTION_13, symObjAddr: 0x4E9C0, symBinAddr: 0x10004BB44, symSize: 0x14 }
  - { offset: 0xC80B9, size: 0x8, addend: 0x0, symName: _OUTLINED_FUNCTION_14, symObjAddr: 0x4E9D4, symBinAddr: 0x10004BB58, symSize: 0x8 }
  - { offset: 0xC80D1, size: 0x8, addend: 0x0, symName: _OUTLINED_FUNCTION_15, symObjAddr: 0x4E9DC, symBinAddr: 0x10004BB60, symSize: 0xC }
  - { offset: 0xC80E9, size: 0x8, addend: 0x0, symName: _OUTLINED_FUNCTION_16, symObjAddr: 0x4E9E8, symBinAddr: 0x10004BB6C, symSize: 0x10 }
  - { offset: 0xC8101, size: 0x8, addend: 0x0, symName: _OUTLINED_FUNCTION_17, symObjAddr: 0x4E9F8, symBinAddr: 0x10004BB7C, symSize: 0x8 }
  - { offset: 0xC8119, size: 0x8, addend: 0x0, symName: _OUTLINED_FUNCTION_18, symObjAddr: 0x4EA00, symBinAddr: 0x10004BB84, symSize: 0x8 }
  - { offset: 0xC8131, size: 0x8, addend: 0x0, symName: _OUTLINED_FUNCTION_19, symObjAddr: 0x4EA08, symBinAddr: 0x10004BB8C, symSize: 0x8 }
  - { offset: 0xC8149, size: 0x8, addend: 0x0, symName: _OUTLINED_FUNCTION_20, symObjAddr: 0x4EA10, symBinAddr: 0x10004BB94, symSize: 0x10 }
  - { offset: 0xC8161, size: 0x8, addend: 0x0, symName: _OUTLINED_FUNCTION_21, symObjAddr: 0x4EA20, symBinAddr: 0x10004BBA4, symSize: 0x18 }
  - { offset: 0xC8179, size: 0x8, addend: 0x0, symName: _OUTLINED_FUNCTION_22, symObjAddr: 0x4EA38, symBinAddr: 0x10004BBBC, symSize: 0x18 }
  - { offset: 0xC8191, size: 0x8, addend: 0x0, symName: _OUTLINED_FUNCTION_23, symObjAddr: 0x4EA50, symBinAddr: 0x10004BBD4, symSize: 0x8 }
  - { offset: 0xC81A9, size: 0x8, addend: 0x0, symName: _OUTLINED_FUNCTION_24, symObjAddr: 0x4EA58, symBinAddr: 0x10004BBDC, symSize: 0xC }
  - { offset: 0xC81C1, size: 0x8, addend: 0x0, symName: _OUTLINED_FUNCTION_25, symObjAddr: 0x4EA64, symBinAddr: 0x10004BBE8, symSize: 0x8 }
  - { offset: 0xC81D9, size: 0x8, addend: 0x0, symName: _OUTLINED_FUNCTION_26, symObjAddr: 0x4EA6C, symBinAddr: 0x10004BBF0, symSize: 0x8 }
  - { offset: 0xC81F1, size: 0x8, addend: 0x0, symName: _OUTLINED_FUNCTION_27, symObjAddr: 0x4EA74, symBinAddr: 0x10004BBF8, symSize: 0xC }
  - { offset: 0xC8209, size: 0x8, addend: 0x0, symName: _OUTLINED_FUNCTION_28, symObjAddr: 0x4EA80, symBinAddr: 0x10004BC04, symSize: 0x8 }
  - { offset: 0xC8221, size: 0x8, addend: 0x0, symName: _OUTLINED_FUNCTION_29, symObjAddr: 0x4EA88, symBinAddr: 0x10004BC0C, symSize: 0xC }
  - { offset: 0xC8239, size: 0x8, addend: 0x0, symName: _OUTLINED_FUNCTION_30, symObjAddr: 0x4EA94, symBinAddr: 0x10004BC18, symSize: 0x8 }
  - { offset: 0xC8251, size: 0x8, addend: 0x0, symName: _OUTLINED_FUNCTION_31, symObjAddr: 0x4EA9C, symBinAddr: 0x10004BC20, symSize: 0xC }
  - { offset: 0xC8269, size: 0x8, addend: 0x0, symName: _OUTLINED_FUNCTION_32, symObjAddr: 0x4EAA8, symBinAddr: 0x10004BC2C, symSize: 0xC }
  - { offset: 0xC8281, size: 0x8, addend: 0x0, symName: _OUTLINED_FUNCTION_33, symObjAddr: 0x4EAB4, symBinAddr: 0x10004BC38, symSize: 0xC }
  - { offset: 0xC8299, size: 0x8, addend: 0x0, symName: _OUTLINED_FUNCTION_34, symObjAddr: 0x4EAC0, symBinAddr: 0x10004BC44, symSize: 0x10 }
  - { offset: 0xC82B1, size: 0x8, addend: 0x0, symName: _OUTLINED_FUNCTION_35, symObjAddr: 0x4EAD0, symBinAddr: 0x10004BC54, symSize: 0xC }
  - { offset: 0xC82C9, size: 0x8, addend: 0x0, symName: _OUTLINED_FUNCTION_36, symObjAddr: 0x4EADC, symBinAddr: 0x10004BC60, symSize: 0x14 }
  - { offset: 0xC82E1, size: 0x8, addend: 0x0, symName: _OUTLINED_FUNCTION_37, symObjAddr: 0x4EAF0, symBinAddr: 0x10004BC74, symSize: 0x14 }
  - { offset: 0xC82F9, size: 0x8, addend: 0x0, symName: _OUTLINED_FUNCTION_38, symObjAddr: 0x4EB04, symBinAddr: 0x10004BC88, symSize: 0x14 }
  - { offset: 0xC8311, size: 0x8, addend: 0x0, symName: _OUTLINED_FUNCTION_39, symObjAddr: 0x4EB18, symBinAddr: 0x10004BC9C, symSize: 0x14 }
  - { offset: 0xC8329, size: 0x8, addend: 0x0, symName: _OUTLINED_FUNCTION_40, symObjAddr: 0x4EB2C, symBinAddr: 0x10004BCB0, symSize: 0x14 }
  - { offset: 0xC8341, size: 0x8, addend: 0x0, symName: _OUTLINED_FUNCTION_41, symObjAddr: 0x4EB40, symBinAddr: 0x10004BCC4, symSize: 0x14 }
  - { offset: 0xC8359, size: 0x8, addend: 0x0, symName: _OUTLINED_FUNCTION_42, symObjAddr: 0x4EB54, symBinAddr: 0x10004BCD8, symSize: 0xC }
  - { offset: 0xC8371, size: 0x8, addend: 0x0, symName: _OUTLINED_FUNCTION_43, symObjAddr: 0x4EB60, symBinAddr: 0x10004BCE4, symSize: 0xC }
  - { offset: 0xC8389, size: 0x8, addend: 0x0, symName: _OUTLINED_FUNCTION_44, symObjAddr: 0x4EB6C, symBinAddr: 0x10004BCF0, symSize: 0xC }
  - { offset: 0xC83BE, size: 0x8, addend: 0x0, symName: __RINvNtCs5FIOKSViJ8s_4core3ptr13drop_in_placeINtNtCs7QfUfi8dEu5_5alloc5boxed3BoxNtNtCsasMdCKbfEu1_12panic_unwind3imp9ExceptionEEB1j_, symObjAddr: 0x0, symBinAddr: 0x10004BCFC, symSize: 0x8C }
  - { offset: 0xC83EF, size: 0x8, addend: 0x0, symName: __RINvNtCs5FIOKSViJ8s_4core3ptr13drop_in_placeINtNtCs7QfUfi8dEu5_5alloc5boxed3BoxNtNtCsasMdCKbfEu1_12panic_unwind3imp9ExceptionEEB1j_, symObjAddr: 0x0, symBinAddr: 0x10004BCFC, symSize: 0x8C }
  - { offset: 0xC866C, size: 0x8, addend: 0x0, symName: __RINvNtCs5FIOKSViJ8s_4core3ptr13drop_in_placeNtNtCsasMdCKbfEu1_12panic_unwind3imp9ExceptionEBK_, symObjAddr: 0x8C, symBinAddr: 0x10004BD88, symSize: 0x78 }
  - { offset: 0xC896F, size: 0x8, addend: 0x0, symName: __RNvNvNtCsasMdCKbfEu1_12panic_unwind3imp5panic17exception_cleanup, symObjAddr: 0x20C, symBinAddr: 0x10004BF08, symSize: 0x18 }
  - { offset: 0xC898B, size: 0x8, addend: 0x0, symName: __RNvCs2S033ihgi4L_7___rustc18___rust_start_panic, symObjAddr: 0x104, symBinAddr: 0x10004BE00, symSize: 0xA0 }
  - { offset: 0xC8A2B, size: 0x8, addend: 0x0, symName: __RNvCs2S033ihgi4L_7___rustc20___rust_panic_cleanup, symObjAddr: 0x1A4, symBinAddr: 0x10004BEA0, symSize: 0x68 }
  - { offset: 0xC8B1A, size: 0x8, addend: 0x0, symName: __RINvNtCs5FIOKSViJ8s_4core3ptr13drop_in_placeNtNtCs7QfUfi8dEu5_5alloc6string6StringEBK_, symObjAddr: 0x0, symBinAddr: 0x100065264, symSize: 0x18 }
  - { offset: 0xC8C6E, size: 0x8, addend: 0x0, symName: __RNvMs4_NtCs7QfUfi8dEu5_5alloc7raw_vecNtB5_11RawVecInner11finish_growB7_, symObjAddr: 0x3280, symBinAddr: 0x10008E94C, symSize: 0x8C }
  - { offset: 0xC8EA4, size: 0x8, addend: 0x0, symName: __RINvNvMs2_NtCs7QfUfi8dEu5_5alloc7raw_vecINtB8_11RawVecInnerpE7reserve21do_reserve_and_handleNtNtBa_5alloc6GlobalEBa_, symObjAddr: 0x30, symBinAddr: 0x10008E838, symSize: 0x78 }
  - { offset: 0xC8FF6, size: 0x8, addend: 0x0, symName: __RNvMs3_NtCs7QfUfi8dEu5_5alloc7raw_vecINtB5_6RawVechE8grow_oneB7_, symObjAddr: 0x3220, symBinAddr: 0x10008E8EC, symSize: 0x60 }
  - { offset: 0xC9177, size: 0x8, addend: 0x0, symName: __RNvNtCs7QfUfi8dEu5_5alloc7raw_vec12handle_error, symObjAddr: 0x4110, symBinAddr: 0x10008E9F0, symSize: 0x14 }
  - { offset: 0xC91BD, size: 0x8, addend: 0x0, symName: __RNvNtCs7QfUfi8dEu5_5alloc7raw_vec17capacity_overflow, symObjAddr: 0x4124, symBinAddr: 0x10008EA04, symSize: 0x20 }
  - { offset: 0xC92E1, size: 0x8, addend: 0x0, symName: __RNvCs2S033ihgi4L_7___rustc25___rdl_alloc_error_handler, symObjAddr: 0x2F8, symBinAddr: 0x10008E8B0, symSize: 0x3C }
  - { offset: 0xC9334, size: 0x8, addend: 0x0, symName: __RNvNvNtCs7QfUfi8dEu5_5alloc5alloc18handle_alloc_error8ct_error, symObjAddr: 0x4398, symBinAddr: 0x10008EABC, symSize: 0x20 }
  - { offset: 0xC9350, size: 0x8, addend: 0x0, symName: __RNvNtCs7QfUfi8dEu5_5alloc5alloc18handle_alloc_error, symObjAddr: 0x40F8, symBinAddr: 0x10008E9D8, symSize: 0x18 }
  - { offset: 0xC93DA, size: 0x8, addend: 0x0, symName: __RNvMNtCs7QfUfi8dEu5_5alloc6stringNtB2_6String10from_utf16, symObjAddr: 0x334, symBinAddr: 0x1000654E4, symSize: 0x25C }
  - { offset: 0xC989E, size: 0x8, addend: 0x0, symName: __RNvMNtCs7QfUfi8dEu5_5alloc6stringNtB2_6String11try_reserve, symObjAddr: 0x590, symBinAddr: 0x100065740, symSize: 0x9C }
  - { offset: 0xC99E2, size: 0x8, addend: 0x0, symName: __RNvMNtCs7QfUfi8dEu5_5alloc6stringNtB2_6String12from_utf16be, symObjAddr: 0x62C, symBinAddr: 0x1000657DC, symSize: 0x394 }
  - { offset: 0xC9E32, size: 0x8, addend: 0x0, symName: __RNvMNtCs7QfUfi8dEu5_5alloc6stringNtB2_6String12from_utf16le, symObjAddr: 0x9C0, symBinAddr: 0x100065B70, symSize: 0x3C0 }
  - { offset: 0xCA287, size: 0x8, addend: 0x0, symName: __RNvMNtCs7QfUfi8dEu5_5alloc6stringNtB2_6String15from_utf8_lossy, symObjAddr: 0xD80, symBinAddr: 0x100065F30, symSize: 0x230 }
  - { offset: 0xCA80D, size: 0x8, addend: 0x0, symName: __RNvMNtCs7QfUfi8dEu5_5alloc6stringNtB2_6String17try_reserve_exact, symObjAddr: 0xFB0, symBinAddr: 0x100066160, symSize: 0x84 }
  - { offset: 0xCA915, size: 0x8, addend: 0x0, symName: __RNvMNtCs7QfUfi8dEu5_5alloc6stringNtB2_6String18from_utf16be_lossy, symObjAddr: 0x1034, symBinAddr: 0x1000661E4, symSize: 0x2C4 }
  - { offset: 0xCAEEE, size: 0x8, addend: 0x0, symName: __RNvMNtCs7QfUfi8dEu5_5alloc6stringNtB2_6String18from_utf16le_lossy, symObjAddr: 0x12F8, symBinAddr: 0x1000664A8, symSize: 0x384 }
  - { offset: 0xCB875, size: 0x8, addend: 0x0, symName: __RNvMNtCs7QfUfi8dEu5_5alloc6stringNtB2_6String21from_utf8_lossy_owned, symObjAddr: 0x167C, symBinAddr: 0x10006682C, symSize: 0xB8 }
  - { offset: 0xCBC63, size: 0x8, addend: 0x0, symName: __RNvXNvMNtCs7QfUfi8dEu5_5alloc6stringNtB5_6String6retainNtB2_12SetLenOnDropNtNtNtCs5FIOKSViJ8s_4core3ops4drop4Drop4drop, symObjAddr: 0x43B8, symBinAddr: 0x100069378, symSize: 0x14 }
  - { offset: 0xCBC9B, size: 0x8, addend: 0x0, symName: __RINvXs5_NtCs7QfUfi8dEu5_5alloc6stringNtB6_6StringINtNtNtNtCs5FIOKSViJ8s_4core4iter6traits7collect12FromIteratorcE9from_iterINtNtNtBS_8adapters3map3MapINtNtNtBU_4char6decode11DecodeUtf16INtNtB22_6cloned6ClonedINtNtNtBU_5slice4iter4ItertEEENCNvMB6_Bz_16from_utf16_lossy0EEB8_, symObjAddr: 0xA8, symBinAddr: 0x100065294, symSize: 0x250 }
  - { offset: 0xCC188, size: 0x8, addend: 0x0, symName: __RNvMs19_NtCs7QfUfi8dEu5_5alloc6stringNtB6_5Drain6as_str, symObjAddr: 0x1734, symBinAddr: 0x1000668E4, symSize: 0x10 }
  - { offset: 0xCC19F, size: 0x8, addend: 0x0, symName: __RNvMs19_NtCs7QfUfi8dEu5_5alloc6stringNtB6_5Drain6as_str, symObjAddr: 0x1734, symBinAddr: 0x1000668E4, symSize: 0x10 }
  - { offset: 0xCC1B4, size: 0x8, addend: 0x0, symName: __RNvMs19_NtCs7QfUfi8dEu5_5alloc6stringNtB6_5Drain6as_str, symObjAddr: 0x1734, symBinAddr: 0x1000668E4, symSize: 0x10 }
  - { offset: 0xCC1C8, size: 0x8, addend: 0x0, symName: __RNvMs19_NtCs7QfUfi8dEu5_5alloc6stringNtB6_5Drain6as_str, symObjAddr: 0x1734, symBinAddr: 0x1000668E4, symSize: 0x10 }
  - { offset: 0xCC231, size: 0x8, addend: 0x0, symName: __RNvMs_NtCs7QfUfi8dEu5_5alloc6stringNtB4_13FromUtf8Error15into_utf8_lossy, symObjAddr: 0x39E8, symBinAddr: 0x100068AAC, symSize: 0x1FC }
  - { offset: 0xCC9AA, size: 0x8, addend: 0x0, symName: __RNvXs0_NtCs7QfUfi8dEu5_5alloc6stringNtB5_13FromUtf8ErrorNtNtCs5FIOKSViJ8s_4core3fmt7Display3fmt, symObjAddr: 0x43CC, symBinAddr: 0x10006938C, symSize: 0x8 }
  - { offset: 0xCCA11, size: 0x8, addend: 0x0, symName: __RNvXs10_NtCs7QfUfi8dEu5_5alloc6stringNtB6_9IntoCharsNtNtCs5FIOKSViJ8s_4core3fmt5Debug3fmt, symObjAddr: 0x4500, symBinAddr: 0x1000694C0, symSize: 0x68 }
  - { offset: 0xCCADE, size: 0x8, addend: 0x0, symName: __RNvXs15_NtCs7QfUfi8dEu5_5alloc6stringNtB6_5DrainNtNtCs5FIOKSViJ8s_4core3fmt5Debug3fmt, symObjAddr: 0x4568, symBinAddr: 0x100069528, symSize: 0x64 }
  - { offset: 0xCCB96, size: 0x8, addend: 0x0, symName: __RNvXs18_NtCs7QfUfi8dEu5_5alloc6stringNtB6_5DrainNtNtNtCs5FIOKSViJ8s_4core3ops4drop4Drop4drop, symObjAddr: 0x45CC, symBinAddr: 0x10006958C, symSize: 0x78 }
  - { offset: 0xCCCF9, size: 0x8, addend: 0x0, symName: __RNvXs1_NtCs7QfUfi8dEu5_5alloc6stringNtB5_14FromUtf16ErrorNtNtCs5FIOKSViJ8s_4core3fmt7Display3fmt, symObjAddr: 0x467C, symBinAddr: 0x10006963C, symSize: 0x14 }
  - { offset: 0xCCD1A, size: 0x8, addend: 0x0, symName: __RNvXs1a_NtCs7QfUfi8dEu5_5alloc6stringNtB6_5DrainINtNtCs5FIOKSViJ8s_4core7convert5AsRefeE6as_ref, symObjAddr: 0x47AC, symBinAddr: 0x10006976C, symSize: 0x10 }
  - { offset: 0xCCD38, size: 0x8, addend: 0x0, symName: __RNvXs1a_NtCs7QfUfi8dEu5_5alloc6stringNtB6_5DrainINtNtCs5FIOKSViJ8s_4core7convert5AsRefeE6as_ref, symObjAddr: 0x47AC, symBinAddr: 0x10006976C, symSize: 0x10 }
  - { offset: 0xCCD4D, size: 0x8, addend: 0x0, symName: __RNvXs1a_NtCs7QfUfi8dEu5_5alloc6stringNtB6_5DrainINtNtCs5FIOKSViJ8s_4core7convert5AsRefeE6as_ref, symObjAddr: 0x47AC, symBinAddr: 0x10006976C, symSize: 0x10 }
  - { offset: 0xCCD62, size: 0x8, addend: 0x0, symName: __RNvXs1a_NtCs7QfUfi8dEu5_5alloc6stringNtB6_5DrainINtNtCs5FIOKSViJ8s_4core7convert5AsRefeE6as_ref, symObjAddr: 0x47AC, symBinAddr: 0x10006976C, symSize: 0x10 }
  - { offset: 0xCCD76, size: 0x8, addend: 0x0, symName: __RNvXs1a_NtCs7QfUfi8dEu5_5alloc6stringNtB6_5DrainINtNtCs5FIOKSViJ8s_4core7convert5AsRefeE6as_ref, symObjAddr: 0x47AC, symBinAddr: 0x10006976C, symSize: 0x10 }
  - { offset: 0xCCDD2, size: 0x8, addend: 0x0, symName: __RNvXs1c_NtCs7QfUfi8dEu5_5alloc6stringNtB6_5DrainNtNtNtNtCs5FIOKSViJ8s_4core4iter6traits8iterator8Iterator9size_hint, symObjAddr: 0x47BC, symBinAddr: 0x10006977C, symSize: 0x24 }
  - { offset: 0xCCDF0, size: 0x8, addend: 0x0, symName: __RNvXs1c_NtCs7QfUfi8dEu5_5alloc6stringNtB6_5DrainNtNtNtNtCs5FIOKSViJ8s_4core4iter6traits8iterator8Iterator9size_hint, symObjAddr: 0x47BC, symBinAddr: 0x10006977C, symSize: 0x24 }
  - { offset: 0xCCE05, size: 0x8, addend: 0x0, symName: __RNvXs1c_NtCs7QfUfi8dEu5_5alloc6stringNtB6_5DrainNtNtNtNtCs5FIOKSViJ8s_4core4iter6traits8iterator8Iterator9size_hint, symObjAddr: 0x47BC, symBinAddr: 0x10006977C, symSize: 0x24 }
  - { offset: 0xCCE73, size: 0x8, addend: 0x0, symName: __RNvXs4_NtCs7QfUfi8dEu5_5alloc6stringNtB5_6StringNtNtCs5FIOKSViJ8s_4core5clone5Clone10clone_from, symObjAddr: 0x4874, symBinAddr: 0x100069834, symSize: 0x88 }
  - { offset: 0xCD041, size: 0x8, addend: 0x0, symName: __RNvXs4_NtCs7QfUfi8dEu5_5alloc6stringNtB5_6StringNtNtCs5FIOKSViJ8s_4core5clone5Clone5clone, symObjAddr: 0x48FC, symBinAddr: 0x1000698BC, symSize: 0x70 }
  - { offset: 0xCD145, size: 0x8, addend: 0x0, symName: __RNvXsO_NtCs7QfUfi8dEu5_5alloc6stringINtNtB7_5boxed3BoxeEINtNtCs5FIOKSViJ8s_4core7convert4FromNtB5_6StringE4from, symObjAddr: 0x4B54, symBinAddr: 0x100069B14, symSize: 0x98 }
  - { offset: 0xCD340, size: 0x8, addend: 0x0, symName: __RNvXsP_NtCs7QfUfi8dEu5_5alloc6stringNtB5_6StringINtNtCs5FIOKSViJ8s_4core7convert4FromINtNtB7_6borrow3CoweEE4from, symObjAddr: 0x4BEC, symBinAddr: 0x100069BAC, symSize: 0x98 }
  - { offset: 0xCD488, size: 0x8, addend: 0x0, symName: __RNvXsY_NtCs7QfUfi8dEu5_5alloc6stringNtB5_6StringINtNtCs5FIOKSViJ8s_4core7convert7TryFromINtNtB7_3vec3VechEE8try_from, symObjAddr: 0x4C84, symBinAddr: 0x100069C44, symSize: 0xAC }
  - { offset: 0xCD5FD, size: 0x8, addend: 0x0, symName: __RNvXsZ_NtCs7QfUfi8dEu5_5alloc6stringNtB5_6StringNtNtCs5FIOKSViJ8s_4core3fmt5Write10write_char, symObjAddr: 0x4D30, symBinAddr: 0x100069CF0, symSize: 0x114 }
  - { offset: 0xCD79C, size: 0x8, addend: 0x0, symName: __RNvXsZ_NtCs7QfUfi8dEu5_5alloc6stringNtB5_6StringNtNtCs5FIOKSViJ8s_4core3fmt5Write9write_str, symObjAddr: 0x4E44, symBinAddr: 0x100069E04, symSize: 0x7C }
  - { offset: 0xCD908, size: 0x8, addend: 0x0, symName: __RNvXsh_NtCs7QfUfi8dEu5_5alloc6stringSReNtB5_13SpecExtendStr16spec_extend_into, symObjAddr: 0x52F0, symBinAddr: 0x10006A2B0, symSize: 0xCC }
  - { offset: 0xCDAD0, size: 0x8, addend: 0x0, symName: __RNvXso_NtCs7QfUfi8dEu5_5alloc6stringRNtB5_6StringNtNtNtCs5FIOKSViJ8s_4core3str7pattern7Pattern13into_searcher, symObjAddr: 0x57F4, symBinAddr: 0x10006A7B4, symSize: 0x14 }
  - { offset: 0xCE071, size: 0x8, addend: 0x0, symName: __RNvNvMs_NtCs7QfUfi8dEu5_5alloc3vecINtB6_3VecppE10insert_mut13assert_failed, symObjAddr: 0x4144, symBinAddr: 0x10008EA24, symSize: 0x24 }
  - { offset: 0xCE092, size: 0x8, addend: 0x0, symName: __RNvNvMs_NtCs7QfUfi8dEu5_5alloc3vecINtB6_3VecppE11swap_remove13assert_failed, symObjAddr: 0x4168, symBinAddr: 0x10008EA48, symSize: 0x2C }
  - { offset: 0xCE0B3, size: 0x8, addend: 0x0, symName: __RNvNvMs_NtCs7QfUfi8dEu5_5alloc3vecINtB6_3VecppE6remove13assert_failed, symObjAddr: 0x4194, symBinAddr: 0x10008EA74, symSize: 0x24 }
  - { offset: 0xCE0D4, size: 0x8, addend: 0x0, symName: __RNvNvMs_NtCs7QfUfi8dEu5_5alloc3vecINtB6_3VecppE9split_off13assert_failed, symObjAddr: 0x41B8, symBinAddr: 0x10008EA98, symSize: 0x24 }
  - { offset: 0xCE196, size: 0x8, addend: 0x0, symName: __RNvXsD_NtCs7QfUfi8dEu5_5alloc3vecINtB5_3VechEINtNtCs5FIOKSViJ8s_4core7convert4FromReE4from, symObjAddr: 0x4ACC, symBinAddr: 0x100069A8C, symSize: 0x74 }
  - { offset: 0xCE2D7, size: 0x8, addend: 0x0, symName: __RNvMs2_NtCs7QfUfi8dEu5_5alloc4wtf8NtB5_7Wtf8Buf11into_string, symObjAddr: 0x1744, symBinAddr: 0x1000668F4, symSize: 0xCC }
  - { offset: 0xCE3F5, size: 0x8, addend: 0x0, symName: __RNvMs2_NtCs7QfUfi8dEu5_5alloc4wtf8NtB5_7Wtf8Buf17into_string_lossy, symObjAddr: 0x1810, symBinAddr: 0x1000669C0, symSize: 0x164 }
  - { offset: 0xCE661, size: 0x8, addend: 0x0, symName: __RNvMs2_NtCs7QfUfi8dEu5_5alloc4wtf8NtB5_7Wtf8Buf25push_code_point_unchecked, symObjAddr: 0x1974, symBinAddr: 0x100066B24, symSize: 0x104 }
  - { offset: 0xCE7DD, size: 0x8, addend: 0x0, symName: __RNvMs2_NtCs7QfUfi8dEu5_5alloc4wtf8NtB5_7Wtf8Buf8from_box, symObjAddr: 0x1A78, symBinAddr: 0x100066C28, symSize: 0x10 }
  - { offset: 0xCE81E, size: 0x8, addend: 0x0, symName: __RNvMs2_NtCs7QfUfi8dEu5_5alloc4wtf8NtB5_7Wtf8Buf9from_wide, symObjAddr: 0x1A88, symBinAddr: 0x100066C38, symSize: 0x42C }
  - { offset: 0xCED07, size: 0x8, addend: 0x0, symName: __RNvXs1_NtCs7QfUfi8dEu5_5alloc4wtf8NtB5_7Wtf8BufNtNtCs5FIOKSViJ8s_4core3fmt7Display3fmt, symObjAddr: 0x465C, symBinAddr: 0x10006961C, symSize: 0x20 }
  - { offset: 0xCED94, size: 0x8, addend: 0x0, symName: __RNvMs3_NtCs7QfUfi8dEu5_5alloc3stre12to_lowercase, symObjAddr: 0x1EB4, symBinAddr: 0x100067064, symSize: 0xBC4 }
  - { offset: 0xCFBF6, size: 0x8, addend: 0x0, symName: __RNvMs3_NtCs7QfUfi8dEu5_5alloc3stre12to_uppercase, symObjAddr: 0x2A78, symBinAddr: 0x100067C28, symSize: 0x7A8 }
  - { offset: 0xD0861, size: 0x8, addend: 0x0, symName: __RNvNtCs7QfUfi8dEu5_5alloc2rc32rc_inner_layout_for_value_layout, symObjAddr: 0x4010, symBinAddr: 0x1000690D4, symSize: 0x74 }
  - { offset: 0xD0A05, size: 0x8, addend: 0x0, symName: __RNvNtCs7QfUfi8dEu5_5alloc4sync32arcinner_layout_for_value_layout, symObjAddr: 0x4084, symBinAddr: 0x100069148, symSize: 0x74 }
  - { offset: 0xD0BD5, size: 0x8, addend: 0x0, symName: __RNvXs0_NvXsf_NtNtCs7QfUfi8dEu5_5alloc5boxed7convertINtBd_3BoxDNtNtCs5FIOKSViJ8s_4core5error5ErrorNtNtB12_6marker4SyncNtB1z_4SendEL_EINtNtB12_7convert4FromNtNtBf_6string6StringE4fromNtB5_11StringErrorNtNtB12_3fmt5Debug3fmt, symObjAddr: 0x44F0, symBinAddr: 0x1000694B0, symSize: 0x10 }
  - { offset: 0xD0CA6, size: 0x8, addend: 0x0, symName: __RNvXs_NvXsf_NtNtCs7QfUfi8dEu5_5alloc5boxed7convertINtBc_3BoxDNtNtCs5FIOKSViJ8s_4core5error5ErrorNtNtB11_6marker4SyncNtB1y_4SendEL_EINtNtB11_7convert4FromNtNtBe_6string6StringE4fromNtB4_11StringErrorNtNtB11_3fmt7Display3fmt, symObjAddr: 0x4FDC, symBinAddr: 0x100069F9C, symSize: 0x10 }
  - { offset: 0xD0D92, size: 0x8, addend: 0x0, symName: __RNvXsg_NtNtCs7QfUfi8dEu5_5alloc5boxed7convertINtB7_3BoxDNtNtCs5FIOKSViJ8s_4core5error5ErrorEL_EINtNtBW_7convert4FromNtNtB9_6string6StringE4from, symObjAddr: 0x5068, symBinAddr: 0x10006A028, symSize: 0x7C }
  - { offset: 0xD0F29, size: 0x8, addend: 0x0, symName: __RNvXsi_NtNtCs7QfUfi8dEu5_5alloc5boxed7convertINtB7_3BoxDNtNtCs5FIOKSViJ8s_4core5error5ErrorEL_EINtNtBW_7convert4FromReE4from, symObjAddr: 0x564C, symBinAddr: 0x10006A60C, symSize: 0xC8 }
  - { offset: 0xD11BA, size: 0x8, addend: 0x0, symName: __RNvXsj_NtNtCs7QfUfi8dEu5_5alloc5boxed7convertINtB7_3BoxDNtNtCs5FIOKSViJ8s_4core5error5ErrorNtNtBW_6marker4SyncNtB1t_4SendEL_EINtNtBW_7convert4FromINtNtB9_6borrow3CoweEE4from, symObjAddr: 0x5714, symBinAddr: 0x10006A6D4, symSize: 0xE0 }
  - { offset: 0xD144C, size: 0x8, addend: 0x0, symName: __RNvXsf_NtCs7QfUfi8dEu5_5alloc5boxedINtB5_3BoxeENtNtCs5FIOKSViJ8s_4core5clone5Clone5clone, symObjAddr: 0x5000, symBinAddr: 0x100069FC0, symSize: 0x68 }
  - { offset: 0xD15A7, size: 0x8, addend: 0x0, symName: __RNvMs_NtNtCs7QfUfi8dEu5_5alloc3ffi5c_strNtB4_7CString10into_bytes, symObjAddr: 0x3BE4, symBinAddr: 0x100068CA8, symSize: 0x18 }
  - { offset: 0xD15BE, size: 0x8, addend: 0x0, symName: __RNvMs_NtNtCs7QfUfi8dEu5_5alloc3ffi5c_strNtB4_7CString10into_bytes, symObjAddr: 0x3BE4, symBinAddr: 0x100068CA8, symSize: 0x18 }
  - { offset: 0xD15D3, size: 0x8, addend: 0x0, symName: __RNvMs_NtNtCs7QfUfi8dEu5_5alloc3ffi5c_strNtB4_7CString10into_bytes, symObjAddr: 0x3BE4, symBinAddr: 0x100068CA8, symSize: 0x18 }
  - { offset: 0xD160A, size: 0x8, addend: 0x0, symName: __RNvMs_NtNtCs7QfUfi8dEu5_5alloc3ffi5c_strNtB4_7CString11into_string, symObjAddr: 0x3BFC, symBinAddr: 0x100068CC0, symSize: 0xD4 }
  - { offset: 0xD175A, size: 0x8, addend: 0x0, symName: __RNvMs_NtNtCs7QfUfi8dEu5_5alloc3ffi5c_strNtB4_7CString17from_vec_with_nul, symObjAddr: 0x3CD0, symBinAddr: 0x100068D94, symSize: 0x154 }
  - { offset: 0xD19AC, size: 0x8, addend: 0x0, symName: __RNvMs_NtNtCs7QfUfi8dEu5_5alloc3ffi5c_strNtB4_7CString18from_vec_unchecked, symObjAddr: 0x3E24, symBinAddr: 0x100068EE8, symSize: 0x4 }
  - { offset: 0xD19C7, size: 0x8, addend: 0x0, symName: __RNvMs_NtNtCs7QfUfi8dEu5_5alloc3ffi5c_strNtB4_7CString19__from_vec_unchecked, symObjAddr: 0x3E28, symBinAddr: 0x100068EEC, symSize: 0x118 }
  - { offset: 0xD1D2C, size: 0x8, addend: 0x0, symName: __RNvMs_NtNtCs7QfUfi8dEu5_5alloc3ffi5c_strNtB4_7CString19into_bytes_with_nul, symObjAddr: 0x3F40, symBinAddr: 0x100069004, symSize: 0xC }
  - { offset: 0xD1D4A, size: 0x8, addend: 0x0, symName: __RNvMs_NtNtCs7QfUfi8dEu5_5alloc3ffi5c_strNtB4_7CString19into_bytes_with_nul, symObjAddr: 0x3F40, symBinAddr: 0x100069004, symSize: 0xC }
  - { offset: 0xD1D5F, size: 0x8, addend: 0x0, symName: __RNvMs_NtNtCs7QfUfi8dEu5_5alloc3ffi5c_strNtB4_7CString19into_bytes_with_nul, symObjAddr: 0x3F40, symBinAddr: 0x100069004, symSize: 0xC }
  - { offset: 0xD1D73, size: 0x8, addend: 0x0, symName: __RNvMs_NtNtCs7QfUfi8dEu5_5alloc3ffi5c_strNtB4_7CString27from_vec_with_nul_unchecked, symObjAddr: 0x3F4C, symBinAddr: 0x100069010, symSize: 0x9C }
  - { offset: 0xD1FA2, size: 0x8, addend: 0x0, symName: __RNvMs_NtNtCs7QfUfi8dEu5_5alloc3ffi5c_strNtB4_7CString8from_raw, symObjAddr: 0x3FE8, symBinAddr: 0x1000690AC, symSize: 0x28 }
  - { offset: 0xD2007, size: 0x8, addend: 0x0, symName: __RNvXs0_NvMs_NtNtCs7QfUfi8dEu5_5alloc3ffi5c_strNtBa_7CString3newReNtB5_11SpecNewImpl13spec_new_impl, symObjAddr: 0x43D4, symBinAddr: 0x100069394, symSize: 0x11C }
  - { offset: 0xD223E, size: 0x8, addend: 0x0, symName: __RNvXs1_NvMs_NtNtCs7QfUfi8dEu5_5alloc3ffi5c_strNtBa_7CString3newQShNtB5_11SpecNewImpl13spec_new_impl, symObjAddr: 0x4690, symBinAddr: 0x100069650, symSize: 0x11C }
  - { offset: 0xD2475, size: 0x8, addend: 0x0, symName: __RNvXs_NvMs_NtNtCs7QfUfi8dEu5_5alloc3ffi5c_strNtB9_7CString3newRShNtB4_11SpecNewImpl13spec_new_impl, symObjAddr: 0x4EC0, symBinAddr: 0x100069E80, symSize: 0x11C }
  - { offset: 0xD26AE, size: 0x8, addend: 0x0, symName: __RNvXs2_NtNtCs7QfUfi8dEu5_5alloc3ffi5c_strNtB5_7CStringNtNtCs5FIOKSViJ8s_4core3fmt5Debug3fmt, symObjAddr: 0x4864, symBinAddr: 0x100069824, symSize: 0x10 }
  - { offset: 0xD2709, size: 0x8, addend: 0x0, symName: __RNvXsw_NtNtCs7QfUfi8dEu5_5alloc3ffi5c_strNtNtNtCs5FIOKSViJ8s_4core3ffi5c_str4CStrNtNtB9_6borrow7ToOwned10clone_into, symObjAddr: 0x5930, symBinAddr: 0x10006A8F0, symSize: 0x120 }
  - { offset: 0xD2A7C, size: 0x8, addend: 0x0, symName: __RNvXs4_NtNtCs7QfUfi8dEu5_5alloc3ffi5c_strNtB5_7CStringNtNtCs5FIOKSViJ8s_4core7default7Default7default, symObjAddr: 0x496C, symBinAddr: 0x10006992C, symSize: 0x38 }
  - { offset: 0xD2BA3, size: 0x8, addend: 0x0, symName: __RNvXs7_NtNtCs7QfUfi8dEu5_5alloc3ffi5c_strINtNtB9_5boxed3BoxNtNtNtCs5FIOKSViJ8s_4core3ffi5c_str4CStrEINtNtB11_7convert4FromRBV_E4from, symObjAddr: 0x49A4, symBinAddr: 0x100069964, symSize: 0x94 }
  - { offset: 0xD2CF9, size: 0x8, addend: 0x0, symName: __RNvXs8_NtNtCs7QfUfi8dEu5_5alloc3ffi5c_strINtNtB9_5boxed3BoxNtNtNtCs5FIOKSViJ8s_4core3ffi5c_str4CStrEINtNtB11_7convert4FromQBV_E4from, symObjAddr: 0x4A38, symBinAddr: 0x1000699F8, symSize: 0x94 }
  - { offset: 0xD2E56, size: 0x8, addend: 0x0, symName: __RNvXsq_NtNtCs7QfUfi8dEu5_5alloc3ffi5c_strINtNtB9_5boxed3BoxNtNtNtCs5FIOKSViJ8s_4core3ffi5c_str4CStrENtNtB11_7default7Default7default, symObjAddr: 0x5808, symBinAddr: 0x10006A7C8, symSize: 0x74 }
  - { offset: 0xD2FB3, size: 0x8, addend: 0x0, symName: __RNvXss_NtNtCs7QfUfi8dEu5_5alloc3ffi5c_strNtB5_8NulErrorNtNtCs5FIOKSViJ8s_4core3fmt7Display3fmt, symObjAddr: 0x587C, symBinAddr: 0x10006A83C, symSize: 0x3C }
  - { offset: 0xD2FEB, size: 0x8, addend: 0x0, symName: __RNvXst_NtNtCs7QfUfi8dEu5_5alloc3ffi5c_strNtB5_19FromVecWithNulErrorNtNtCs5FIOKSViJ8s_4core3fmt7Display3fmt, symObjAddr: 0x58B8, symBinAddr: 0x10006A878, symSize: 0x64 }
  - { offset: 0xD3039, size: 0x8, addend: 0x0, symName: __RNvXsv_NtNtCs7QfUfi8dEu5_5alloc3ffi5c_strNtB5_15IntoStringErrorNtNtCs5FIOKSViJ8s_4core3fmt7Display3fmt, symObjAddr: 0x591C, symBinAddr: 0x10006A8DC, symSize: 0x14 }
  - { offset: 0xD308F, size: 0x8, addend: 0x0, symName: __RNvXs1K_NtNtNtCs7QfUfi8dEu5_5alloc11collections5btree3mapNtB6_17UnorderedKeyErrorNtNtCs5FIOKSViJ8s_4core3fmt7Display3fmt, symObjAddr: 0x4644, symBinAddr: 0x100069604, symSize: 0x18 }
  - { offset: 0xD30AD, size: 0x8, addend: 0x0, symName: __RNvXs1K_NtNtNtCs7QfUfi8dEu5_5alloc11collections5btree3mapNtB6_17UnorderedKeyErrorNtNtCs5FIOKSViJ8s_4core3fmt7Display3fmt, symObjAddr: 0x4644, symBinAddr: 0x100069604, symSize: 0x18 }
  - { offset: 0xD30C9, size: 0x8, addend: 0x0, symName: __RNvXs2_NtCs7QfUfi8dEu5_5alloc11collectionsNtB5_15TryReserveErrorNtNtCs5FIOKSViJ8s_4core3fmt7Display3fmt, symObjAddr: 0x47F0, symBinAddr: 0x1000697B0, symSize: 0x74 }
  - { offset: 0xD3104, size: 0x8, addend: 0x0, symName: __RNvNvNtCs7QfUfi8dEu5_5alloc3fmt6format12format_inner, symObjAddr: 0x41DC, symBinAddr: 0x1000691BC, symSize: 0x1BC }
  - { offset: 0xD3402, size: 0x8, addend: 0x0, symName: __RNvXsh_NtCs7QfUfi8dEu5_5alloc6borrowINtB5_3CoweEINtNtNtCs5FIOKSViJ8s_4core3ops5arith9AddAssignReE10add_assign, symObjAddr: 0x50E4, symBinAddr: 0x10006A0A4, symSize: 0x20C }
  - { offset: 0xD3974, size: 0x8, addend: 0x0, symName: __RNvXsi_NtCs7QfUfi8dEu5_5alloc6borrowINtB5_3CoweENtNtNtCs5FIOKSViJ8s_4core3ops5arith9AddAssign10add_assign, symObjAddr: 0x53BC, symBinAddr: 0x10006A37C, symSize: 0x290 }
  - { offset: 0xD40E4, size: 0x8, addend: 0x0, symName: __RINvNtCs5FIOKSViJ8s_4core3ptr13drop_in_placeNtNtCs7QfUfi8dEu5_5alloc6string6StringEBK_, symObjAddr: 0x0, symBinAddr: 0x100065264, symSize: 0x18 }
  - { offset: 0xD41A8, size: 0x8, addend: 0x0, symName: __RINvNtCs5FIOKSViJ8s_4core3ptr13drop_in_placeNtNvXsf_NtNtCs7QfUfi8dEu5_5alloc5boxed7convertINtBQ_3BoxDNtNtB4_5error5ErrorNtNtB4_6marker4SyncNtB1W_4SendEL_EINtNtB4_7convert4FromNtNtBS_6string6StringE4from11StringErrorEBS_, symObjAddr: 0x18, symBinAddr: 0x10006527C, symSize: 0x18 }
  - { offset: 0xD41BF, size: 0x8, addend: 0x0, symName: __RINvNtCs5FIOKSViJ8s_4core3ptr13drop_in_placeNtNvXsf_NtNtCs7QfUfi8dEu5_5alloc5boxed7convertINtBQ_3BoxDNtNtB4_5error5ErrorNtNtB4_6marker4SyncNtB1W_4SendEL_EINtNtB4_7convert4FromNtNtBS_6string6StringE4from11StringErrorEBS_, symObjAddr: 0x18, symBinAddr: 0x10006527C, symSize: 0x18 }
  - { offset: 0xD5242, size: 0x8, addend: 0x0, symName: __RNvMs5_NtCs7QfUfi8dEu5_5alloc4wtf8NtNtCs5FIOKSViJ8s_4core4wtf84Wtf810clone_into, symObjAddr: 0x330C, symBinAddr: 0x1000683D0, symSize: 0x84 }
  - { offset: 0xD53B1, size: 0x8, addend: 0x0, symName: __RNvMs5_NtCs7QfUfi8dEu5_5alloc4wtf8NtNtCs5FIOKSViJ8s_4core4wtf84Wtf815to_string_lossy, symObjAddr: 0x3390, symBinAddr: 0x100068454, symSize: 0x404 }
  - { offset: 0xD5BA7, size: 0x8, addend: 0x0, symName: __RNvMs5_NtCs7QfUfi8dEu5_5alloc4wtf8NtNtCs5FIOKSViJ8s_4core4wtf84Wtf87into_rc, symObjAddr: 0x3794, symBinAddr: 0x100068858, symSize: 0xB4 }
  - { offset: 0xD5D52, size: 0x8, addend: 0x0, symName: __RNvMs5_NtCs7QfUfi8dEu5_5alloc4wtf8NtNtCs5FIOKSViJ8s_4core4wtf84Wtf88into_arc, symObjAddr: 0x3848, symBinAddr: 0x10006890C, symSize: 0xB4 }
  - { offset: 0xD5EDA, size: 0x8, addend: 0x0, symName: __RNvMs5_NtCs7QfUfi8dEu5_5alloc4wtf8NtNtCs5FIOKSViJ8s_4core4wtf84Wtf88into_box, symObjAddr: 0x38FC, symBinAddr: 0x1000689C0, symSize: 0x6C }
  - { offset: 0xD6006, size: 0x8, addend: 0x0, symName: __RNvMs5_NtCs7QfUfi8dEu5_5alloc4wtf8NtNtCs5FIOKSViJ8s_4core4wtf84Wtf88to_owned, symObjAddr: 0x3968, symBinAddr: 0x100068A2C, symSize: 0x74 }
  - { offset: 0xD61D4, size: 0x8, addend: 0x0, symName: __RNvXsd_NtNtCs5FIOKSViJ8s_4core5alloc6layoutNtB5_11LayoutErrorNtNtB9_3fmt5Debug3fmt, symObjAddr: 0x4FEC, symBinAddr: 0x100069FAC, symSize: 0x14 }
  - { offset: 0xD6280, size: 0x8, addend: 0x0, symName: __RNvMsD_NtNtCs7QfUfi8dEu5_5alloc3ffi5c_strNtNtNtCs5FIOKSViJ8s_4core3ffi5c_str4CStr13into_c_string, symObjAddr: 0x39DC, symBinAddr: 0x100068AA0, symSize: 0x4 }
  - { offset: 0xD62A8, size: 0x8, addend: 0x0, symName: __RNvMsD_NtNtCs7QfUfi8dEu5_5alloc3ffi5c_strNtNtNtCs5FIOKSViJ8s_4core3ffi5c_str4CStr15to_string_lossy, symObjAddr: 0x39E0, symBinAddr: 0x100068AA4, symSize: 0x8 }
  - { offset: 0xD62C6, size: 0x8, addend: 0x0, symName: __RNvMsD_NtNtCs7QfUfi8dEu5_5alloc3ffi5c_strNtNtNtCs5FIOKSViJ8s_4core3ffi5c_str4CStr15to_string_lossy, symObjAddr: 0x39E0, symBinAddr: 0x100068AA4, symSize: 0x8 }
  - { offset: 0xD639F, size: 0x8, addend: 0x0, symName: __RNvYNtNtCs7QfUfi8dEu5_5alloc6string6StringNtNtCs5FIOKSViJ8s_4core3fmt5Write9write_fmtB6_, symObjAddr: 0x5A50, symBinAddr: 0x10006AA10, symSize: 0x14 }
  - { offset: 0xD6400, size: 0x8, addend: 0x0, symName: __RNvXs1g_NtCs5FIOKSViJ8s_4core3fmtReNtB6_5Debug3fmtCs7QfUfi8dEu5_5alloc, symObjAddr: 0x47E0, symBinAddr: 0x1000697A0, symSize: 0x10 }
  - { offset: 0xD6420, size: 0x8, addend: 0x0, symName: __RNvXsK_NtCs5FIOKSViJ8s_4core3fmtNtB5_5ErrorNtB5_5Debug3fmt, symObjAddr: 0x4B40, symBinAddr: 0x100069B00, symSize: 0x14 }
  - { offset: 0xD6445, size: 0x8, addend: 0x0, symName: __RNvYNtNvXsf_NtNtCs7QfUfi8dEu5_5alloc5boxed7convertINtBc_3BoxDNtNtCs5FIOKSViJ8s_4core5error5ErrorNtNtB11_6marker4SyncNtB1y_4SendEL_EINtNtB11_7convert4FromNtNtBe_6string6StringE4from11StringErrorBX_11descriptionBe_, symObjAddr: 0x5A64, symBinAddr: 0x10006AA24, symSize: 0x10 }
  - { offset: 0xD645E, size: 0x8, addend: 0x0, symName: __RNvYNtNvXsf_NtNtCs7QfUfi8dEu5_5alloc5boxed7convertINtBc_3BoxDNtNtCs5FIOKSViJ8s_4core5error5ErrorNtNtB11_6marker4SyncNtB1y_4SendEL_EINtNtB11_7convert4FromNtNtBe_6string6StringE4from11StringErrorBX_5causeBe_, symObjAddr: 0x5A74, symBinAddr: 0x10006AA34, symSize: 0x8 }
  - { offset: 0xD6477, size: 0x8, addend: 0x0, symName: __RNvYNtNvXsf_NtNtCs7QfUfi8dEu5_5alloc5boxed7convertINtBc_3BoxDNtNtCs5FIOKSViJ8s_4core5error5ErrorNtNtB11_6marker4SyncNtB1y_4SendEL_EINtNtB11_7convert4FromNtNtBe_6string6StringE4from11StringErrorBX_7provideBe_, symObjAddr: 0x5A7C, symBinAddr: 0x10006AA3C, symSize: 0x4 }
  - { offset: 0xD6491, size: 0x8, addend: 0x0, symName: __RNvYNtNvXsf_NtNtCs7QfUfi8dEu5_5alloc5boxed7convertINtBc_3BoxDNtNtCs5FIOKSViJ8s_4core5error5ErrorNtNtB11_6marker4SyncNtB1y_4SendEL_EINtNtB11_7convert4FromNtNtBe_6string6StringE4from11StringErrorBX_7type_idBe_, symObjAddr: 0x5A80, symBinAddr: 0x10006AA40, symSize: 0x14 }
  - { offset: 0xD64AE, size: 0x8, addend: 0x0, symName: __RNvYNtNvXsf_NtNtCs7QfUfi8dEu5_5alloc5boxed7convertINtBc_3BoxDNtNtCs5FIOKSViJ8s_4core5error5ErrorNtNtB11_6marker4SyncNtB1y_4SendEL_EINtNtB11_7convert4FromNtNtBe_6string6StringE4from11StringErrorBX_7type_idBe_, symObjAddr: 0x5A80, symBinAddr: 0x10006AA40, symSize: 0x14 }
  - { offset: 0xD64DC, size: 0x8, addend: 0x0, symName: _OUTLINED_FUNCTION_0, symObjAddr: 0x5A94, symBinAddr: 0x10006AA54, symSize: 0x20 }
  - { offset: 0xD64F4, size: 0x8, addend: 0x0, symName: _OUTLINED_FUNCTION_1, symObjAddr: 0x5AB4, symBinAddr: 0x10006AA74, symSize: 0x8 }
  - { offset: 0xD6529, size: 0x8, addend: 0x0, symName: __RINvNtCs5FIOKSViJ8s_4core9panicking13assert_failedINtNtB4_6option6OptionjEBM_EB4_, symObjAddr: 0x0, symBinAddr: 0x10008EADC, symSize: 0x28 }
  - { offset: 0xD6540, size: 0x8, addend: 0x0, symName: __RINvNtCs5FIOKSViJ8s_4core9panicking13assert_failedINtNtB4_6option6OptionjEBM_EB4_, symObjAddr: 0x0, symBinAddr: 0x10008EADC, symSize: 0x28 }
  - { offset: 0xD655A, size: 0x8, addend: 0x0, symName: __RINvNtCs5FIOKSViJ8s_4core9panicking13assert_failedjjEB4_, symObjAddr: 0x28, symBinAddr: 0x10008EB04, symSize: 0x28 }
  - { offset: 0xD6574, size: 0x8, addend: 0x0, symName: __RINvNtCs5FIOKSViJ8s_4core9panicking13assert_failedyyEB4_, symObjAddr: 0x50, symBinAddr: 0x10008EB2C, symSize: 0x28 }
  - { offset: 0xD659D, size: 0x8, addend: 0x0, symName: __RNvNtCs5FIOKSViJ8s_4core9panicking14panic_nounwind, symObjAddr: 0xB2A0, symBinAddr: 0x10008EDC8, symSize: 0x20 }
  - { offset: 0xD65DA, size: 0x8, addend: 0x0, symName: __RNvNtCs5FIOKSViJ8s_4core9panicking15const_panic_fmt, symObjAddr: 0xB2C0, symBinAddr: 0x10008EDE8, symSize: 0x3C }
  - { offset: 0xD6620, size: 0x8, addend: 0x0, symName: __RNvNtCs5FIOKSViJ8s_4core9panicking16panic_in_cleanup, symObjAddr: 0xB2FC, symBinAddr: 0x10008EE24, symSize: 0x18 }
  - { offset: 0xD663B, size: 0x8, addend: 0x0, symName: __RNvNtCs5FIOKSViJ8s_4core9panicking18panic_bounds_check, symObjAddr: 0xB314, symBinAddr: 0x10008EE3C, symSize: 0x38 }
  - { offset: 0xD666A, size: 0x8, addend: 0x0, symName: __RNvNtCs5FIOKSViJ8s_4core9panicking18panic_nounwind_fmt, symObjAddr: 0xB34C, symBinAddr: 0x10008EE74, symSize: 0x30 }
  - { offset: 0xD66AF, size: 0x8, addend: 0x0, symName: __RNvNtCs5FIOKSViJ8s_4core9panicking19assert_failed_inner, symObjAddr: 0xB37C, symBinAddr: 0x10008EEA4, symSize: 0xBC }
  - { offset: 0xD66CA, size: 0x8, addend: 0x0, symName: __RNvNtCs5FIOKSViJ8s_4core9panicking19panic_cannot_unwind, symObjAddr: 0xB438, symBinAddr: 0x10008EF60, symSize: 0x18 }
  - { offset: 0xD66E5, size: 0x8, addend: 0x0, symName: __RNvNtCs5FIOKSViJ8s_4core9panicking26panic_nounwind_nobacktrace, symObjAddr: 0xB450, symBinAddr: 0x10008EF78, symSize: 0x20 }
  - { offset: 0xD6714, size: 0x8, addend: 0x0, symName: __RNvNtCs5FIOKSViJ8s_4core9panicking30panic_null_pointer_dereference, symObjAddr: 0xB470, symBinAddr: 0x10008EF98, symSize: 0x1C }
  - { offset: 0xD672F, size: 0x8, addend: 0x0, symName: __RNvNtCs5FIOKSViJ8s_4core9panicking31panic_invalid_enum_construction, symObjAddr: 0xB48C, symBinAddr: 0x10008EFB4, symSize: 0x34 }
  - { offset: 0xD674A, size: 0x8, addend: 0x0, symName: __RNvNtCs5FIOKSViJ8s_4core9panicking36panic_misaligned_pointer_dereference, symObjAddr: 0xB4C0, symBinAddr: 0x10008EFE8, symSize: 0x3C }
  - { offset: 0xD6765, size: 0x8, addend: 0x0, symName: __RNvNtCs5FIOKSViJ8s_4core9panicking5panic, symObjAddr: 0xB4FC, symBinAddr: 0x10008F024, symSize: 0x14 }
  - { offset: 0xD6794, size: 0x8, addend: 0x0, symName: __RNvNtCs5FIOKSViJ8s_4core9panicking9panic_fmt, symObjAddr: 0xB510, symBinAddr: 0x10008F038, symSize: 0x28 }
  - { offset: 0xD67C8, size: 0x8, addend: 0x0, symName: __RNvNtNtCs5FIOKSViJ8s_4core9panicking11panic_const23panic_const_div_by_zero, symObjAddr: 0xD298, symBinAddr: 0x10008F134, symSize: 0x1C }
  - { offset: 0xD67E2, size: 0x8, addend: 0x0, symName: __RNvNtNtCs5FIOKSViJ8s_4core9panicking11panic_const23panic_const_gen_fn_none, symObjAddr: 0xD2B4, symBinAddr: 0x10008F150, symSize: 0x1C }
  - { offset: 0xD67FC, size: 0x8, addend: 0x0, symName: __RNvNtNtCs5FIOKSViJ8s_4core9panicking11panic_const23panic_const_rem_by_zero, symObjAddr: 0xD2D0, symBinAddr: 0x10008F16C, symSize: 0x1C }
  - { offset: 0xD6816, size: 0x8, addend: 0x0, symName: __RNvNtNtCs5FIOKSViJ8s_4core9panicking11panic_const24panic_const_add_overflow, symObjAddr: 0xD2EC, symBinAddr: 0x10008F188, symSize: 0x1C }
  - { offset: 0xD6830, size: 0x8, addend: 0x0, symName: __RNvNtNtCs5FIOKSViJ8s_4core9panicking11panic_const24panic_const_div_overflow, symObjAddr: 0xD308, symBinAddr: 0x10008F1A4, symSize: 0x1C }
  - { offset: 0xD684A, size: 0x8, addend: 0x0, symName: __RNvNtNtCs5FIOKSViJ8s_4core9panicking11panic_const24panic_const_mul_overflow, symObjAddr: 0xD324, symBinAddr: 0x10008F1C0, symSize: 0x1C }
  - { offset: 0xD6864, size: 0x8, addend: 0x0, symName: __RNvNtNtCs5FIOKSViJ8s_4core9panicking11panic_const24panic_const_neg_overflow, symObjAddr: 0xD340, symBinAddr: 0x10008F1DC, symSize: 0x1C }
  - { offset: 0xD687E, size: 0x8, addend: 0x0, symName: __RNvNtNtCs5FIOKSViJ8s_4core9panicking11panic_const24panic_const_rem_overflow, symObjAddr: 0xD35C, symBinAddr: 0x10008F1F8, symSize: 0x1C }
  - { offset: 0xD6898, size: 0x8, addend: 0x0, symName: __RNvNtNtCs5FIOKSViJ8s_4core9panicking11panic_const24panic_const_shl_overflow, symObjAddr: 0xD378, symBinAddr: 0x10008F214, symSize: 0x1C }
  - { offset: 0xD68B2, size: 0x8, addend: 0x0, symName: __RNvNtNtCs5FIOKSViJ8s_4core9panicking11panic_const24panic_const_shr_overflow, symObjAddr: 0xD394, symBinAddr: 0x10008F230, symSize: 0x1C }
  - { offset: 0xD68CC, size: 0x8, addend: 0x0, symName: __RNvNtNtCs5FIOKSViJ8s_4core9panicking11panic_const24panic_const_sub_overflow, symObjAddr: 0xD3B0, symBinAddr: 0x10008F24C, symSize: 0x1C }
  - { offset: 0xD68E6, size: 0x8, addend: 0x0, symName: __RNvNtNtCs5FIOKSViJ8s_4core9panicking11panic_const28panic_const_async_fn_resumed, symObjAddr: 0xD3CC, symBinAddr: 0x10008F268, symSize: 0x1C }
  - { offset: 0xD6900, size: 0x8, addend: 0x0, symName: __RNvNtNtCs5FIOKSViJ8s_4core9panicking11panic_const28panic_const_gen_fn_none_drop, symObjAddr: 0xD3E8, symBinAddr: 0x10008F284, symSize: 0x1C }
  - { offset: 0xD691A, size: 0x8, addend: 0x0, symName: __RNvNtNtCs5FIOKSViJ8s_4core9panicking11panic_const29panic_const_coroutine_resumed, symObjAddr: 0xD404, symBinAddr: 0x10008F2A0, symSize: 0x1C }
  - { offset: 0xD6934, size: 0x8, addend: 0x0, symName: __RNvNtNtCs5FIOKSViJ8s_4core9panicking11panic_const29panic_const_gen_fn_none_panic, symObjAddr: 0xD420, symBinAddr: 0x10008F2BC, symSize: 0x1C }
  - { offset: 0xD694E, size: 0x8, addend: 0x0, symName: __RNvNtNtCs5FIOKSViJ8s_4core9panicking11panic_const32panic_const_async_gen_fn_resumed, symObjAddr: 0xD43C, symBinAddr: 0x10008F2D8, symSize: 0x1C }
  - { offset: 0xD6968, size: 0x8, addend: 0x0, symName: __RNvNtNtCs5FIOKSViJ8s_4core9panicking11panic_const33panic_const_async_fn_resumed_drop, symObjAddr: 0xD458, symBinAddr: 0x10008F2F4, symSize: 0x1C }
  - { offset: 0xD6982, size: 0x8, addend: 0x0, symName: __RNvNtNtCs5FIOKSViJ8s_4core9panicking11panic_const34panic_const_async_fn_resumed_panic, symObjAddr: 0xD474, symBinAddr: 0x10008F310, symSize: 0x1C }
  - { offset: 0xD699C, size: 0x8, addend: 0x0, symName: __RNvNtNtCs5FIOKSViJ8s_4core9panicking11panic_const34panic_const_coroutine_resumed_drop, symObjAddr: 0xD490, symBinAddr: 0x10008F32C, symSize: 0x1C }
  - { offset: 0xD69B6, size: 0x8, addend: 0x0, symName: __RNvNtNtCs5FIOKSViJ8s_4core9panicking11panic_const35panic_const_coroutine_resumed_panic, symObjAddr: 0xD4AC, symBinAddr: 0x10008F348, symSize: 0x1C }
  - { offset: 0xD69D0, size: 0x8, addend: 0x0, symName: __RNvNtNtCs5FIOKSViJ8s_4core9panicking11panic_const37panic_const_async_gen_fn_resumed_drop, symObjAddr: 0xD4C8, symBinAddr: 0x10008F364, symSize: 0x1C }
  - { offset: 0xD69EA, size: 0x8, addend: 0x0, symName: __RNvNtNtCs5FIOKSViJ8s_4core9panicking11panic_const38panic_const_async_gen_fn_resumed_panic, symObjAddr: 0xD4E4, symBinAddr: 0x10008F380, symSize: 0x1C }
  - { offset: 0xD6A0F, size: 0x8, addend: 0x0, symName: __RNvXNvNtCs5FIOKSViJ8s_4core9panicking21assert_matches_failedNtB2_7PatternNtNtB6_3fmt5Debug3fmt, symObjAddr: 0x12424, symBinAddr: 0x10007C470, symSize: 0x14 }
  - { offset: 0xD6CCC, size: 0x8, addend: 0x0, symName: __RNvNtNtNtNtNtCs5FIOKSViJ8s_4core3num3imp7flt2dec8strategy5grisu12format_exact, symObjAddr: 0xF0BC, symBinAddr: 0x100079140, symSize: 0x90 }
  - { offset: 0xD6CDF, size: 0x8, addend: 0x0, symName: __RNvNtNtNtNtNtCs5FIOKSViJ8s_4core3num3imp7flt2dec8strategy5grisu15format_shortest, symObjAddr: 0xF14C, symBinAddr: 0x1000791D0, symSize: 0x7C }
  - { offset: 0xD6D0B, size: 0x8, addend: 0x0, symName: __RNvNtNtNtNtNtCs5FIOKSViJ8s_4core3num3imp7flt2dec8strategy5grisu16format_exact_opt, symObjAddr: 0xF1C8, symBinAddr: 0x10007924C, symSize: 0x378 }
  - { offset: 0xD6DC2, size: 0x8, addend: 0x0, symName: __RNvNtNtNtNtNtCs5FIOKSViJ8s_4core3num3imp7flt2dec8strategy5grisu19format_shortest_opt, symObjAddr: 0xF540, symBinAddr: 0x1000795C4, symSize: 0x5C4 }
  - { offset: 0xD6F79, size: 0x8, addend: 0x0, symName: __RNvNvNtNtNtNtNtCs5FIOKSViJ8s_4core3num3imp7flt2dec8strategy5grisu16format_exact_opt14possibly_round, symObjAddr: 0x11578, symBinAddr: 0x10007B5C4, symSize: 0x1DC }
  - { offset: 0xD70F4, size: 0x8, addend: 0x0, symName: __RNvNtNtNtNtNtCs5FIOKSViJ8s_4core3num3imp7flt2dec8strategy6dragon12format_exact, symObjAddr: 0xFB04, symBinAddr: 0x100079B88, symSize: 0xA3C }
  - { offset: 0xD87B9, size: 0x8, addend: 0x0, symName: __RNvNtNtNtNtNtCs5FIOKSViJ8s_4core3num3imp7flt2dec8strategy6dragon15format_shortest, symObjAddr: 0x10540, symBinAddr: 0x10007A5C4, symSize: 0xBB8 }
  - { offset: 0xDA21D, size: 0x8, addend: 0x0, symName: __RNvNtNtNtNtNtCs5FIOKSViJ8s_4core3num3imp7flt2dec8strategy6dragon9mul_pow10, symObjAddr: 0x110F8, symBinAddr: 0x10007B17C, symSize: 0x1E0 }
  - { offset: 0xDA64B, size: 0x8, addend: 0x0, symName: __RNvNtNtNtCs5FIOKSViJ8s_4core3num3imp7flt2dec17digits_to_dec_str, symObjAddr: 0xDAA8, symBinAddr: 0x100077B84, symSize: 0x148 }
  - { offset: 0xDA6A5, size: 0x8, addend: 0x0, symName: __RNvNtNtNtCs5FIOKSViJ8s_4core3num3imp7flt2dec17digits_to_exp_str, symObjAddr: 0xDBF0, symBinAddr: 0x100077CCC, symSize: 0x168 }
  - { offset: 0xDA6FA, size: 0x8, addend: 0x0, symName: __RNvNtNtNtCs5FIOKSViJ8s_4core3num3imp7flt2dec8round_up, symObjAddr: 0xDD58, symBinAddr: 0x100077E34, symSize: 0x90 }
  - { offset: 0xDA838, size: 0x8, addend: 0x0, symName: __RINvNtNtNtNtCs5FIOKSViJ8s_4core3num3imp7dec2flt6lemire13compute_floatC3f16EBa_, symObjAddr: 0x25DC, symBinAddr: 0x10006CFE0, symSize: 0x12C }
  - { offset: 0xDA8EC, size: 0x8, addend: 0x0, symName: __RINvNtNtNtNtCs5FIOKSViJ8s_4core3num3imp7dec2flt6lemire13compute_floatdEBa_, symObjAddr: 0x2708, symBinAddr: 0x10006D10C, symSize: 0x14C }
  - { offset: 0xDA9A0, size: 0x8, addend: 0x0, symName: __RINvNtNtNtNtCs5FIOKSViJ8s_4core3num3imp7dec2flt6lemire13compute_floatfEBa_, symObjAddr: 0x2854, symBinAddr: 0x10006D258, symSize: 0x150 }
  - { offset: 0xDAA6D, size: 0x8, addend: 0x0, symName: __RNvMs_NtNtNtNtCs5FIOKSViJ8s_4core3num3imp7dec2flt11decimal_seqNtB4_10DecimalSeq10left_shift, symObjAddr: 0x71C8, symBinAddr: 0x100071BCC, symSize: 0x20C }
  - { offset: 0xDAAED, size: 0x8, addend: 0x0, symName: __RNvMs_NtNtNtNtCs5FIOKSViJ8s_4core3num3imp7dec2flt11decimal_seqNtB4_10DecimalSeq11right_shift, symObjAddr: 0x73D4, symBinAddr: 0x100071DD8, symSize: 0x1B0 }
  - { offset: 0xDAB13, size: 0x8, addend: 0x0, symName: __RNvMs_NtNtNtNtCs5FIOKSViJ8s_4core3num3imp7dec2flt11decimal_seqNtB4_10DecimalSeq5round, symObjAddr: 0x7584, symBinAddr: 0x100071F88, symSize: 0xB4 }
  - { offset: 0xDABB6, size: 0x8, addend: 0x0, symName: __RNvNtNtNtNtCs5FIOKSViJ8s_4core3num3imp7dec2flt11decimal_seq17parse_decimal_seq, symObjAddr: 0xE834, symBinAddr: 0x1000788D8, symSize: 0x3EC }
  - { offset: 0xDAFFA, size: 0x8, addend: 0x0, symName: __RNvNtNtNtNtCs5FIOKSViJ8s_4core3num3imp7dec2flt5parse12parse_number, symObjAddr: 0xEC20, symBinAddr: 0x100078CC4, symSize: 0x450 }
  - { offset: 0xDB6EA, size: 0x8, addend: 0x0, symName: __RNvNtNtNtCs5FIOKSViJ8s_4core3num3imp9int_log1030panic_for_nonpositive_argument, symObjAddr: 0xDE04, symBinAddr: 0x10008F498, symSize: 0x1C }
  - { offset: 0xDB71A, size: 0x8, addend: 0x0, symName: __RNvMNtNtNtCs5FIOKSViJ8s_4core3num3imp3fmtNtB2_4Part3len, symObjAddr: 0x3800, symBinAddr: 0x10006E204, symSize: 0x64 }
  - { offset: 0xDB79E, size: 0x8, addend: 0x0, symName: __RNvMNtNtNtCs5FIOKSViJ8s_4core3num3imp3fmtNtB2_4Part5write, symObjAddr: 0x3864, symBinAddr: 0x10006E268, symSize: 0x164 }
  - { offset: 0xDB96F, size: 0x8, addend: 0x0, symName: __RNvMs_NtNtNtCs5FIOKSViJ8s_4core3num3imp3fmtNtB4_9Formatted3len, symObjAddr: 0x7060, symBinAddr: 0x100071A64, symSize: 0xA8 }
  - { offset: 0xDBA57, size: 0x8, addend: 0x0, symName: __RNvMs_NtNtNtCs5FIOKSViJ8s_4core3num3imp3fmtNtB4_9Formatted5write, symObjAddr: 0x7108, symBinAddr: 0x100071B0C, symSize: 0xC0 }
  - { offset: 0xDBB97, size: 0x8, addend: 0x0, symName: __RNvMNtNtNtCs5FIOKSViJ8s_4core3num3imp9diy_floatNtB2_2Fp12normalize_to, symObjAddr: 0x39C8, symBinAddr: 0x10006E3CC, symSize: 0x7C }
  - { offset: 0xDBC06, size: 0x8, addend: 0x0, symName: __RNvMNtNtNtNtCs5FIOKSViJ8s_4core3num3imp6bignum5testsNtB2_6Big8x310bit_length, symObjAddr: 0x3A44, symBinAddr: 0x10006E448, symSize: 0xC0 }
  - { offset: 0xDBD17, size: 0x8, addend: 0x0, symName: __RNvMNtNtNtNtCs5FIOKSViJ8s_4core3num3imp6bignum5testsNtB2_6Big8x310mul_digits, symObjAddr: 0x3B04, symBinAddr: 0x10006E508, symSize: 0x368 }
  - { offset: 0xDC01B, size: 0x8, addend: 0x0, symName: __RNvMNtNtNtNtCs5FIOKSViJ8s_4core3num3imp6bignum5testsNtB2_6Big8x313div_rem_small, symObjAddr: 0x3E6C, symBinAddr: 0x10006E870, symSize: 0xC4 }
  - { offset: 0xDC0E1, size: 0x8, addend: 0x0, symName: __RNvMNtNtNtNtCs5FIOKSViJ8s_4core3num3imp6bignum5testsNtB2_6Big8x33add, symObjAddr: 0x3F30, symBinAddr: 0x10006E934, symSize: 0xB4 }
  - { offset: 0xDC1CA, size: 0x8, addend: 0x0, symName: __RNvMNtNtNtNtCs5FIOKSViJ8s_4core3num3imp6bignum5testsNtB2_6Big8x33sub, symObjAddr: 0x3FE4, symBinAddr: 0x10006E9E8, symSize: 0xA8 }
  - { offset: 0xDC2B2, size: 0x8, addend: 0x0, symName: __RNvMNtNtNtNtCs5FIOKSViJ8s_4core3num3imp6bignum5testsNtB2_6Big8x36digits, symObjAddr: 0x408C, symBinAddr: 0x10006EA90, symSize: 0x2C }
  - { offset: 0xDC312, size: 0x8, addend: 0x0, symName: __RNvMNtNtNtNtCs5FIOKSViJ8s_4core3num3imp6bignum5testsNtB2_6Big8x37is_zero, symObjAddr: 0x40B8, symBinAddr: 0x10006EABC, symSize: 0x7C }
  - { offset: 0xDC39F, size: 0x8, addend: 0x0, symName: __RNvMNtNtNtNtCs5FIOKSViJ8s_4core3num3imp6bignum5testsNtB2_6Big8x38mul_pow2, symObjAddr: 0x4134, symBinAddr: 0x10006EB38, symSize: 0x25C }
  - { offset: 0xDC487, size: 0x8, addend: 0x0, symName: __RNvMNtNtNtNtCs5FIOKSViJ8s_4core3num3imp6bignum5testsNtB2_6Big8x38mul_pow5, symObjAddr: 0x4390, symBinAddr: 0x10006ED94, symSize: 0x19C }
  - { offset: 0xDC5C5, size: 0x8, addend: 0x0, symName: __RNvMNtNtNtNtCs5FIOKSViJ8s_4core3num3imp6bignum5testsNtB2_6Big8x39mul_small, symObjAddr: 0x452C, symBinAddr: 0x10006EF30, symSize: 0xC4 }
  - { offset: 0xDC678, size: 0x8, addend: 0x0, symName: __RNvXs2_NtNtNtNtCs5FIOKSViJ8s_4core3num3imp6bignum5testsNtB5_6Big8x3NtNtBd_3cmp3Ord3cmp, symObjAddr: 0x1787C, symBinAddr: 0x1000818C8, symSize: 0xB4 }
  - { offset: 0xDC83D, size: 0x8, addend: 0x0, symName: __RNvXs1_NtNtNtNtCs5FIOKSViJ8s_4core3num3imp6bignum5testsNtB5_6Big8x3NtNtBd_3cmp10PartialOrd11partial_cmp, symObjAddr: 0x14E88, symBinAddr: 0x10007EED4, symSize: 0xB4 }
  - { offset: 0xDCA17, size: 0x8, addend: 0x0, symName: __RNvXs5_NtNtNtNtCs5FIOKSViJ8s_4core3num3imp6bignum5testsNtB5_6Big8x3NtNtBd_3fmt5Debug3fmt, symObjAddr: 0x18A58, symBinAddr: 0x100082AA4, symSize: 0x128 }
  - { offset: 0xDCB33, size: 0x8, addend: 0x0, symName: __RNvMs2_NtNtNtCs5FIOKSViJ8s_4core3num3imp6bignumNtB5_8Big32x4010bit_length, symObjAddr: 0x53F0, symBinAddr: 0x10006FDF4, symSize: 0x7C }
  - { offset: 0xDCC5D, size: 0x8, addend: 0x0, symName: __RNvMs2_NtNtNtCs5FIOKSViJ8s_4core3num3imp6bignumNtB5_8Big32x4010mul_digits, symObjAddr: 0x546C, symBinAddr: 0x10006FE70, symSize: 0x2E0 }
  - { offset: 0xDCFCF, size: 0x8, addend: 0x0, symName: __RNvMs2_NtNtNtCs5FIOKSViJ8s_4core3num3imp6bignumNtB5_8Big32x4013div_rem_small, symObjAddr: 0x574C, symBinAddr: 0x100070150, symSize: 0x8C }
  - { offset: 0xDD0B4, size: 0x8, addend: 0x0, symName: __RNvMs2_NtNtNtCs5FIOKSViJ8s_4core3num3imp6bignumNtB5_8Big32x403add, symObjAddr: 0x57D8, symBinAddr: 0x1000701DC, symSize: 0xA0 }
  - { offset: 0xDD16B, size: 0x8, addend: 0x0, symName: __RNvMs2_NtNtNtCs5FIOKSViJ8s_4core3num3imp6bignumNtB5_8Big32x403sub, symObjAddr: 0x5878, symBinAddr: 0x10007027C, symSize: 0x98 }
  - { offset: 0xDD222, size: 0x8, addend: 0x0, symName: __RNvMs2_NtNtNtCs5FIOKSViJ8s_4core3num3imp6bignumNtB5_8Big32x406digits, symObjAddr: 0x5910, symBinAddr: 0x100070314, symSize: 0x2C }
  - { offset: 0xDD281, size: 0x8, addend: 0x0, symName: __RNvMs2_NtNtNtCs5FIOKSViJ8s_4core3num3imp6bignumNtB5_8Big32x407is_zero, symObjAddr: 0x593C, symBinAddr: 0x100070340, symSize: 0x50 }
  - { offset: 0xDD325, size: 0x8, addend: 0x0, symName: __RNvMs2_NtNtNtCs5FIOKSViJ8s_4core3num3imp6bignumNtB5_8Big32x408mul_pow2, symObjAddr: 0x598C, symBinAddr: 0x100070390, symSize: 0x278 }
  - { offset: 0xDD40C, size: 0x8, addend: 0x0, symName: __RNvMs2_NtNtNtCs5FIOKSViJ8s_4core3num3imp6bignumNtB5_8Big32x408mul_pow5, symObjAddr: 0x5C04, symBinAddr: 0x100070608, symSize: 0x1B4 }
  - { offset: 0xDD57C, size: 0x8, addend: 0x0, symName: __RNvMs2_NtNtNtCs5FIOKSViJ8s_4core3num3imp6bignumNtB5_8Big32x409mul_small, symObjAddr: 0x5DB8, symBinAddr: 0x1000707BC, symSize: 0x88 }
  - { offset: 0xDD6E7, size: 0x8, addend: 0x0, symName: __RNvXs6_NtNtNtCs5FIOKSViJ8s_4core3num3imp6bignumNtB5_8Big32x40NtNtBb_3cmp3Ord3cmp, symObjAddr: 0x19028, symBinAddr: 0x100083074, symSize: 0x70 }
  - { offset: 0xDD907, size: 0x8, addend: 0x0, symName: __RNvXs5_NtNtNtCs5FIOKSViJ8s_4core3num3imp6bignumNtB5_8Big32x40NtNtBb_3cmp10PartialOrd11partial_cmp, symObjAddr: 0x189E8, symBinAddr: 0x100082A34, symSize: 0x70 }
  - { offset: 0xDDB28, size: 0x8, addend: 0x0, symName: __RNvXs9_NtNtNtCs5FIOKSViJ8s_4core3num3imp6bignumNtB5_8Big32x40NtNtBb_3fmt5Debug3fmt, symObjAddr: 0x19958, symBinAddr: 0x1000839A4, symSize: 0x108 }
  - { offset: 0xDDBCB, size: 0x8, addend: 0x0, symName: __RNvNtNtNtCs5FIOKSViJ8s_4core3num3imp14overflow_panic3add, symObjAddr: 0xD9C8, symBinAddr: 0x10008F39C, symSize: 0x1C }
  - { offset: 0xDDBE5, size: 0x8, addend: 0x0, symName: __RNvNtNtNtCs5FIOKSViJ8s_4core3num3imp14overflow_panic3div, symObjAddr: 0xD9E4, symBinAddr: 0x10008F3B8, symSize: 0x1C }
  - { offset: 0xDDBFF, size: 0x8, addend: 0x0, symName: __RNvNtNtNtCs5FIOKSViJ8s_4core3num3imp14overflow_panic3mul, symObjAddr: 0xDA00, symBinAddr: 0x10008F3D4, symSize: 0x1C }
  - { offset: 0xDDC19, size: 0x8, addend: 0x0, symName: __RNvNtNtNtCs5FIOKSViJ8s_4core3num3imp14overflow_panic3neg, symObjAddr: 0xDA1C, symBinAddr: 0x10008F3F0, symSize: 0x1C }
  - { offset: 0xDDC33, size: 0x8, addend: 0x0, symName: __RNvNtNtNtCs5FIOKSViJ8s_4core3num3imp14overflow_panic3rem, symObjAddr: 0xDA38, symBinAddr: 0x10008F40C, symSize: 0x1C }
  - { offset: 0xDDC4D, size: 0x8, addend: 0x0, symName: __RNvNtNtNtCs5FIOKSViJ8s_4core3num3imp14overflow_panic3shl, symObjAddr: 0xDA54, symBinAddr: 0x10008F428, symSize: 0x1C }
  - { offset: 0xDDC67, size: 0x8, addend: 0x0, symName: __RNvNtNtNtCs5FIOKSViJ8s_4core3num3imp14overflow_panic3shr, symObjAddr: 0xDA70, symBinAddr: 0x10008F444, symSize: 0x1C }
  - { offset: 0xDDC81, size: 0x8, addend: 0x0, symName: __RNvNtNtNtCs5FIOKSViJ8s_4core3num3imp14overflow_panic3sub, symObjAddr: 0xDA8C, symBinAddr: 0x10008F460, symSize: 0x1C }
  - { offset: 0xDDCA1, size: 0x8, addend: 0x0, symName: __RNvNtNtNtCs5FIOKSViJ8s_4core3num3imp8int_sqrt27panic_for_negative_argument, symObjAddr: 0xDDE8, symBinAddr: 0x10008F47C, symSize: 0x1C }
  - { offset: 0xDE67D, size: 0x8, addend: 0x0, symName: __RNvXs11_NtNtCs5FIOKSViJ8s_4core3num7nonzeroINtB6_7NonZerotENtNtNtBa_3str6traits7FromStr8from_str, symObjAddr: 0x131E4, symBinAddr: 0x10007D230, symSize: 0x174 }
  - { offset: 0xDE770, size: 0x8, addend: 0x0, symName: __RNvXs18_NtNtCs5FIOKSViJ8s_4core3num7nonzeroINtB6_7NonZeromENtNtNtBa_3str6traits7FromStr8from_str, symObjAddr: 0x13664, symBinAddr: 0x10007D6B0, symSize: 0x1E4 }
  - { offset: 0xDE86B, size: 0x8, addend: 0x0, symName: __RNvXs1A_NtNtCs5FIOKSViJ8s_4core3num7nonzeroINtB6_7NonZeroaENtNtNtBa_3str6traits7FromStr8from_str, symObjAddr: 0x13904, symBinAddr: 0x10007D950, symSize: 0x1D4 }
  - { offset: 0xDEA31, size: 0x8, addend: 0x0, symName: __RNvXs1E_NtNtCs5FIOKSViJ8s_4core3num7nonzeroINtB6_7NonZerosENtNtNtBa_3str6traits7FromStr8from_str, symObjAddr: 0x13AD8, symBinAddr: 0x10007DB24, symSize: 0x1EC }
  - { offset: 0xDEBB2, size: 0x8, addend: 0x0, symName: __RNvXs1I_NtNtCs5FIOKSViJ8s_4core3num7nonzeroINtB6_7NonZerolENtNtNtBa_3str6traits7FromStr8from_str, symObjAddr: 0x13CEC, symBinAddr: 0x10007DD38, symSize: 0x250 }
  - { offset: 0xDED2D, size: 0x8, addend: 0x0, symName: __RNvXs1M_NtNtCs5FIOKSViJ8s_4core3num7nonzeroINtB6_7NonZeroxENtNtNtBa_3str6traits7FromStr8from_str, symObjAddr: 0x13F3C, symBinAddr: 0x10007DF88, symSize: 0x1DC }
  - { offset: 0xDEED6, size: 0x8, addend: 0x0, symName: __RNvXs1Q_NtNtCs5FIOKSViJ8s_4core3num7nonzeroINtB6_7NonZeronENtNtNtBa_3str6traits7FromStr8from_str, symObjAddr: 0x14140, symBinAddr: 0x10007E18C, symSize: 0x294 }
  - { offset: 0xDF07F, size: 0x8, addend: 0x0, symName: __RNvXs1f_NtNtCs5FIOKSViJ8s_4core3num7nonzeroINtB6_7NonZeroyENtNtNtBa_3str6traits7FromStr8from_str, symObjAddr: 0x14F78, symBinAddr: 0x10007EFC4, symSize: 0x138 }
  - { offset: 0xDF182, size: 0x8, addend: 0x0, symName: __RNvXs1m_NtNtCs5FIOKSViJ8s_4core3num7nonzeroINtB6_7NonZerooENtNtNtBa_3str6traits7FromStr8from_str, symObjAddr: 0x1555C, symBinAddr: 0x10007F5A8, symSize: 0x194 }
  - { offset: 0xDF274, size: 0x8, addend: 0x0, symName: __RNvXsF_NtNtCs5FIOKSViJ8s_4core3num7nonzeroINtB5_7NonZerojENtNtB9_3fmt5Debug3fmtB9_, symObjAddr: 0x19D80, symBinAddr: 0x100083DCC, symSize: 0x28 }
  - { offset: 0xDF2A9, size: 0x8, addend: 0x0, symName: __RNvXsU_NtNtCs5FIOKSViJ8s_4core3num7nonzeroINtB5_7NonZerohENtNtNtB9_3str6traits7FromStr8from_str, symObjAddr: 0x1A7A4, symBinAddr: 0x1000847F0, symSize: 0x120 }
  - { offset: 0xDF940, size: 0x8, addend: 0x0, symName: __RNvNtCs5FIOKSViJ8s_4core3num22from_ascii_radix_panic, symObjAddr: 0xAC48, symBinAddr: 0x10008EB54, symSize: 0x34 }
  - { offset: 0xDF9B0, size: 0x8, addend: 0x0, symName: __RNvXNtNtCs5FIOKSViJ8s_4core3num5errorNtB2_15TryFromIntErrorNtNtB6_3fmt7Display3fmt, symObjAddr: 0x12330, symBinAddr: 0x10007C37C, symSize: 0x14 }
  - { offset: 0xDF9E5, size: 0x8, addend: 0x0, symName: __RNvXs3_NtNtCs5FIOKSViJ8s_4core3num5errorNtB5_13ParseIntErrorNtNtB9_3fmt7Display3fmt, symObjAddr: 0x18218, symBinAddr: 0x100082264, symSize: 0x28 }
  - { offset: 0xDFA20, size: 0x8, addend: 0x0, symName: __RNvXs0_NtNtCs5FIOKSViJ8s_4core3num11float_parseC3f16NtNtNtB9_3str6traits7FromStr8from_str, symObjAddr: 0x128B0, symBinAddr: 0x10007C8FC, symSize: 0x47C }
  - { offset: 0xDFA49, size: 0x8, addend: 0x0, symName: __RNvXs0_NtNtCs5FIOKSViJ8s_4core3num11float_parseC3f16NtNtNtB9_3str6traits7FromStr8from_str, symObjAddr: 0x128B0, symBinAddr: 0x10007C8FC, symSize: 0x47C }
  - { offset: 0xDFCB9, size: 0x8, addend: 0x0, symName: __RNvXs1_NtNtCs5FIOKSViJ8s_4core3num11float_parsefNtNtNtB9_3str6traits7FromStr8from_str, symObjAddr: 0x146CC, symBinAddr: 0x10007E718, symSize: 0x498 }
  - { offset: 0xDFCE2, size: 0x8, addend: 0x0, symName: __RNvXs1_NtNtCs5FIOKSViJ8s_4core3num11float_parsefNtNtNtB9_3str6traits7FromStr8from_str, symObjAddr: 0x146CC, symBinAddr: 0x10007E718, symSize: 0x498 }
  - { offset: 0xDFF5B, size: 0x8, addend: 0x0, symName: __RNvXs2_NtNtCs5FIOKSViJ8s_4core3num11float_parsedNtNtNtB9_3str6traits7FromStr8from_str, symObjAddr: 0x16FFC, symBinAddr: 0x100081048, symSize: 0x484 }
  - { offset: 0xE01D2, size: 0x8, addend: 0x0, symName: __RNvXs_NtNtCs5FIOKSViJ8s_4core3num11float_parseNtB4_15ParseFloatErrorNtNtB8_3fmt7Display3fmt, symObjAddr: 0x1B1FC, symBinAddr: 0x100085248, symSize: 0x38 }
  - { offset: 0xE0241, size: 0x8, addend: 0x0, symName: __RNvXs12_NtNtCs5FIOKSViJ8s_4core3num11niche_typesNtB6_14NonZeroI8InnerNtNtBa_3fmt5Debug3fmt, symObjAddr: 0x13450, symBinAddr: 0x10007D49C, symSize: 0x8 }
  - { offset: 0xE0273, size: 0x8, addend: 0x0, symName: __RNvXs1G_NtNtCs5FIOKSViJ8s_4core3num11niche_typesNtB6_14UsizeNoHighBitNtNtBa_3fmt5Debug3fmt, symObjAddr: 0x13CC4, symBinAddr: 0x10007DD10, symSize: 0x28 }
  - { offset: 0xE02BA, size: 0x8, addend: 0x0, symName: __RNvXs1O_NtNtCs5FIOKSViJ8s_4core3num11niche_typesNtB6_17NonZeroUsizeInnerNtNtBa_3fmt5Debug3fmt, symObjAddr: 0x14118, symBinAddr: 0x10007E164, symSize: 0x28 }
  - { offset: 0xE0301, size: 0x8, addend: 0x0, symName: __RNvXs1W_NtNtCs5FIOKSViJ8s_4core3num11niche_typesNtB6_17NonZeroIsizeInnerNtNtBa_3fmt5Debug3fmt, symObjAddr: 0x143D4, symBinAddr: 0x10007E420, symSize: 0xBC }
  - { offset: 0xE03DB, size: 0x8, addend: 0x0, symName: __RNvXs1a_NtNtCs5FIOKSViJ8s_4core3num11niche_typesNtB6_15NonZeroI16InnerNtNtBa_3fmt5Debug3fmt, symObjAddr: 0x14F3C, symBinAddr: 0x10007EF88, symSize: 0x8 }
  - { offset: 0xE040D, size: 0x8, addend: 0x0, symName: __RNvXs1i_NtNtCs5FIOKSViJ8s_4core3num11niche_typesNtB6_15NonZeroI32InnerNtNtBa_3fmt5Debug3fmt, symObjAddr: 0x15474, symBinAddr: 0x10007F4C0, symSize: 0xC8 }
  - { offset: 0xE04E7, size: 0x8, addend: 0x0, symName: __RNvXs1y_NtNtCs5FIOKSViJ8s_4core3num11niche_typesNtB6_16NonZeroI128InnerNtNtBa_3fmt5Debug3fmt, symObjAddr: 0x157A4, symBinAddr: 0x10007F7F0, symSize: 0xC }
  - { offset: 0xE0507, size: 0x8, addend: 0x0, symName: __RNvXs24_NtNtCs5FIOKSViJ8s_4core3num11niche_typesNtB6_13U32NotAllOnesNtNtBa_3fmt5Debug3fmt, symObjAddr: 0x1642C, symBinAddr: 0x100080478, symSize: 0x1C8 }
  - { offset: 0xE0685, size: 0x8, addend: 0x0, symName: __RNvXs2A_NtNtCs5FIOKSViJ8s_4core3num11niche_typesNtB6_16NonZeroCharInnerNtNtBa_3fmt5Debug3fmt, symObjAddr: 0x16950, symBinAddr: 0x10008099C, symSize: 0xB0 }
  - { offset: 0xE07AC, size: 0x8, addend: 0x0, symName: __RNvXs2c_NtNtCs5FIOKSViJ8s_4core3num11niche_typesNtB6_13I32NotAllOnesNtNtBa_3fmt5Debug3fmt, symObjAddr: 0x17930, symBinAddr: 0x10008197C, symSize: 0xC8 }
  - { offset: 0xE0886, size: 0x8, addend: 0x0, symName: __RNvXs2k_NtNtCs5FIOKSViJ8s_4core3num11niche_typesNtB6_13U64NotAllOnesNtNtBa_3fmt5Debug3fmt, symObjAddr: 0x179F8, symBinAddr: 0x100081A44, symSize: 0x8 }
  - { offset: 0xE08B8, size: 0x8, addend: 0x0, symName: __RNvXs2s_NtNtCs5FIOKSViJ8s_4core3num11niche_typesNtB6_13I64NotAllOnesNtNtBa_3fmt5Debug3fmt, symObjAddr: 0x17A00, symBinAddr: 0x100081A4C, symSize: 0xBC }
  - { offset: 0xE0992, size: 0x8, addend: 0x0, symName: __RNvXs3A_NtNtCs5FIOKSViJ8s_4core3num11niche_typesNtB6_14CodePointInnerNtNtBa_3fmt5Debug3fmt, symObjAddr: 0x17ABC, symBinAddr: 0x100081B08, symSize: 0x1A0 }
  - { offset: 0xE0B10, size: 0x8, addend: 0x0, symName: __RNvXsE_NtNtCs5FIOKSViJ8s_4core3num11niche_typesNtB5_15NonZeroU32InnerNtNtB9_3fmt5Debug3fmt, symObjAddr: 0x19B78, symBinAddr: 0x100083BC4, symSize: 0x1BC }
  - { offset: 0xE0C8E, size: 0x8, addend: 0x0, symName: __RNvXsM_NtNtCs5FIOKSViJ8s_4core3num11niche_typesNtB5_15NonZeroU64InnerNtNtB9_3fmt5Debug3fmt, symObjAddr: 0x1A110, symBinAddr: 0x10008415C, symSize: 0x8 }
  - { offset: 0xE0CAE, size: 0x8, addend: 0x0, symName: __RNvXsU_NtNtCs5FIOKSViJ8s_4core3num11niche_typesNtB5_16NonZeroU128InnerNtNtB9_3fmt5Debug3fmt, symObjAddr: 0x1A798, symBinAddr: 0x1000847E4, symSize: 0xC }
  - { offset: 0xE0CCE, size: 0x8, addend: 0x0, symName: __RNvXsd_NtNtCs5FIOKSViJ8s_4core3num11niche_typesNtB5_11NanosecondsNtNtB9_3fmt5Debug3fmt, symObjAddr: 0x1C758, symBinAddr: 0x1000867A4, symSize: 0x1C8 }
  - { offset: 0xE0E4C, size: 0x8, addend: 0x0, symName: __RNvXso_NtNtCs5FIOKSViJ8s_4core3num11niche_typesNtB5_14NonZeroU8InnerNtNtB9_3fmt5Debug3fmt, symObjAddr: 0x1DEDC, symBinAddr: 0x100087F28, symSize: 0x8 }
  - { offset: 0xE0E6C, size: 0x8, addend: 0x0, symName: __RNvXsw_NtNtCs5FIOKSViJ8s_4core3num11niche_typesNtB5_15NonZeroU16InnerNtNtB9_3fmt5Debug3fmt, symObjAddr: 0x1E450, symBinAddr: 0x10008849C, symSize: 0x8 }
  - { offset: 0xE0FFC, size: 0x8, addend: 0x0, symName: __RNvYNCNvNvMs6_NtNtCs5FIOKSViJ8s_4core4task4wakeNtBc_5Waker11from_fn_ptr6VTABLE0INtNtNtBg_3ops8function6FnOnceTPuEE9call_onceBg_, symObjAddr: 0x1EA40, symBinAddr: 0x100088A8C, symSize: 0x10 }
  - { offset: 0xE102A, size: 0x8, addend: 0x0, symName: __RNvYNCNvNvMs6_NtNtCs5FIOKSViJ8s_4core4task4wakeNtBc_5Waker11from_fn_ptr6VTABLEs0_0INtNtNtBg_3ops8function6FnOnceTPuEE9call_onceBg_, symObjAddr: 0x1EA50, symBinAddr: 0x100088A9C, symSize: 0x4 }
  - { offset: 0xE1047, size: 0x8, addend: 0x0, symName: __RNvYNCNvNvMs6_NtNtCs5FIOKSViJ8s_4core4task4wakeNtBc_5Waker11from_fn_ptr6VTABLEs0_0INtNtNtBg_3ops8function6FnOnceTPuEE9call_onceBg_, symObjAddr: 0x1EA50, symBinAddr: 0x100088A9C, symSize: 0x4 }
  - { offset: 0xE1058, size: 0x8, addend: 0x0, symName: __RNvYNCNvNvMs6_NtNtCs5FIOKSViJ8s_4core4task4wakeNtBc_5Waker11from_fn_ptr6VTABLEs1_0INtNtNtBg_3ops8function6FnOnceTPuEE9call_onceBg_, symObjAddr: 0x1EA54, symBinAddr: 0x100088AA0, symSize: 0x4 }
  - { offset: 0xE1071, size: 0x8, addend: 0x0, symName: __RNvYNCNvNvMsb_NtNtCs5FIOKSViJ8s_4core4task4wakeNtBc_10LocalWaker11from_fn_ptr6VTABLE0INtNtNtBg_3ops8function6FnOnceTPuEE9call_onceBg_, symObjAddr: 0x1EA58, symBinAddr: 0x100088AA4, symSize: 0x10 }
  - { offset: 0xE11BD, size: 0x8, addend: 0x0, symName: __RNvXNtNtCs5FIOKSViJ8s_4core3ops5rangeNtB2_9RangeFullNtNtB6_3fmt5Debug3fmt, symObjAddr: 0x12344, symBinAddr: 0x10007C390, symSize: 0x18 }
  - { offset: 0xE11DA, size: 0x8, addend: 0x0, symName: __RNvXNtNtCs5FIOKSViJ8s_4core3ops5rangeNtB2_9RangeFullNtNtB6_3fmt5Debug3fmt, symObjAddr: 0x12344, symBinAddr: 0x10007C390, symSize: 0x18 }
  - { offset: 0xE11F2, size: 0x8, addend: 0x0, symName: __RNvXs_NtNtCs5FIOKSViJ8s_4core3ops5rangeINtB4_5RangejENtNtB8_3fmt5Debug3fmtB8_, symObjAddr: 0x1B234, symBinAddr: 0x100085280, symSize: 0x5C }
  - { offset: 0xE13B2, size: 0x8, addend: 0x0, symName: __RINvNtNtCs5FIOKSViJ8s_4core3fmt5float29float_to_decimal_common_exactC3f16EB6_, symObjAddr: 0x78, symBinAddr: 0x10006AA7C, symSize: 0x340 }
  - { offset: 0xE149C, size: 0x8, addend: 0x0, symName: __RINvNtNtCs5FIOKSViJ8s_4core3fmt5float29float_to_decimal_common_exactdEB6_, symObjAddr: 0x3B8, symBinAddr: 0x10006ADBC, symSize: 0x340 }
  - { offset: 0xE159C, size: 0x8, addend: 0x0, symName: __RINvNtNtCs5FIOKSViJ8s_4core3fmt5float29float_to_decimal_common_exactfEB6_, symObjAddr: 0x6F8, symBinAddr: 0x10006B0FC, symSize: 0x338 }
  - { offset: 0xE1686, size: 0x8, addend: 0x0, symName: __RINvNtNtCs5FIOKSViJ8s_4core3fmt5float32float_to_decimal_common_shortestC3f16EB6_, symObjAddr: 0xA30, symBinAddr: 0x10006B434, symSize: 0x288 }
  - { offset: 0xE1763, size: 0x8, addend: 0x0, symName: __RINvNtNtCs5FIOKSViJ8s_4core3fmt5float32float_to_decimal_common_shortestdEB6_, symObjAddr: 0xCB8, symBinAddr: 0x10006B6BC, symSize: 0x284 }
  - { offset: 0xE1856, size: 0x8, addend: 0x0, symName: __RINvNtNtCs5FIOKSViJ8s_4core3fmt5float32float_to_decimal_common_shortestfEB6_, symObjAddr: 0xF3C, symBinAddr: 0x10006B940, symSize: 0x280 }
  - { offset: 0xE1933, size: 0x8, addend: 0x0, symName: __RINvNtNtCs5FIOKSViJ8s_4core3fmt5float33float_to_exponential_common_exactC3f16EB6_, symObjAddr: 0x11BC, symBinAddr: 0x10006BBC0, symSize: 0x38C }
  - { offset: 0xE1A31, size: 0x8, addend: 0x0, symName: __RINvNtNtCs5FIOKSViJ8s_4core3fmt5float33float_to_exponential_common_exactdEB6_, symObjAddr: 0x1548, symBinAddr: 0x10006BF4C, symSize: 0x384 }
  - { offset: 0xE1B45, size: 0x8, addend: 0x0, symName: __RINvNtNtCs5FIOKSViJ8s_4core3fmt5float33float_to_exponential_common_exactfEB6_, symObjAddr: 0x18CC, symBinAddr: 0x10006C2D0, symSize: 0x384 }
  - { offset: 0xE1C43, size: 0x8, addend: 0x0, symName: __RINvNtNtCs5FIOKSViJ8s_4core3fmt5float36float_to_exponential_common_shortestC3f16EB6_, symObjAddr: 0x1C50, symBinAddr: 0x10006C654, symSize: 0x334 }
  - { offset: 0xE1D45, size: 0x8, addend: 0x0, symName: __RINvNtNtCs5FIOKSViJ8s_4core3fmt5float36float_to_exponential_common_shortestdEB6_, symObjAddr: 0x1F84, symBinAddr: 0x10006C988, symSize: 0x32C }
  - { offset: 0xE1E5D, size: 0x8, addend: 0x0, symName: __RINvNtNtCs5FIOKSViJ8s_4core3fmt5float36float_to_exponential_common_shortestfEB6_, symObjAddr: 0x22B0, symBinAddr: 0x10006CCB4, symSize: 0x32C }
  - { offset: 0xE1F83, size: 0x8, addend: 0x0, symName: __RNvXs2_NtNtCs5FIOKSViJ8s_4core3fmt5floatfNtB7_5Debug3fmt, symObjAddr: 0x16EFC, symBinAddr: 0x100080F48, symSize: 0x78 }
  - { offset: 0xE2016, size: 0x8, addend: 0x0, symName: __RNvXs3_NtNtCs5FIOKSViJ8s_4core3fmt5floatfNtB7_7Display3fmt, symObjAddr: 0x181D4, symBinAddr: 0x100082220, symSize: 0x30 }
  - { offset: 0xE2080, size: 0x8, addend: 0x0, symName: __RNvXs4_NtNtCs5FIOKSViJ8s_4core3fmt5floatfNtB7_8LowerExp3fmt, symObjAddr: 0x18630, symBinAddr: 0x10008267C, symSize: 0x38 }
  - { offset: 0xE20D6, size: 0x8, addend: 0x0, symName: __RNvXs5_NtNtCs5FIOKSViJ8s_4core3fmt5floatfNtB7_8UpperExp3fmt, symObjAddr: 0x1897C, symBinAddr: 0x1000829C8, symSize: 0x38 }
  - { offset: 0xE214A, size: 0x8, addend: 0x0, symName: __RNvXs6_NtNtCs5FIOKSViJ8s_4core3fmt5floatdNtB7_5Debug3fmt, symObjAddr: 0x18C18, symBinAddr: 0x100082C64, symSize: 0x88 }
  - { offset: 0xE21DD, size: 0x8, addend: 0x0, symName: __RNvXs7_NtNtCs5FIOKSViJ8s_4core3fmt5floatdNtB7_7Display3fmt, symObjAddr: 0x19140, symBinAddr: 0x10008318C, symSize: 0x30 }
  - { offset: 0xE2247, size: 0x8, addend: 0x0, symName: __RNvXs8_NtNtCs5FIOKSViJ8s_4core3fmt5floatdNtB7_8LowerExp3fmt, symObjAddr: 0x19274, symBinAddr: 0x1000832C0, symSize: 0x38 }
  - { offset: 0xE229D, size: 0x8, addend: 0x0, symName: __RNvXs9_NtNtCs5FIOKSViJ8s_4core3fmt5floatdNtB7_8UpperExp3fmt, symObjAddr: 0x196CC, symBinAddr: 0x100083718, symSize: 0x38 }
  - { offset: 0xE2311, size: 0x8, addend: 0x0, symName: __RNvXsa_NtNtCs5FIOKSViJ8s_4core3fmt5floatC3f16NtB7_5Debug3fmt, symObjAddr: 0x1BDB4, symBinAddr: 0x100085E00, symSize: 0x70 }
  - { offset: 0xE23A4, size: 0x8, addend: 0x0, symName: __RNvXsb_NtNtCs5FIOKSViJ8s_4core3fmt5floatC3f16NtB7_7Display3fmt, symObjAddr: 0x1BF10, symBinAddr: 0x100085F5C, symSize: 0x30 }
  - { offset: 0xE240E, size: 0x8, addend: 0x0, symName: __RNvXsc_NtNtCs5FIOKSViJ8s_4core3fmt5floatC3f16NtB7_8LowerExp3fmt, symObjAddr: 0x1C04C, symBinAddr: 0x100086098, symSize: 0x38 }
  - { offset: 0xE2464, size: 0x8, addend: 0x0, symName: __RNvXsd_NtNtCs5FIOKSViJ8s_4core3fmt5floatC3f16NtB7_8UpperExp3fmt, symObjAddr: 0x1C720, symBinAddr: 0x10008676C, symSize: 0x38 }
  - { offset: 0xE24EF, size: 0x8, addend: 0x0, symName: __RNvMsa_NtCs5FIOKSViJ8s_4core3fmtNtB5_9Formatter10debug_list, symObjAddr: 0x7638, symBinAddr: 0x10007203C, symSize: 0x48 }
  - { offset: 0xE252E, size: 0x8, addend: 0x0, symName: __RNvMsa_NtCs5FIOKSViJ8s_4core3fmtNtB5_9Formatter11debug_tuple, symObjAddr: 0x7680, symBinAddr: 0x100072084, symSize: 0x50 }
  - { offset: 0xE257A, size: 0x8, addend: 0x0, symName: __RNvMsa_NtCs5FIOKSViJ8s_4core3fmtNtB5_9Formatter12debug_struct, symObjAddr: 0x76D0, symBinAddr: 0x1000720D4, symSize: 0x3C }
  - { offset: 0xE25C6, size: 0x8, addend: 0x0, symName: __RNvMsa_NtCs5FIOKSViJ8s_4core3fmtNtB5_9Formatter12pad_integral, symObjAddr: 0x770C, symBinAddr: 0x100072110, symSize: 0x3B0 }
  - { offset: 0xE28FD, size: 0x8, addend: 0x0, symName: __RNvMsa_NtCs5FIOKSViJ8s_4core3fmtNtB5_9Formatter19pad_formatted_parts, symObjAddr: 0x7ABC, symBinAddr: 0x1000724C0, symSize: 0x230 }
  - { offset: 0xE2BAF, size: 0x8, addend: 0x0, symName: __RNvMsa_NtCs5FIOKSViJ8s_4core3fmtNtB5_9Formatter21write_formatted_parts, symObjAddr: 0x7CEC, symBinAddr: 0x1000726F0, symSize: 0x274 }
  - { offset: 0xE2D20, size: 0x8, addend: 0x0, symName: __RNvMsa_NtCs5FIOKSViJ8s_4core3fmtNtB5_9Formatter25debug_tuple_field1_finish, symObjAddr: 0x7F60, symBinAddr: 0x100072964, symSize: 0x168 }
  - { offset: 0xE2F1B, size: 0x8, addend: 0x0, symName: __RNvMsa_NtCs5FIOKSViJ8s_4core3fmtNtB5_9Formatter25debug_tuple_field2_finish, symObjAddr: 0x80C8, symBinAddr: 0x100072ACC, symSize: 0x1D8 }
  - { offset: 0xE3213, size: 0x8, addend: 0x0, symName: __RNvMsa_NtCs5FIOKSViJ8s_4core3fmtNtB5_9Formatter25debug_tuple_field3_finish, symObjAddr: 0x82A0, symBinAddr: 0x100072CA4, symSize: 0x27C }
  - { offset: 0xE362B, size: 0x8, addend: 0x0, symName: __RNvMsa_NtCs5FIOKSViJ8s_4core3fmtNtB5_9Formatter25debug_tuple_field4_finish, symObjAddr: 0x851C, symBinAddr: 0x100072F20, symSize: 0x31C }
  - { offset: 0xE3B63, size: 0x8, addend: 0x0, symName: __RNvMsa_NtCs5FIOKSViJ8s_4core3fmtNtB5_9Formatter25debug_tuple_field5_finish, symObjAddr: 0x8838, symBinAddr: 0x10007323C, symSize: 0x3BC }
  - { offset: 0xE41BB, size: 0x8, addend: 0x0, symName: __RNvMsa_NtCs5FIOKSViJ8s_4core3fmtNtB5_9Formatter25debug_tuple_fields_finish, symObjAddr: 0x8BF4, symBinAddr: 0x1000735F8, symSize: 0x260 }
  - { offset: 0xE43A3, size: 0x8, addend: 0x0, symName: __RNvMsa_NtCs5FIOKSViJ8s_4core3fmtNtB5_9Formatter26debug_struct_field1_finish, symObjAddr: 0x8E54, symBinAddr: 0x100073858, symSize: 0xD0 }
  - { offset: 0xE4472, size: 0x8, addend: 0x0, symName: __RNvMsa_NtCs5FIOKSViJ8s_4core3fmtNtB5_9Formatter26debug_struct_field2_finish, symObjAddr: 0x8F24, symBinAddr: 0x100073928, symSize: 0x104 }
  - { offset: 0xE4548, size: 0x8, addend: 0x0, symName: __RNvMsa_NtCs5FIOKSViJ8s_4core3fmtNtB5_9Formatter26debug_struct_field3_finish, symObjAddr: 0x9028, symBinAddr: 0x100073A2C, symSize: 0x12C }
  - { offset: 0xE461E, size: 0x8, addend: 0x0, symName: __RNvMsa_NtCs5FIOKSViJ8s_4core3fmtNtB5_9Formatter26debug_struct_field4_finish, symObjAddr: 0x9154, symBinAddr: 0x100073B58, symSize: 0x15C }
  - { offset: 0xE46F4, size: 0x8, addend: 0x0, symName: __RNvMsa_NtCs5FIOKSViJ8s_4core3fmtNtB5_9Formatter26debug_struct_field5_finish, symObjAddr: 0x92B0, symBinAddr: 0x100073CB4, symSize: 0x180 }
  - { offset: 0xE47CA, size: 0x8, addend: 0x0, symName: __RNvMsa_NtCs5FIOKSViJ8s_4core3fmtNtB5_9Formatter26debug_struct_fields_finish, symObjAddr: 0x9430, symBinAddr: 0x100073E34, symSize: 0x108 }
  - { offset: 0xE48BB, size: 0x8, addend: 0x0, symName: __RNvMsa_NtCs5FIOKSViJ8s_4core3fmtNtB5_9Formatter3pad, symObjAddr: 0x9538, symBinAddr: 0x100073F3C, symSize: 0x310 }
  - { offset: 0xE4BBD, size: 0x8, addend: 0x0, symName: __RNvMsa_NtCs5FIOKSViJ8s_4core3fmtNtB5_9Formatter4fill, symObjAddr: 0x9848, symBinAddr: 0x10007424C, symSize: 0xC }
  - { offset: 0xE4BDB, size: 0x8, addend: 0x0, symName: __RNvMsa_NtCs5FIOKSViJ8s_4core3fmtNtB5_9Formatter4fill, symObjAddr: 0x9848, symBinAddr: 0x10007424C, symSize: 0xC }
  - { offset: 0xE4BEE, size: 0x8, addend: 0x0, symName: __RNvMsa_NtCs5FIOKSViJ8s_4core3fmtNtB5_9Formatter9debug_map, symObjAddr: 0x9854, symBinAddr: 0x100074258, symSize: 0x58 }
  - { offset: 0xE4C35, size: 0x8, addend: 0x0, symName: __RNvMsa_NtCs5FIOKSViJ8s_4core3fmtNtB5_9Formatter9debug_set, symObjAddr: 0x98AC, symBinAddr: 0x1000742B0, symSize: 0x48 }
  - { offset: 0xE4C7B, size: 0x8, addend: 0x0, symName: __RNvMsa_NtCs5FIOKSViJ8s_4core3fmtNtB5_9Formatter9write_str, symObjAddr: 0x98F4, symBinAddr: 0x1000742F8, symSize: 0x10 }
  - { offset: 0xE5035, size: 0x8, addend: 0x0, symName: __RNvMs0_NtNtCs5FIOKSViJ8s_4core3fmt3numo10__fmt_inner, symObjAddr: 0x45F0, symBinAddr: 0x10006EFF4, symSize: 0x4E0 }
  - { offset: 0xE51F3, size: 0x8, addend: 0x0, symName: __RNvMs0_NtNtCs5FIOKSViJ8s_4core3fmt3numo11format_into, symObjAddr: 0x4AD0, symBinAddr: 0x10006F4D4, symSize: 0x34 }
  - { offset: 0xE52E7, size: 0x8, addend: 0x0, symName: __RNvMs0_NtNtCs5FIOKSViJ8s_4core3fmt3numo4__fmt, symObjAddr: 0x4B04, symBinAddr: 0x10006F508, symSize: 0x2C }
  - { offset: 0xE538A, size: 0x8, addend: 0x0, symName: __RNvMs0_NtNtNtCs5FIOKSViJ8s_4core3fmt3num3imph4__fmt, symObjAddr: 0x4B30, symBinAddr: 0x10006F534, symSize: 0x84 }
  - { offset: 0xE542A, size: 0x8, addend: 0x0, symName: __RNvMs1_NtNtNtCs5FIOKSViJ8s_4core3fmt3num3impa11format_into, symObjAddr: 0x4F7C, symBinAddr: 0x10006F980, symSize: 0x120 }
  - { offset: 0xE552F, size: 0x8, addend: 0x0, symName: __RNvMs2_NtNtNtCs5FIOKSViJ8s_4core3fmt3num3imph11format_into, symObjAddr: 0x5358, symBinAddr: 0x10006FD5C, symSize: 0x98 }
  - { offset: 0xE55D6, size: 0x8, addend: 0x0, symName: __RNvMs5_NtNtNtCs5FIOKSViJ8s_4core3fmt3num3impt4__fmt, symObjAddr: 0x64D4, symBinAddr: 0x100070ED8, symSize: 0xFC }
  - { offset: 0xE56B1, size: 0x8, addend: 0x0, symName: __RNvMs6_NtNtNtCs5FIOKSViJ8s_4core3fmt3num3imps11format_into, symObjAddr: 0x6AC8, symBinAddr: 0x1000714CC, symSize: 0x1F0 }
  - { offset: 0xE57CC, size: 0x8, addend: 0x0, symName: __RNvMs7_NtNtNtCs5FIOKSViJ8s_4core3fmt3num3impt11format_into, symObjAddr: 0x6D24, symBinAddr: 0x100071728, symSize: 0xF8 }
  - { offset: 0xE587E, size: 0x8, addend: 0x0, symName: __RNvMsa_NtNtNtCs5FIOKSViJ8s_4core3fmt3num3impm4__fmt, symObjAddr: 0x9904, symBinAddr: 0x100074308, symSize: 0xF4 }
  - { offset: 0xE5946, size: 0x8, addend: 0x0, symName: __RNvMsb_NtNtNtCs5FIOKSViJ8s_4core3fmt3num3impl11format_into, symObjAddr: 0x99F8, symBinAddr: 0x1000743FC, symSize: 0x21C }
  - { offset: 0xE5AC3, size: 0x8, addend: 0x0, symName: __RNvMsc_NtNtNtCs5FIOKSViJ8s_4core3fmt3num3impm11format_into, symObjAddr: 0x9C14, symBinAddr: 0x100074618, symSize: 0x10C }
  - { offset: 0xE5B92, size: 0x8, addend: 0x0, symName: __RNvMsf_NtNtNtCs5FIOKSViJ8s_4core3fmt3num3impy4__fmt, symObjAddr: 0x9D20, symBinAddr: 0x100074724, symSize: 0xFC }
  - { offset: 0xE5C5A, size: 0x8, addend: 0x0, symName: __RNvMsg_NtNtNtCs5FIOKSViJ8s_4core3fmt3num3impx11format_into, symObjAddr: 0x9E1C, symBinAddr: 0x100074820, symSize: 0x22C }
  - { offset: 0xE5DD7, size: 0x8, addend: 0x0, symName: __RNvMsh_NtNtNtCs5FIOKSViJ8s_4core3fmt3num3impy11format_into, symObjAddr: 0xA048, symBinAddr: 0x100074A4C, symSize: 0x114 }
  - { offset: 0xE5E95, size: 0x8, addend: 0x0, symName: __RNvNtNtNtCs5FIOKSViJ8s_4core3fmt3num3imp7exp_u64, symObjAddr: 0xD500, symBinAddr: 0x1000776BC, symSize: 0x4C8 }
  - { offset: 0xE60E2, size: 0x8, addend: 0x0, symName: __RNvXNtNtNtCs5FIOKSViJ8s_4core3fmt3num3imphNtB6_7Display3fmt, symObjAddr: 0x12374, symBinAddr: 0x10007C3C0, symSize: 0xB0 }
  - { offset: 0xE61D3, size: 0x8, addend: 0x0, symName: __RNvXs8_NtNtNtCs5FIOKSViJ8s_4core3fmt3num3impmNtB9_7Display3fmt, symObjAddr: 0x194F4, symBinAddr: 0x100083540, symSize: 0x130 }
  - { offset: 0xE6304, size: 0x8, addend: 0x0, symName: __RNvXs3_NtNtNtCs5FIOKSViJ8s_4core3fmt3num3imptNtB9_7Display3fmt, symObjAddr: 0x183B8, symBinAddr: 0x100082404, symSize: 0xFC }
  - { offset: 0xE63EB, size: 0x8, addend: 0x0, symName: __RNvXs4_NtNtNtCs5FIOKSViJ8s_4core3fmt3num3impsNtB9_7Display3fmt, symObjAddr: 0x187C0, symBinAddr: 0x10008280C, symSize: 0x118 }
  - { offset: 0xE64DD, size: 0x8, addend: 0x0, symName: __RNvXs9_NtNtNtCs5FIOKSViJ8s_4core3fmt3num3implNtB9_7Display3fmt, symObjAddr: 0x19820, symBinAddr: 0x10008386C, symSize: 0x138 }
  - { offset: 0xE65E5, size: 0x8, addend: 0x0, symName: __RNvXsA_NtNtNtCs5FIOKSViJ8s_4core3fmt3num3impyNtB9_8LowerExp3fmt, symObjAddr: 0x19A60, symBinAddr: 0x100083AAC, symSize: 0x18 }
  - { offset: 0xE6606, size: 0x8, addend: 0x0, symName: __RNvXsB_NtNtNtCs5FIOKSViJ8s_4core3fmt3num3impxNtB9_8UpperExp3fmt, symObjAddr: 0x19A78, symBinAddr: 0x100083AC4, symSize: 0x24 }
  - { offset: 0xE6653, size: 0x8, addend: 0x0, symName: __RNvXsC_NtNtNtCs5FIOKSViJ8s_4core3fmt3num3impyNtB9_8UpperExp3fmt, symObjAddr: 0x19A9C, symBinAddr: 0x100083AE8, symSize: 0x18 }
  - { offset: 0xE6674, size: 0x8, addend: 0x0, symName: __RNvXsD_NtNtNtCs5FIOKSViJ8s_4core3fmt3num3impiNtB9_8LowerExp3fmt, symObjAddr: 0x19AB4, symBinAddr: 0x100083B00, symSize: 0x24 }
  - { offset: 0xE66CD, size: 0x8, addend: 0x0, symName: __RNvXs_NtNtNtCs5FIOKSViJ8s_4core3fmt3num3impaNtB8_7Display3fmt, symObjAddr: 0x1B9EC, symBinAddr: 0x100085A38, symSize: 0xD0 }
  - { offset: 0xE67B3, size: 0x8, addend: 0x0, symName: __RNvXsd_NtNtNtCs5FIOKSViJ8s_4core3fmt3num3impyNtB9_7Display3fmt, symObjAddr: 0x1C920, symBinAddr: 0x10008696C, symSize: 0x13C }
  - { offset: 0xE68B3, size: 0x8, addend: 0x0, symName: __RNvXse_NtNtNtCs5FIOKSViJ8s_4core3fmt3num3impxNtB9_7Display3fmt, symObjAddr: 0x1CBA0, symBinAddr: 0x100086BEC, symSize: 0x144 }
  - { offset: 0xE69BB, size: 0x8, addend: 0x0, symName: __RNvXsn_NtNtNtCs5FIOKSViJ8s_4core3fmt3num3impaNtB9_8LowerExp3fmt, symObjAddr: 0x1DE44, symBinAddr: 0x100087E90, symSize: 0x24 }
  - { offset: 0xE6A08, size: 0x8, addend: 0x0, symName: __RNvXso_NtNtNtCs5FIOKSViJ8s_4core3fmt3num3imphNtB9_8LowerExp3fmt, symObjAddr: 0x1DEE4, symBinAddr: 0x100087F30, symSize: 0x18 }
  - { offset: 0xE6A29, size: 0x8, addend: 0x0, symName: __RNvXsp_NtNtNtCs5FIOKSViJ8s_4core3fmt3num3impaNtB9_8UpperExp3fmt, symObjAddr: 0x1E024, symBinAddr: 0x100088070, symSize: 0x24 }
  - { offset: 0xE6A76, size: 0x8, addend: 0x0, symName: __RNvXsq_NtNtNtCs5FIOKSViJ8s_4core3fmt3num3imphNtB9_8UpperExp3fmt, symObjAddr: 0x1E0D0, symBinAddr: 0x10008811C, symSize: 0x18 }
  - { offset: 0xE6A97, size: 0x8, addend: 0x0, symName: __RNvXsr_NtNtNtCs5FIOKSViJ8s_4core3fmt3num3impsNtB9_8LowerExp3fmt, symObjAddr: 0x1E170, symBinAddr: 0x1000881BC, symSize: 0x24 }
  - { offset: 0xE6AE4, size: 0x8, addend: 0x0, symName: __RNvXss_NtNtNtCs5FIOKSViJ8s_4core3fmt3num3imptNtB9_8LowerExp3fmt, symObjAddr: 0x1E208, symBinAddr: 0x100088254, symSize: 0x18 }
  - { offset: 0xE6B05, size: 0x8, addend: 0x0, symName: __RNvXst_NtNtNtCs5FIOKSViJ8s_4core3fmt3num3impsNtB9_8UpperExp3fmt, symObjAddr: 0x1E294, symBinAddr: 0x1000882E0, symSize: 0x24 }
  - { offset: 0xE6B52, size: 0x8, addend: 0x0, symName: __RNvXsu_NtNtNtCs5FIOKSViJ8s_4core3fmt3num3imptNtB9_8UpperExp3fmt, symObjAddr: 0x1E32C, symBinAddr: 0x100088378, symSize: 0x18 }
  - { offset: 0xE6B73, size: 0x8, addend: 0x0, symName: __RNvXsv_NtNtNtCs5FIOKSViJ8s_4core3fmt3num3implNtB9_8LowerExp3fmt, symObjAddr: 0x1E3B8, symBinAddr: 0x100088404, symSize: 0x24 }
  - { offset: 0xE6BC0, size: 0x8, addend: 0x0, symName: __RNvXsw_NtNtNtCs5FIOKSViJ8s_4core3fmt3num3impmNtB9_8LowerExp3fmt, symObjAddr: 0x1E458, symBinAddr: 0x1000884A4, symSize: 0x18 }
  - { offset: 0xE6BE1, size: 0x8, addend: 0x0, symName: __RNvXsx_NtNtNtCs5FIOKSViJ8s_4core3fmt3num3implNtB9_8UpperExp3fmt, symObjAddr: 0x1E4E4, symBinAddr: 0x100088530, symSize: 0x24 }
  - { offset: 0xE6C2E, size: 0x8, addend: 0x0, symName: __RNvXsy_NtNtNtCs5FIOKSViJ8s_4core3fmt3num3impmNtB9_8UpperExp3fmt, symObjAddr: 0x1E508, symBinAddr: 0x100088554, symSize: 0x18 }
  - { offset: 0xE6C50, size: 0x8, addend: 0x0, symName: __RNvMs1_NtNtCs5FIOKSViJ8s_4core3fmt3numn11format_into, symObjAddr: 0x4BB4, symBinAddr: 0x10006F5B8, symSize: 0x60 }
  - { offset: 0xE6D81, size: 0x8, addend: 0x0, symName: __RNvXs6_NtNtCs5FIOKSViJ8s_4core3fmt3numjNtB7_8LowerHex3fmt, symObjAddr: 0x18BA8, symBinAddr: 0x100082BF4, symSize: 0x70 }
  - { offset: 0xE6DDF, size: 0x8, addend: 0x0, symName: __RNvNtNtCs5FIOKSViJ8s_4core3fmt3num8exp_u128, symObjAddr: 0xB538, symBinAddr: 0x100075A30, symSize: 0x888 }
  - { offset: 0xE7014, size: 0x8, addend: 0x0, symName: __RNvXNtNtCs5FIOKSViJ8s_4core3fmt3numoNtB4_7Display3fmt, symObjAddr: 0x122D0, symBinAddr: 0x10007C31C, symSize: 0x60 }
  - { offset: 0xE70BF, size: 0x8, addend: 0x0, symName: __RNvXs10_NtNtCs5FIOKSViJ8s_4core3fmt3numnNtB8_8LowerExp3fmt, symObjAddr: 0x1319C, symBinAddr: 0x10007D1E8, symSize: 0x30 }
  - { offset: 0xE710C, size: 0x8, addend: 0x0, symName: __RNvXs11_NtNtCs5FIOKSViJ8s_4core3fmt3numoNtB8_8LowerExp3fmt, symObjAddr: 0x131CC, symBinAddr: 0x10007D218, symSize: 0x18 }
  - { offset: 0xE714B, size: 0x8, addend: 0x0, symName: __RNvXsu_NtNtCs5FIOKSViJ8s_4core3fmt3nummNtB7_8LowerHex3fmt, symObjAddr: 0x1E2B8, symBinAddr: 0x100088304, symSize: 0x74 }
  - { offset: 0xE71BB, size: 0x8, addend: 0x0, symName: __RNvXsv_NtNtCs5FIOKSViJ8s_4core3fmt3numlNtB7_8LowerHex3fmt, symObjAddr: 0x1E344, symBinAddr: 0x100088390, symSize: 0x74 }
  - { offset: 0xE7240, size: 0x8, addend: 0x0, symName: __RNvXsw_NtNtCs5FIOKSViJ8s_4core3fmt3nummNtB7_8UpperHex3fmt, symObjAddr: 0x1E3DC, symBinAddr: 0x100088428, symSize: 0x74 }
  - { offset: 0xE72B0, size: 0x8, addend: 0x0, symName: __RNvXsx_NtNtCs5FIOKSViJ8s_4core3fmt3numlNtB7_8UpperHex3fmt, symObjAddr: 0x1E470, symBinAddr: 0x1000884BC, symSize: 0x74 }
  - { offset: 0xE7329, size: 0x8, addend: 0x0, symName: __RNvXs12_NtNtCs5FIOKSViJ8s_4core3fmt3numnNtB8_8UpperExp3fmt, symObjAddr: 0x13420, symBinAddr: 0x10007D46C, symSize: 0x30 }
  - { offset: 0xE7376, size: 0x8, addend: 0x0, symName: __RNvXs13_NtNtCs5FIOKSViJ8s_4core3fmt3numoNtB8_8UpperExp3fmt, symObjAddr: 0x13458, symBinAddr: 0x10007D4A4, symSize: 0x18 }
  - { offset: 0xE73A2, size: 0x8, addend: 0x0, symName: __RNvXsW_NtNtCs5FIOKSViJ8s_4core3fmt3nummNtB7_5Debug3fmt, symObjAddr: 0x1AA70, symBinAddr: 0x100084ABC, symSize: 0xC4 }
  - { offset: 0xE749F, size: 0x8, addend: 0x0, symName: __RNvXs7_NtNtCs5FIOKSViJ8s_4core3fmt3numiNtB7_8LowerHex3fmt, symObjAddr: 0x190D0, symBinAddr: 0x10008311C, symSize: 0x70 }
  - { offset: 0xE7524, size: 0x8, addend: 0x0, symName: __RNvXs8_NtNtCs5FIOKSViJ8s_4core3fmt3numjNtB7_8UpperHex3fmt, symObjAddr: 0x19204, symBinAddr: 0x100083250, symSize: 0x70 }
  - { offset: 0xE7594, size: 0x8, addend: 0x0, symName: __RNvXs9_NtNtCs5FIOKSViJ8s_4core3fmt3numiNtB7_8UpperHex3fmt, symObjAddr: 0x1965C, symBinAddr: 0x1000836A8, symSize: 0x70 }
  - { offset: 0xE7619, size: 0x8, addend: 0x0, symName: __RNvXsm_NtNtCs5FIOKSViJ8s_4core3fmt3numtNtB7_8LowerHex3fmt, symObjAddr: 0x1DD5C, symBinAddr: 0x100087DA8, symSize: 0x74 }
  - { offset: 0xE767C, size: 0x8, addend: 0x0, symName: __RNvXs2_NtNtCs5FIOKSViJ8s_4core3fmt3numjNtB7_6Binary3fmt, symObjAddr: 0x16E8C, symBinAddr: 0x100080ED8, symSize: 0x70 }
  - { offset: 0xE76ED, size: 0x8, addend: 0x0, symName: __RNvXs3_NtNtCs5FIOKSViJ8s_4core3fmt3numiNtB7_6Binary3fmt, symObjAddr: 0x18164, symBinAddr: 0x1000821B0, symSize: 0x70 }
  - { offset: 0xE776B, size: 0x8, addend: 0x0, symName: __RNvXs4_NtNtCs5FIOKSViJ8s_4core3fmt3numjNtB7_5Octal3fmt, symObjAddr: 0x185C0, symBinAddr: 0x10008260C, symSize: 0x70 }
  - { offset: 0xE77DC, size: 0x8, addend: 0x0, symName: __RNvXs5_NtNtCs5FIOKSViJ8s_4core3fmt3numiNtB7_5Octal3fmt, symObjAddr: 0x1890C, symBinAddr: 0x100082958, symSize: 0x70 }
  - { offset: 0xE785A, size: 0x8, addend: 0x0, symName: __RNvXsG_NtNtCs5FIOKSViJ8s_4core3fmt3numoNtB7_6Binary3fmt, symObjAddr: 0x19DA8, symBinAddr: 0x100083DF4, symSize: 0x78 }
  - { offset: 0xE78CB, size: 0x8, addend: 0x0, symName: __RNvXsH_NtNtCs5FIOKSViJ8s_4core3fmt3numnNtB7_6Binary3fmt, symObjAddr: 0x19E20, symBinAddr: 0x100083E6C, symSize: 0x78 }
  - { offset: 0xE7949, size: 0x8, addend: 0x0, symName: __RNvXsI_NtNtCs5FIOKSViJ8s_4core3fmt3numoNtB7_5Octal3fmt, symObjAddr: 0x19E98, symBinAddr: 0x100083EE4, symSize: 0x78 }
  - { offset: 0xE79BA, size: 0x8, addend: 0x0, symName: __RNvXsJ_NtNtCs5FIOKSViJ8s_4core3fmt3numnNtB7_5Octal3fmt, symObjAddr: 0x19F10, symBinAddr: 0x100083F5C, symSize: 0x78 }
  - { offset: 0xE7A38, size: 0x8, addend: 0x0, symName: __RNvXsK_NtNtCs5FIOKSViJ8s_4core3fmt3numoNtB7_8LowerHex3fmt, symObjAddr: 0x19FA0, symBinAddr: 0x100083FEC, symSize: 0x78 }
  - { offset: 0xE7AA8, size: 0x8, addend: 0x0, symName: __RNvXsL_NtNtCs5FIOKSViJ8s_4core3fmt3numnNtB7_8LowerHex3fmt, symObjAddr: 0x1A018, symBinAddr: 0x100084064, symSize: 0x78 }
  - { offset: 0xE7B2D, size: 0x8, addend: 0x0, symName: __RNvXsM_NtNtCs5FIOKSViJ8s_4core3fmt3numoNtB7_8UpperHex3fmt, symObjAddr: 0x1A098, symBinAddr: 0x1000840E4, symSize: 0x78 }
  - { offset: 0xE7B9D, size: 0x8, addend: 0x0, symName: __RNvXsN_NtNtCs5FIOKSViJ8s_4core3fmt3numnNtB7_8UpperHex3fmt, symObjAddr: 0x1A118, symBinAddr: 0x100084164, symSize: 0x78 }
  - { offset: 0xE7C2F, size: 0x8, addend: 0x0, symName: __RNvXse_NtNtCs5FIOKSViJ8s_4core3fmt3numhNtB7_8LowerHex3fmt, symObjAddr: 0x1CB2C, symBinAddr: 0x100086B78, symSize: 0x74 }
  - { offset: 0xE7C9F, size: 0x8, addend: 0x0, symName: __RNvXsf_NtNtCs5FIOKSViJ8s_4core3fmt3numaNtB7_8LowerHex3fmt, symObjAddr: 0x1CD30, symBinAddr: 0x100086D7C, symSize: 0x74 }
  - { offset: 0xE7D24, size: 0x8, addend: 0x0, symName: __RNvXsg_NtNtCs5FIOKSViJ8s_4core3fmt3numhNtB7_8UpperHex3fmt, symObjAddr: 0x1CEC4, symBinAddr: 0x100086F10, symSize: 0x74 }
  - { offset: 0xE7D94, size: 0x8, addend: 0x0, symName: __RNvXsh_NtNtCs5FIOKSViJ8s_4core3fmt3numaNtB7_8UpperHex3fmt, symObjAddr: 0x1D2C0, symBinAddr: 0x10008730C, symSize: 0x74 }
  - { offset: 0xE7E0C, size: 0x8, addend: 0x0, symName: __RNvXsO_NtNtCs5FIOKSViJ8s_4core3fmt3numaNtB7_5Debug3fmt, symObjAddr: 0x1A1FC, symBinAddr: 0x100084248, symSize: 0x164 }
  - { offset: 0xE7FE2, size: 0x8, addend: 0x0, symName: __RNvXsn_NtNtCs5FIOKSViJ8s_4core3fmt3numsNtB7_8LowerHex3fmt, symObjAddr: 0x1DDD0, symBinAddr: 0x100087E1C, symSize: 0x74 }
  - { offset: 0xE8067, size: 0x8, addend: 0x0, symName: __RNvXso_NtNtCs5FIOKSViJ8s_4core3fmt3numtNtB7_8UpperHex3fmt, symObjAddr: 0x1DE68, symBinAddr: 0x100087EB4, symSize: 0x74 }
  - { offset: 0xE80D7, size: 0x8, addend: 0x0, symName: __RNvXsp_NtNtCs5FIOKSViJ8s_4core3fmt3numsNtB7_8UpperHex3fmt, symObjAddr: 0x1DFB0, symBinAddr: 0x100087FFC, symSize: 0x74 }
  - { offset: 0xE814F, size: 0x8, addend: 0x0, symName: __RNvXsP_NtNtCs5FIOKSViJ8s_4core3fmt3numsNtB7_5Debug3fmt, symObjAddr: 0x1A360, symBinAddr: 0x1000843AC, symSize: 0x1C0 }
  - { offset: 0xE8331, size: 0x8, addend: 0x0, symName: __RNvXs_NtNtCs5FIOKSViJ8s_4core3fmt3numnNtB6_7Display3fmt, symObjAddr: 0x1AFE4, symBinAddr: 0x100085030, symSize: 0x78 }
  - { offset: 0xE83D0, size: 0x8, addend: 0x0, symName: __RNvXsS_NtNtCs5FIOKSViJ8s_4core3fmt3numnNtB7_5Debug3fmt, symObjAddr: 0x1A528, symBinAddr: 0x100084574, symSize: 0x11C }
  - { offset: 0xE851A, size: 0x8, addend: 0x0, symName: __RNvXsU_NtNtCs5FIOKSViJ8s_4core3fmt3numhNtB7_5Debug3fmt, symObjAddr: 0x1A64C, symBinAddr: 0x100084698, symSize: 0x14C }
  - { offset: 0xE86AF, size: 0x8, addend: 0x0, symName: __RNvXsV_NtNtCs5FIOKSViJ8s_4core3fmt3numtNtB7_5Debug3fmt, symObjAddr: 0x1A8C4, symBinAddr: 0x100084910, symSize: 0x1AC }
  - { offset: 0xE884F, size: 0x8, addend: 0x0, symName: __RNvXsX_NtNtCs5FIOKSViJ8s_4core3fmt3numyNtB7_5Debug3fmt, symObjAddr: 0x1AB34, symBinAddr: 0x100084B80, symSize: 0x1C4 }
  - { offset: 0xE89B7, size: 0x8, addend: 0x0, symName: __RNvXsY_NtNtCs5FIOKSViJ8s_4core3fmt3numoNtB7_5Debug3fmt, symObjAddr: 0x1AD00, symBinAddr: 0x100084D4C, symSize: 0xFC }
  - { offset: 0xE8AD4, size: 0x8, addend: 0x0, symName: __RNvXsZ_NtNtCs5FIOKSViJ8s_4core3fmt3numjNtB7_5Debug3fmt, symObjAddr: 0x1ADFC, symBinAddr: 0x100084E48, symSize: 0x1D0 }
  - { offset: 0xE8C3C, size: 0x8, addend: 0x0, symName: __RNvXsa_NtNtCs5FIOKSViJ8s_4core3fmt3numhNtB7_6Binary3fmt, symObjAddr: 0x1BD40, symBinAddr: 0x100085D8C, symSize: 0x74 }
  - { offset: 0xE8CAD, size: 0x8, addend: 0x0, symName: __RNvXsb_NtNtCs5FIOKSViJ8s_4core3fmt3numaNtB7_6Binary3fmt, symObjAddr: 0x1BE9C, symBinAddr: 0x100085EE8, symSize: 0x74 }
  - { offset: 0xE8D2B, size: 0x8, addend: 0x0, symName: __RNvXsc_NtNtCs5FIOKSViJ8s_4core3fmt3numhNtB7_5Octal3fmt, symObjAddr: 0x1BFD8, symBinAddr: 0x100086024, symSize: 0x74 }
  - { offset: 0xE8D9C, size: 0x8, addend: 0x0, symName: __RNvXsd_NtNtCs5FIOKSViJ8s_4core3fmt3numaNtB7_5Octal3fmt, symObjAddr: 0x1C6AC, symBinAddr: 0x1000866F8, symSize: 0x74 }
  - { offset: 0xE8E1A, size: 0x8, addend: 0x0, symName: __RNvXsi_NtNtCs5FIOKSViJ8s_4core3fmt3numtNtB7_6Binary3fmt, symObjAddr: 0x1D348, symBinAddr: 0x100087394, symSize: 0x74 }
  - { offset: 0xE8E8B, size: 0x8, addend: 0x0, symName: __RNvXsj_NtNtCs5FIOKSViJ8s_4core3fmt3numsNtB7_6Binary3fmt, symObjAddr: 0x1D464, symBinAddr: 0x1000874B0, symSize: 0x74 }
  - { offset: 0xE8F09, size: 0x8, addend: 0x0, symName: __RNvXsk_NtNtCs5FIOKSViJ8s_4core3fmt3numtNtB7_5Octal3fmt, symObjAddr: 0x1DC5C, symBinAddr: 0x100087CA8, symSize: 0x74 }
  - { offset: 0xE8F7A, size: 0x8, addend: 0x0, symName: __RNvXsl_NtNtCs5FIOKSViJ8s_4core3fmt3numsNtB7_5Octal3fmt, symObjAddr: 0x1DCD4, symBinAddr: 0x100087D20, symSize: 0x74 }
  - { offset: 0xE8FF8, size: 0x8, addend: 0x0, symName: __RNvXsq_NtNtCs5FIOKSViJ8s_4core3fmt3nummNtB7_6Binary3fmt, symObjAddr: 0x1E05C, symBinAddr: 0x1000880A8, symSize: 0x74 }
  - { offset: 0xE9069, size: 0x8, addend: 0x0, symName: __RNvXsr_NtNtCs5FIOKSViJ8s_4core3fmt3numlNtB7_6Binary3fmt, symObjAddr: 0x1E0FC, symBinAddr: 0x100088148, symSize: 0x74 }
  - { offset: 0xE90E7, size: 0x8, addend: 0x0, symName: __RNvXss_NtNtCs5FIOKSViJ8s_4core3fmt3nummNtB7_5Octal3fmt, symObjAddr: 0x1E194, symBinAddr: 0x1000881E0, symSize: 0x74 }
  - { offset: 0xE9158, size: 0x8, addend: 0x0, symName: __RNvXst_NtNtCs5FIOKSViJ8s_4core3fmt3numlNtB7_5Octal3fmt, symObjAddr: 0x1E220, symBinAddr: 0x10008826C, symSize: 0x74 }
  - { offset: 0xE92A9, size: 0x8, addend: 0x0, symName: __RNvMs_NtNtCs5FIOKSViJ8s_4core3fmt8buildersNtB4_10PadAdapter4wrap, symObjAddr: 0x6F84, symBinAddr: 0x100071988, symSize: 0x24 }
  - { offset: 0xE92C0, size: 0x8, addend: 0x0, symName: __RNvMs_NtNtCs5FIOKSViJ8s_4core3fmt8buildersNtB4_10PadAdapter4wrap, symObjAddr: 0x6F84, symBinAddr: 0x100071988, symSize: 0x24 }
  - { offset: 0xE931A, size: 0x8, addend: 0x0, symName: __RNvMs1_NtNtCs5FIOKSViJ8s_4core3fmt8buildersNtB5_11DebugStruct21finish_non_exhaustive, symObjAddr: 0x4C14, symBinAddr: 0x10006F618, symSize: 0xC4 }
  - { offset: 0xE9441, size: 0x8, addend: 0x0, symName: __RNvMs1_NtNtCs5FIOKSViJ8s_4core3fmt8buildersNtB5_11DebugStruct5field, symObjAddr: 0x4CD8, symBinAddr: 0x10006F6DC, symSize: 0x1B4 }
  - { offset: 0xE964B, size: 0x8, addend: 0x0, symName: __RNvMs1_NtNtCs5FIOKSViJ8s_4core3fmt8buildersNtB5_11DebugStruct6finish, symObjAddr: 0x4E8C, symBinAddr: 0x10006F890, symSize: 0x7C }
  - { offset: 0xE974C, size: 0x8, addend: 0x0, symName: __RNvMs2_NtNtCs5FIOKSViJ8s_4core3fmt8buildersNtB5_10DebugTuple21finish_non_exhaustive, symObjAddr: 0x509C, symBinAddr: 0x10006FAA0, symSize: 0xC0 }
  - { offset: 0xE988B, size: 0x8, addend: 0x0, symName: __RNvMs2_NtNtCs5FIOKSViJ8s_4core3fmt8buildersNtB5_10DebugTuple5field, symObjAddr: 0x515C, symBinAddr: 0x10006FB60, symSize: 0x148 }
  - { offset: 0xE9A08, size: 0x8, addend: 0x0, symName: __RNvMs2_NtNtCs5FIOKSViJ8s_4core3fmt8buildersNtB5_10DebugTuple6finish, symObjAddr: 0x52A4, symBinAddr: 0x10006FCA8, symSize: 0xB4 }
  - { offset: 0xE9AE9, size: 0x8, addend: 0x0, symName: __RNvMs4_NtNtCs5FIOKSViJ8s_4core3fmt8buildersNtB5_8DebugSet21finish_non_exhaustive, symObjAddr: 0x6084, symBinAddr: 0x100070A88, symSize: 0xC4 }
  - { offset: 0xE9C07, size: 0x8, addend: 0x0, symName: __RNvMs4_NtNtCs5FIOKSViJ8s_4core3fmt8buildersNtB5_8DebugSet5entry, symObjAddr: 0x6148, symBinAddr: 0x100070B4C, symSize: 0x148 }
  - { offset: 0xE9D8C, size: 0x8, addend: 0x0, symName: __RNvMs4_NtNtCs5FIOKSViJ8s_4core3fmt8buildersNtB5_8DebugSet6finish, symObjAddr: 0x6290, symBinAddr: 0x100070C94, symSize: 0x4C }
  - { offset: 0xE9E79, size: 0x8, addend: 0x0, symName: __RNvMs5_NtNtCs5FIOKSViJ8s_4core3fmt8buildersNtB5_9DebugList21finish_non_exhaustive, symObjAddr: 0x62DC, symBinAddr: 0x100070CE0, symSize: 0xC8 }
  - { offset: 0xE9F9E, size: 0x8, addend: 0x0, symName: __RNvMs5_NtNtCs5FIOKSViJ8s_4core3fmt8buildersNtB5_9DebugList6finish, symObjAddr: 0x63A4, symBinAddr: 0x100070DA8, symSize: 0x4C }
  - { offset: 0xEA0A0, size: 0x8, addend: 0x0, symName: __RNvMs6_NtNtCs5FIOKSViJ8s_4core3fmt8buildersNtB5_8DebugMap21finish_non_exhaustive, symObjAddr: 0x65D0, symBinAddr: 0x100070FD4, symSize: 0xE4 }
  - { offset: 0xEA1D8, size: 0x8, addend: 0x0, symName: __RNvMs6_NtNtCs5FIOKSViJ8s_4core3fmt8buildersNtB5_8DebugMap3key, symObjAddr: 0x66B4, symBinAddr: 0x1000710B8, symSize: 0x1B4 }
  - { offset: 0xEA3A4, size: 0x8, addend: 0x0, symName: __RNvMs6_NtNtCs5FIOKSViJ8s_4core3fmt8buildersNtB5_8DebugMap5entry, symObjAddr: 0x6868, symBinAddr: 0x10007126C, symSize: 0xFC }
  - { offset: 0xEA4DF, size: 0x8, addend: 0x0, symName: __RNvMs6_NtNtCs5FIOKSViJ8s_4core3fmt8buildersNtB5_8DebugMap5value, symObjAddr: 0x6964, symBinAddr: 0x100071368, symSize: 0xF4 }
  - { offset: 0xEA606, size: 0x8, addend: 0x0, symName: __RNvMs6_NtNtCs5FIOKSViJ8s_4core3fmt8buildersNtB5_8DebugMap6finish, symObjAddr: 0x6A58, symBinAddr: 0x10007145C, symSize: 0x70 }
  - { offset: 0xEA698, size: 0x8, addend: 0x0, symName: __RNvXs0_NtNtCs5FIOKSViJ8s_4core3fmt8buildersNtB5_10PadAdapterNtB7_5Write10write_char, symObjAddr: 0x12538, symBinAddr: 0x10007C584, symSize: 0x80 }
  - { offset: 0xEA6C1, size: 0x8, addend: 0x0, symName: __RNvXs0_NtNtCs5FIOKSViJ8s_4core3fmt8buildersNtB5_10PadAdapterNtB7_5Write9write_str, symObjAddr: 0x125B8, symBinAddr: 0x10007C604, symSize: 0x240 }
  - { offset: 0xEA9BC, size: 0x8, addend: 0x0, symName: __RNvMs_NtCs5FIOKSViJ8s_4core3fmtNtB4_17FormattingOptions8get_fill, symObjAddr: 0x6F78, symBinAddr: 0x10007197C, symSize: 0xC }
  - { offset: 0xEAAF8, size: 0x8, addend: 0x0, symName: __RNvNvMsa_NtCs5FIOKSViJ8s_4core3fmtNtB7_9Formatter12pad_integral12write_prefix, symObjAddr: 0x114C4, symBinAddr: 0x10007B548, symSize: 0x7C }
  - { offset: 0xEAB3C, size: 0x8, addend: 0x0, symName: __RNvXs1g_NtCs5FIOKSViJ8s_4core3fmtRDNtB6_5DebugEL_Bx_3fmtB8_, symObjAddr: 0x150B0, symBinAddr: 0x10007F0FC, symSize: 0x10 }
  - { offset: 0xEAB5C, size: 0x8, addend: 0x0, symName: __RNvXs1g_NtCs5FIOKSViJ8s_4core3fmtRINtNtB8_6option6OptionjENtB6_5Debug3fmtB8_, symObjAddr: 0x150C0, symBinAddr: 0x10007F10C, symSize: 0x164 }
  - { offset: 0xEAD80, size: 0x8, addend: 0x0, symName: __RNvXs1g_NtCs5FIOKSViJ8s_4core3fmtRNtNtNtB8_4task4wake5WakerNtB6_5Debug3fmtB8_, symObjAddr: 0x15224, symBinAddr: 0x10007F270, symSize: 0x8 }
  - { offset: 0xEAD9A, size: 0x8, addend: 0x0, symName: __RNvXs1g_NtCs5FIOKSViJ8s_4core3fmtRPNtNtB8_3ffi6c_voidNtB6_5Debug3fmtB8_, symObjAddr: 0x1522C, symBinAddr: 0x10007F278, symSize: 0xB8 }
  - { offset: 0xEAE95, size: 0x8, addend: 0x0, symName: __RNvXs1g_NtCs5FIOKSViJ8s_4core3fmtReNtB6_5Debug3fmtB8_, symObjAddr: 0x152E4, symBinAddr: 0x10007F330, symSize: 0x10 }
  - { offset: 0xEAEAF, size: 0x8, addend: 0x0, symName: __RNvXs1g_NtCs5FIOKSViJ8s_4core3fmtRjNtB6_5Debug3fmtB8_, symObjAddr: 0x152F4, symBinAddr: 0x10007F340, symSize: 0x8 }
  - { offset: 0xEAEC2, size: 0x8, addend: 0x0, symName: __RNvXs1g_NtCs5FIOKSViJ8s_4core3fmtRyNtB6_5Debug3fmtB8_, symObjAddr: 0x152FC, symBinAddr: 0x10007F348, symSize: 0xC }
  - { offset: 0xEAEEA, size: 0x8, addend: 0x0, symName: __RNvNtCs5FIOKSViJ8s_4core3fmt17pointer_fmt_inner, symObjAddr: 0xA9E4, symBinAddr: 0x1000753E8, symSize: 0xB0 }
  - { offset: 0xEAFE4, size: 0x8, addend: 0x0, symName: __RNvNtCs5FIOKSViJ8s_4core3fmt5write, symObjAddr: 0xAA94, symBinAddr: 0x100075498, symSize: 0x1B4 }
  - { offset: 0xEB26B, size: 0x8, addend: 0x0, symName: __RNvXsb_NtCs5FIOKSViJ8s_4core3fmtNtB5_9FormatterNtB5_5Write10write_char, symObjAddr: 0x1BE28, symBinAddr: 0x100085E74, symSize: 0x10 }
  - { offset: 0xEB292, size: 0x8, addend: 0x0, symName: __RNvXsi_NtCs5FIOKSViJ8s_4core3fmteNtB5_7Display3fmt, symObjAddr: 0x1D334, symBinAddr: 0x100087380, symSize: 0x14 }
  - { offset: 0xEB2E6, size: 0x8, addend: 0x0, symName: __RNvXsp_NtCs5FIOKSViJ8s_4core3fmtPNtNtNtB7_4task4wake14RawWakerVTableNtB5_5Debug3fmtB7_, symObjAddr: 0x1DEFC, symBinAddr: 0x100087F48, symSize: 0xB4 }
  - { offset: 0xEB3D1, size: 0x8, addend: 0x0, symName: __RNvXs1i_NtCs5FIOKSViJ8s_4core3fmtRNtNtNtB8_3net7ip_addr8Ipv4AddrNtB6_7Display3fmtB8_, symObjAddr: 0x15314, symBinAddr: 0x10007F360, symSize: 0x8 }
  - { offset: 0xEB3EB, size: 0x8, addend: 0x0, symName: __RNvXs1i_NtCs5FIOKSViJ8s_4core3fmtRNtNtNtB8_3net7ip_addr8Ipv6AddrNtB6_7Display3fmtB8_, symObjAddr: 0x1531C, symBinAddr: 0x10007F368, symSize: 0x8 }
  - { offset: 0xEB405, size: 0x8, addend: 0x0, symName: __RNvXs1i_NtCs5FIOKSViJ8s_4core3fmtReNtB6_7Display3fmtB8_, symObjAddr: 0x15324, symBinAddr: 0x10007F370, symSize: 0x10 }
  - { offset: 0xEB435, size: 0x8, addend: 0x0, symName: __RNvXs1i_NtCs5FIOKSViJ8s_4core3fmtRjNtB6_7Display3fmtB8_, symObjAddr: 0x15334, symBinAddr: 0x10007F380, symSize: 0x140 }
  - { offset: 0xEB551, size: 0x8, addend: 0x0, symName: __RNvXs1o_NtCs5FIOKSViJ8s_4core3fmtRtNtB6_8LowerHex3fmtB8_, symObjAddr: 0x156F0, symBinAddr: 0x10007F73C, symSize: 0x78 }
  - { offset: 0xEB5DF, size: 0x8, addend: 0x0, symName: __RNvXsj_NtCs5FIOKSViJ8s_4core3fmtcNtB5_5Debug3fmt, symObjAddr: 0x1D3BC, symBinAddr: 0x100087408, symSize: 0xA8 }
  - { offset: 0xEB780, size: 0x8, addend: 0x0, symName: __RNvYINtNtNtCs5FIOKSViJ8s_4core3net14display_buffer13DisplayBufferKj15_ENtNtB9_3fmt5Write10write_charB9_, symObjAddr: 0x1E520, symBinAddr: 0x10008856C, symSize: 0x134 }
  - { offset: 0xEB877, size: 0x8, addend: 0x0, symName: __RNvYINtNtNtCs5FIOKSViJ8s_4core3net14display_buffer13DisplayBufferKj15_ENtNtB9_3fmt5Write9write_fmtB9_, symObjAddr: 0x1E654, symBinAddr: 0x1000886A0, symSize: 0x14 }
  - { offset: 0xEB8A5, size: 0x8, addend: 0x0, symName: __RNvYINtNtNtCs5FIOKSViJ8s_4core3net14display_buffer13DisplayBufferKj27_ENtNtB9_3fmt5Write10write_charB9_, symObjAddr: 0x1E668, symBinAddr: 0x1000886B4, symSize: 0x134 }
  - { offset: 0xEB99C, size: 0x8, addend: 0x0, symName: __RNvYINtNtNtCs5FIOKSViJ8s_4core3net14display_buffer13DisplayBufferKj27_ENtNtB9_3fmt5Write9write_fmtB9_, symObjAddr: 0x1E79C, symBinAddr: 0x1000887E8, symSize: 0x14 }
  - { offset: 0xEB9CA, size: 0x8, addend: 0x0, symName: __RNvYINtNtNtCs5FIOKSViJ8s_4core3net14display_buffer13DisplayBufferKj3a_ENtNtB9_3fmt5Write10write_charB9_, symObjAddr: 0x1E7B0, symBinAddr: 0x1000887FC, symSize: 0x134 }
  - { offset: 0xEBAC1, size: 0x8, addend: 0x0, symName: __RNvYINtNtNtCs5FIOKSViJ8s_4core3net14display_buffer13DisplayBufferKj3a_ENtNtB9_3fmt5Write9write_fmtB9_, symObjAddr: 0x1E8E4, symBinAddr: 0x100088930, symSize: 0x14 }
  - { offset: 0xEBAEF, size: 0x8, addend: 0x0, symName: __RNvYINtNtNtCs5FIOKSViJ8s_4core3net14display_buffer13DisplayBufferKjf_ENtNtB9_3fmt5Write10write_charB9_, symObjAddr: 0x1E8F8, symBinAddr: 0x100088944, symSize: 0x134 }
  - { offset: 0xEBBE6, size: 0x8, addend: 0x0, symName: __RNvYINtNtNtCs5FIOKSViJ8s_4core3net14display_buffer13DisplayBufferKjf_ENtNtB9_3fmt5Write9write_fmtB9_, symObjAddr: 0x1EA2C, symBinAddr: 0x100088A78, symSize: 0x14 }
  - { offset: 0xEBC14, size: 0x8, addend: 0x0, symName: __RNvYNtNtNtCs5FIOKSViJ8s_4core3fmt8builders10PadAdapterNtB6_5Write9write_fmtB8_, symObjAddr: 0x1EA68, symBinAddr: 0x100088AB4, symSize: 0x14 }
  - { offset: 0xEBC56, size: 0x8, addend: 0x0, symName: __RNvXsg_NtCs5FIOKSViJ8s_4core3fmtbNtB5_7Display3fmt, symObjAddr: 0x1CE90, symBinAddr: 0x100086EDC, symSize: 0x34 }
  - { offset: 0xEBCBB, size: 0x8, addend: 0x0, symName: __RNvXs8_NtCs5FIOKSViJ8s_4core3fmtNtB5_9ArgumentsNtB5_7Display3fmt, symObjAddr: 0x19178, symBinAddr: 0x1000831C4, symSize: 0x10 }
  - { offset: 0xEBCD5, size: 0x8, addend: 0x0, symName: __RNvXs7_NtCs5FIOKSViJ8s_4core3fmtNtB5_9ArgumentsNtB5_5Debug3fmt, symObjAddr: 0x19098, symBinAddr: 0x1000830E4, symSize: 0x10 }
  - { offset: 0xEBCF3, size: 0x8, addend: 0x0, symName: __RNvXs7_NtCs5FIOKSViJ8s_4core3fmtNtB5_9ArgumentsNtB5_5Debug3fmt, symObjAddr: 0x19098, symBinAddr: 0x1000830E4, symSize: 0x10 }
  - { offset: 0xEBD0B, size: 0x8, addend: 0x0, symName: __RNvXsK_NtCs5FIOKSViJ8s_4core3fmtNtB5_5ErrorNtB5_5Debug3fmt, symObjAddr: 0x19F88, symBinAddr: 0x100083FD4, symSize: 0x18 }
  - { offset: 0xEBD28, size: 0x8, addend: 0x0, symName: __RNvXsK_NtCs5FIOKSViJ8s_4core3fmtNtB5_5ErrorNtB5_5Debug3fmt, symObjAddr: 0x19F88, symBinAddr: 0x100083FD4, symSize: 0x18 }
  - { offset: 0xEBD40, size: 0x8, addend: 0x0, symName: __RNvXsc_NtCs5FIOKSViJ8s_4core3fmtNtB5_5ErrorNtB5_7Display3fmt, symObjAddr: 0x1BF68, symBinAddr: 0x100085FB4, symSize: 0x14 }
  - { offset: 0xEBD97, size: 0x8, addend: 0x0, symName: __RNvXsh_NtCs5FIOKSViJ8s_4core3fmteNtB5_5Debug3fmt, symObjAddr: 0x1CF38, symBinAddr: 0x100086F84, symSize: 0x388 }
  - { offset: 0xEC244, size: 0x8, addend: 0x0, symName: __RNvXsk_NtCs5FIOKSViJ8s_4core3fmtcNtB5_7Display3fmt, symObjAddr: 0x1DB88, symBinAddr: 0x100087BD4, symSize: 0xD4 }
  - { offset: 0xECC7B, size: 0x8, addend: 0x0, symName: __RNvNtNtCs5FIOKSViJ8s_4core5slice5index16slice_index_fail, symObjAddr: 0xCC84, symBinAddr: 0x10008F080, symSize: 0xB4 }
  - { offset: 0xED19B, size: 0x8, addend: 0x0, symName: __RNvNvMNtCs5FIOKSViJ8s_4core5sliceSp16align_to_offsets3gcd, symObjAddr: 0x112D8, symBinAddr: 0x10007B35C, symSize: 0x1C }
  - { offset: 0xED6B6, size: 0x8, addend: 0x0, symName: __RNvNtNtCs5FIOKSViJ8s_4core5slice6memchr14memchr_aligned, symObjAddr: 0xCD38, symBinAddr: 0x10007715C, symSize: 0xDC }
  - { offset: 0xED6CD, size: 0x8, addend: 0x0, symName: __RNvNtNtCs5FIOKSViJ8s_4core5slice6memchr14memchr_aligned, symObjAddr: 0xCD38, symBinAddr: 0x10007715C, symSize: 0xDC }
  - { offset: 0xED6E2, size: 0x8, addend: 0x0, symName: __RNvNtNtCs5FIOKSViJ8s_4core5slice6memchr14memchr_aligned, symObjAddr: 0xCD38, symBinAddr: 0x10007715C, symSize: 0xDC }
  - { offset: 0xED6F6, size: 0x8, addend: 0x0, symName: __RNvNtNtCs5FIOKSViJ8s_4core5slice6memchr14memchr_aligned, symObjAddr: 0xCD38, symBinAddr: 0x10007715C, symSize: 0xDC }
  - { offset: 0xED70B, size: 0x8, addend: 0x0, symName: __RNvNtNtCs5FIOKSViJ8s_4core5slice6memchr14memchr_aligned, symObjAddr: 0xCD38, symBinAddr: 0x10007715C, symSize: 0xDC }
  - { offset: 0xED7B9, size: 0x8, addend: 0x0, symName: __RNvNtNtCs5FIOKSViJ8s_4core5slice6memchr7memrchr, symObjAddr: 0xCE14, symBinAddr: 0x100077238, symSize: 0x120 }
  - { offset: 0xEDA22, size: 0x8, addend: 0x0, symName: __RNvNtNtNtNtCs5FIOKSViJ8s_4core5slice4sort6shared9smallsort22panic_on_ord_violation, symObjAddr: 0xF070, symBinAddr: 0x10008F4B4, symSize: 0x20 }
  - { offset: 0xEDA49, size: 0x8, addend: 0x0, symName: __RNvNtNtNtNtCs5FIOKSViJ8s_4core5slice4sort6stable5drift11sqrt_approx, symObjAddr: 0xF090, symBinAddr: 0x100079114, symSize: 0x2C }
  - { offset: 0xEDAFD, size: 0x8, addend: 0x0, symName: __RNvNvNtCs5FIOKSViJ8s_4core5slice20copy_from_slice_impl17len_mismatch_fail, symObjAddr: 0x11540, symBinAddr: 0x10008F4D4, symSize: 0x38 }
  - { offset: 0xEDB72, size: 0x8, addend: 0x0, symName: __RNvXs0_NtNtCs5FIOKSViJ8s_4core5slice5asciiNtB5_11EscapeAsciiNtNtNtNtB9_4iter6traits12double_ended19DoubleEndedIterator9next_back, symObjAddr: 0x13074, symBinAddr: 0x10007D0C0, symSize: 0x128 }
  - { offset: 0xEDE46, size: 0x8, addend: 0x0, symName: __RNvXs2_NtNtCs5FIOKSViJ8s_4core5slice5asciiNtB5_11EscapeAsciiNtNtB9_3fmt7Display3fmt, symObjAddr: 0x17640, symBinAddr: 0x10008168C, symSize: 0x23C }
  - { offset: 0xEE373, size: 0x8, addend: 0x0, symName: __RNvXs3_NtNtCs5FIOKSViJ8s_4core5slice5asciiNtB5_11EscapeAsciiNtNtB9_3fmt5Debug3fmt, symObjAddr: 0x1834C, symBinAddr: 0x100082398, symSize: 0x6C }
  - { offset: 0xEE41B, size: 0x8, addend: 0x0, symName: __RNvXs9_NtCs5FIOKSViJ8s_4core5sliceNtB5_19GetDisjointMutErrorNtNtB7_3fmt7Display3fmt, symObjAddr: 0x19624, symBinAddr: 0x100083670, symSize: 0x38 }
  - { offset: 0xEE51A, size: 0x8, addend: 0x0, symName: __RNvMNtNtCs5FIOKSViJ8s_4core3net6parserNtB2_6Parser14read_ipv4_addr, symObjAddr: 0x2EE4, symBinAddr: 0x10006D8E8, symSize: 0x39C }
  - { offset: 0xEE6DB, size: 0x8, addend: 0x0, symName: __RNvMNtNtCs5FIOKSViJ8s_4core3net6parserNtB2_6Parser14read_ipv6_addr, symObjAddr: 0x3280, symBinAddr: 0x10006DC84, symSize: 0x140 }
  - { offset: 0xEEA2F, size: 0x8, addend: 0x0, symName: __RNvMNtNtCs5FIOKSViJ8s_4core3net6parserNtB2_6Parser19read_socket_addr_v6, symObjAddr: 0x33C0, symBinAddr: 0x10006DDC4, symSize: 0x1B4 }
  - { offset: 0xEEFE3, size: 0x8, addend: 0x0, symName: __RNCINvMNtNtCs5FIOKSViJ8s_4core3net6parserNtB5_6Parser11read_numbertE0B9_, symObjAddr: 0x29A4, symBinAddr: 0x10006D3A8, symSize: 0x290 }
  - { offset: 0xEF249, size: 0x8, addend: 0x0, symName: __RNvNvMNtNtCs5FIOKSViJ8s_4core3net6parserNtB4_6Parser14read_ipv6_addr11read_groups, symObjAddr: 0x112F4, symBinAddr: 0x10007B378, symSize: 0x1D0 }
  - { offset: 0xEF5FA, size: 0x8, addend: 0x0, symName: __RNvXs0_NtNtCs5FIOKSViJ8s_4core3net6parserNtNtB7_7ip_addr6IpAddrNtNtNtB9_3str6traits7FromStr8from_str, symObjAddr: 0x127F8, symBinAddr: 0x10007C844, symSize: 0xB8 }
  - { offset: 0xEF6D7, size: 0x8, addend: 0x0, symName: __RNvXs2_NtNtCs5FIOKSViJ8s_4core3net6parserNtNtB7_7ip_addr8Ipv4AddrNtNtNtB9_3str6traits7FromStr8from_str, symObjAddr: 0x16F74, symBinAddr: 0x100080FC0, symSize: 0x74 }
  - { offset: 0xEF746, size: 0x8, addend: 0x0, symName: __RNvXs4_NtNtCs5FIOKSViJ8s_4core3net6parserNtNtB7_7ip_addr8Ipv6AddrNtNtNtB9_3str6traits7FromStr8from_str, symObjAddr: 0x18684, symBinAddr: 0x1000826D0, symSize: 0x70 }
  - { offset: 0xEF7C9, size: 0x8, addend: 0x0, symName: __RNvXs6_NtNtCs5FIOKSViJ8s_4core3net6parserNtNtB7_11socket_addr12SocketAddrV4NtNtNtB9_3str6traits7FromStr8from_str, symObjAddr: 0x18DBC, symBinAddr: 0x100082E08, symSize: 0xE4 }
  - { offset: 0xEF963, size: 0x8, addend: 0x0, symName: __RNvXs8_NtNtCs5FIOKSViJ8s_4core3net6parserNtNtB7_11socket_addr12SocketAddrV6NtNtNtB9_3str6traits7FromStr8from_str, symObjAddr: 0x19488, symBinAddr: 0x1000834D4, symSize: 0x6C }
  - { offset: 0xEF9D9, size: 0x8, addend: 0x0, symName: __RNvXsa_NtNtCs5FIOKSViJ8s_4core3net6parserNtNtB7_11socket_addr10SocketAddrNtNtNtB9_3str6traits7FromStr8from_str, symObjAddr: 0x1BE24, symBinAddr: 0x100085E70, symSize: 0x4 }
  - { offset: 0xEF9FA, size: 0x8, addend: 0x0, symName: __RNvXsb_NtNtCs5FIOKSViJ8s_4core3net6parserNtB5_14AddrParseErrorNtNtB9_3fmt7Display3fmt, symObjAddr: 0x1BF40, symBinAddr: 0x100085F8C, symSize: 0x28 }
  - { offset: 0xEFA43, size: 0x8, addend: 0x0, symName: __RNvMs3_NtNtCs5FIOKSViJ8s_4core3net6parserNtNtB7_7ip_addr8Ipv6Addr11parse_ascii, symObjAddr: 0x6014, symBinAddr: 0x100070A18, symSize: 0x70 }
  - { offset: 0xEFAF0, size: 0x8, addend: 0x0, symName: __RNvMs1_NtNtCs5FIOKSViJ8s_4core3net6parserNtNtB7_7ip_addr8Ipv4Addr11parse_ascii, symObjAddr: 0x4F08, symBinAddr: 0x10006F90C, symSize: 0x74 }
  - { offset: 0xEFB64, size: 0x8, addend: 0x0, symName: __RNvMs_NtNtCs5FIOKSViJ8s_4core3net6parserNtNtB6_7ip_addr6IpAddr11parse_ascii, symObjAddr: 0x6FA8, symBinAddr: 0x1000719AC, symSize: 0xB8 }
  - { offset: 0xEFC45, size: 0x8, addend: 0x0, symName: __RNvXs17_NtNtCs5FIOKSViJ8s_4core3net7ip_addrNtB6_8Ipv4AddrINtNtNtBa_3ops3bit12BitAndAssignRBF_E13bitand_assign, symObjAddr: 0x13638, symBinAddr: 0x10007D684, symSize: 0x2C }
  - { offset: 0xEFCA5, size: 0x8, addend: 0x0, symName: __RNvXs1d_NtNtCs5FIOKSViJ8s_4core3net7ip_addrNtB6_8Ipv4AddrINtNtNtBa_3ops3bit11BitOrAssignRBF_E12bitor_assign, symObjAddr: 0x14F44, symBinAddr: 0x10007EF90, symSize: 0x2C }
  - { offset: 0xEFD05, size: 0x8, addend: 0x0, symName: __RNvXs1j_NtNtCs5FIOKSViJ8s_4core3net7ip_addrNtB6_8Ipv6AddrINtNtNtBa_3ops3bit12BitAndAssignRBF_E13bitand_assign, symObjAddr: 0x1553C, symBinAddr: 0x10007F588, symSize: 0x14 }
  - { offset: 0xEFD23, size: 0x8, addend: 0x0, symName: __RNvXs1j_NtNtCs5FIOKSViJ8s_4core3net7ip_addrNtB6_8Ipv6AddrINtNtNtBa_3ops3bit12BitAndAssignRBF_E13bitand_assign, symObjAddr: 0x1553C, symBinAddr: 0x10007F588, symSize: 0x14 }
  - { offset: 0xEFD65, size: 0x8, addend: 0x0, symName: __RNvXs1p_NtNtCs5FIOKSViJ8s_4core3net7ip_addrNtB6_8Ipv6AddrINtNtNtBa_3ops3bit11BitOrAssignRBF_E12bitor_assign, symObjAddr: 0x15768, symBinAddr: 0x10007F7B4, symSize: 0x14 }
  - { offset: 0xEFD83, size: 0x8, addend: 0x0, symName: __RNvXs1p_NtNtCs5FIOKSViJ8s_4core3net7ip_addrNtB6_8Ipv6AddrINtNtNtBa_3ops3bit11BitOrAssignRBF_E12bitor_assign, symObjAddr: 0x15768, symBinAddr: 0x10007F7B4, symSize: 0x14 }
  - { offset: 0xEFDB1, size: 0x8, addend: 0x0, symName: __RNvXs2_NtNtCs5FIOKSViJ8s_4core3net7ip_addrNtB5_6IpAddrNtNtB9_3fmt7Display3fmt, symObjAddr: 0x16FE8, symBinAddr: 0x100081034, symSize: 0x14 }
  - { offset: 0xEFDD9, size: 0x8, addend: 0x0, symName: __RNvXs3_NtNtCs5FIOKSViJ8s_4core3net7ip_addrNtB5_6IpAddrNtNtB9_3fmt5Debug3fmt, symObjAddr: 0x18204, symBinAddr: 0x100082250, symSize: 0x14 }
  - { offset: 0xEFDF7, size: 0x8, addend: 0x0, symName: __RNvXs3_NtNtCs5FIOKSViJ8s_4core3net7ip_addrNtB5_6IpAddrNtNtB9_3fmt5Debug3fmt, symObjAddr: 0x18204, symBinAddr: 0x100082250, symSize: 0x14 }
  - { offset: 0xEFE10, size: 0x8, addend: 0x0, symName: __RNvXs6_NtNtCs5FIOKSViJ8s_4core3net7ip_addrNtB5_8Ipv4AddrNtNtB9_3fmt7Display3fmt, symObjAddr: 0x18EA0, symBinAddr: 0x100082EEC, symSize: 0x11C }
  - { offset: 0xEFF0F, size: 0x8, addend: 0x0, symName: __RNvXs7_NtNtCs5FIOKSViJ8s_4core3net7ip_addrNtB5_8Ipv4AddrNtNtB9_3fmt5Debug3fmt, symObjAddr: 0x19174, symBinAddr: 0x1000831C0, symSize: 0x4 }
  - { offset: 0xEFF43, size: 0x8, addend: 0x0, symName: __RNvXsj_NtNtCs5FIOKSViJ8s_4core3net7ip_addrNtB5_8Ipv6AddrNtNtB9_3fmt7Display3fmt, symObjAddr: 0x1D4D8, symBinAddr: 0x100087524, symSize: 0x6B0 }
  - { offset: 0xF02F0, size: 0x8, addend: 0x0, symName: __RNvXsk_NtNtCs5FIOKSViJ8s_4core3net7ip_addrNtB5_8Ipv6AddrNtNtB9_3fmt5Debug3fmt, symObjAddr: 0x1DCD0, symBinAddr: 0x100087D1C, symSize: 0x4 }
  - { offset: 0xF0323, size: 0x8, addend: 0x0, symName: __RNvMs7_NtNtCs5FIOKSViJ8s_4core3net6parserNtNtB7_11socket_addr12SocketAddrV611parse_ascii, symObjAddr: 0x6CB8, symBinAddr: 0x1000716BC, symSize: 0x6C }
  - { offset: 0xF03B0, size: 0x8, addend: 0x0, symName: __RNvMs5_NtNtCs5FIOKSViJ8s_4core3net6parserNtNtB7_11socket_addr12SocketAddrV411parse_ascii, symObjAddr: 0x63F0, symBinAddr: 0x100070DF4, symSize: 0xE4 }
  - { offset: 0xF0567, size: 0x8, addend: 0x0, symName: __RNvMs9_NtNtCs5FIOKSViJ8s_4core3net6parserNtNtB7_11socket_addr10SocketAddr11parse_ascii, symObjAddr: 0x6E1C, symBinAddr: 0x100071820, symSize: 0x15C }
  - { offset: 0xF0733, size: 0x8, addend: 0x0, symName: __RNvXs4_NtNtCs5FIOKSViJ8s_4core3net11socket_addrNtB5_10SocketAddrNtNtB9_3fmt7Display3fmt, symObjAddr: 0x18668, symBinAddr: 0x1000826B4, symSize: 0x1C }
  - { offset: 0xF075B, size: 0x8, addend: 0x0, symName: __RNvXs5_NtNtCs5FIOKSViJ8s_4core3net11socket_addrNtB5_10SocketAddrNtNtB9_3fmt5Debug3fmt, symObjAddr: 0x189B4, symBinAddr: 0x100082A00, symSize: 0x1C }
  - { offset: 0xF0779, size: 0x8, addend: 0x0, symName: __RNvXs5_NtNtCs5FIOKSViJ8s_4core3net11socket_addrNtB5_10SocketAddrNtNtB9_3fmt5Debug3fmt, symObjAddr: 0x189B4, symBinAddr: 0x100082A00, symSize: 0x1C }
  - { offset: 0xF0792, size: 0x8, addend: 0x0, symName: __RNvXs6_NtNtCs5FIOKSViJ8s_4core3net11socket_addrNtB5_12SocketAddrV4NtNtB9_3fmt7Display3fmt, symObjAddr: 0x18CA0, symBinAddr: 0x100082CEC, symSize: 0x11C }
  - { offset: 0xF08D0, size: 0x8, addend: 0x0, symName: __RNvXs7_NtNtCs5FIOKSViJ8s_4core3net11socket_addrNtB5_12SocketAddrV4NtNtB9_3fmt5Debug3fmt, symObjAddr: 0x19170, symBinAddr: 0x1000831BC, symSize: 0x4 }
  - { offset: 0xF08F1, size: 0x8, addend: 0x0, symName: __RNvXs8_NtNtCs5FIOKSViJ8s_4core3net11socket_addrNtB5_12SocketAddrV6NtNtB9_3fmt7Display3fmt, symObjAddr: 0x192AC, symBinAddr: 0x1000832F8, symSize: 0x1DC }
  - { offset: 0xF0B05, size: 0x8, addend: 0x0, symName: __RNvXs9_NtNtCs5FIOKSViJ8s_4core3net11socket_addrNtB5_12SocketAddrV6NtNtB9_3fmt5Debug3fmt, symObjAddr: 0x19704, symBinAddr: 0x100083750, symSize: 0x4 }
  - { offset: 0xF0B91, size: 0x8, addend: 0x0, symName: __RNvXs_NtNtCs5FIOKSViJ8s_4core3net14display_bufferINtB4_13DisplayBufferKj15_ENtNtB8_3fmt5Write9write_strB8_, symObjAddr: 0x1B0BC, symBinAddr: 0x100085108, symSize: 0x50 }
  - { offset: 0xF0C40, size: 0x8, addend: 0x0, symName: __RNvXs_NtNtCs5FIOKSViJ8s_4core3net14display_bufferINtB4_13DisplayBufferKj27_ENtNtB8_3fmt5Write9write_strB8_, symObjAddr: 0x1B10C, symBinAddr: 0x100085158, symSize: 0x50 }
  - { offset: 0xF0CEF, size: 0x8, addend: 0x0, symName: __RNvXs_NtNtCs5FIOKSViJ8s_4core3net14display_bufferINtB4_13DisplayBufferKj3a_ENtNtB8_3fmt5Write9write_strB8_, symObjAddr: 0x1B15C, symBinAddr: 0x1000851A8, symSize: 0x50 }
  - { offset: 0xF0D9E, size: 0x8, addend: 0x0, symName: __RNvXs_NtNtCs5FIOKSViJ8s_4core3net14display_bufferINtB4_13DisplayBufferKjf_ENtNtB8_3fmt5Write9write_strB8_, symObjAddr: 0x1B1AC, symBinAddr: 0x1000851F8, symSize: 0x50 }
  - { offset: 0xF1190, size: 0x8, addend: 0x0, symName: __RNvNtCs5FIOKSViJ8s_4core6option13expect_failed, symObjAddr: 0xB20C, symBinAddr: 0x10008ED34, symSize: 0x30 }
  - { offset: 0xF11C1, size: 0x8, addend: 0x0, symName: __RNvNtCs5FIOKSViJ8s_4core6option13unwrap_failed, symObjAddr: 0xB23C, symBinAddr: 0x10008ED64, symSize: 0x1C }
  - { offset: 0xF14C1, size: 0x8, addend: 0x0, symName: __RNvMNtNtCs5FIOKSViJ8s_4core4char7methodsc16escape_debug_ext, symObjAddr: 0x3574, symBinAddr: 0x10006DF78, symSize: 0x28C }
  - { offset: 0xF1818, size: 0x8, addend: 0x0, symName: __RNvXs6_NtNtCs5FIOKSViJ8s_4core4char7convertNtB5_14ParseCharErrorNtNtB9_3fmt7Display3fmt, symObjAddr: 0x18FBC, symBinAddr: 0x100083008, symSize: 0x38 }
  - { offset: 0xF1863, size: 0x8, addend: 0x0, symName: __RNvXs9_NtNtCs5FIOKSViJ8s_4core4char7convertNtB5_16CharTryFromErrorNtNtB9_3fmt7Display3fmt, symObjAddr: 0x19708, symBinAddr: 0x100083754, symSize: 0x14 }
  - { offset: 0xF18C0, size: 0x8, addend: 0x0, symName: __RNvXs1_NtNtCs5FIOKSViJ8s_4core4char6decodeNtB5_16DecodeUtf16ErrorNtNtB9_3fmt7Display3fmt, symObjAddr: 0x14B78, symBinAddr: 0x10007EBC4, symSize: 0x38 }
  - { offset: 0xF198E, size: 0x8, addend: 0x0, symName: __RNvXsc_NtCs5FIOKSViJ8s_4core4charNtB5_11EscapeDebugNtNtB7_3fmt7Display3fmt, symObjAddr: 0x1BFA4, symBinAddr: 0x100085FF0, symSize: 0x34 }
  - { offset: 0xF1A49, size: 0x8, addend: 0x0, symName: __RNvXs2_NtCs5FIOKSViJ8s_4core4charNtB5_13EscapeUnicodeNtNtB7_3fmt7Display3fmt, symObjAddr: 0x16C78, symBinAddr: 0x100080CC4, symSize: 0x20 }
  - { offset: 0xF1B10, size: 0x8, addend: 0x0, symName: __RNvXse_NtCs5FIOKSViJ8s_4core4charNtB5_15CaseMappingIterNtNtNtNtB7_4iter6traits8iterator8Iterator10advance_by, symObjAddr: 0x1CA8C, symBinAddr: 0x100086AD8, symSize: 0x20 }
  - { offset: 0xF1B27, size: 0x8, addend: 0x0, symName: __RNvXse_NtCs5FIOKSViJ8s_4core4charNtB5_15CaseMappingIterNtNtNtNtB7_4iter6traits8iterator8Iterator10advance_by, symObjAddr: 0x1CA8C, symBinAddr: 0x100086AD8, symSize: 0x20 }
  - { offset: 0xF1B3C, size: 0x8, addend: 0x0, symName: __RNvXse_NtCs5FIOKSViJ8s_4core4charNtB5_15CaseMappingIterNtNtNtNtB7_4iter6traits8iterator8Iterator10advance_by, symObjAddr: 0x1CA8C, symBinAddr: 0x100086AD8, symSize: 0x20 }
  - { offset: 0xF1B51, size: 0x8, addend: 0x0, symName: __RNvXse_NtCs5FIOKSViJ8s_4core4charNtB5_15CaseMappingIterNtNtNtNtB7_4iter6traits8iterator8Iterator10advance_by, symObjAddr: 0x1CA8C, symBinAddr: 0x100086AD8, symSize: 0x20 }
  - { offset: 0xF1B8B, size: 0x8, addend: 0x0, symName: __RNvXse_NtCs5FIOKSViJ8s_4core4charNtB5_15CaseMappingIterNtNtNtNtB7_4iter6traits8iterator8Iterator24___iterator_get_unchecked, symObjAddr: 0x1CAAC, symBinAddr: 0x100086AF8, symSize: 0x14 }
  - { offset: 0xF1BA2, size: 0x8, addend: 0x0, symName: __RNvXse_NtCs5FIOKSViJ8s_4core4charNtB5_15CaseMappingIterNtNtNtNtB7_4iter6traits8iterator8Iterator24___iterator_get_unchecked, symObjAddr: 0x1CAAC, symBinAddr: 0x100086AF8, symSize: 0x14 }
  - { offset: 0xF1BB7, size: 0x8, addend: 0x0, symName: __RNvXse_NtCs5FIOKSViJ8s_4core4charNtB5_15CaseMappingIterNtNtNtNtB7_4iter6traits8iterator8Iterator24___iterator_get_unchecked, symObjAddr: 0x1CAAC, symBinAddr: 0x100086AF8, symSize: 0x14 }
  - { offset: 0xF1BCC, size: 0x8, addend: 0x0, symName: __RNvXse_NtCs5FIOKSViJ8s_4core4charNtB5_15CaseMappingIterNtNtNtNtB7_4iter6traits8iterator8Iterator24___iterator_get_unchecked, symObjAddr: 0x1CAAC, symBinAddr: 0x100086AF8, symSize: 0x14 }
  - { offset: 0xF1BE0, size: 0x8, addend: 0x0, symName: __RNvXse_NtCs5FIOKSViJ8s_4core4charNtB5_15CaseMappingIterNtNtNtNtB7_4iter6traits8iterator8Iterator24___iterator_get_unchecked, symObjAddr: 0x1CAAC, symBinAddr: 0x100086AF8, symSize: 0x14 }
  - { offset: 0xF1C49, size: 0x8, addend: 0x0, symName: __RNvXse_NtCs5FIOKSViJ8s_4core4charNtB5_15CaseMappingIterNtNtNtNtB7_4iter6traits8iterator8Iterator4last, symObjAddr: 0x1CAC0, symBinAddr: 0x100086B0C, symSize: 0x38 }
  - { offset: 0xF1D86, size: 0x8, addend: 0x0, symName: __RNvXse_NtCs5FIOKSViJ8s_4core4charNtB5_15CaseMappingIterNtNtNtNtB7_4iter6traits8iterator8Iterator4next, symObjAddr: 0x1CAF8, symBinAddr: 0x100086B44, symSize: 0x28 }
  - { offset: 0xF1DC2, size: 0x8, addend: 0x0, symName: __RNvXse_NtCs5FIOKSViJ8s_4core4charNtB5_15CaseMappingIterNtNtNtNtB7_4iter6traits8iterator8Iterator4next, symObjAddr: 0x1CAF8, symBinAddr: 0x100086B44, symSize: 0x28 }
  - { offset: 0xF1DD6, size: 0x8, addend: 0x0, symName: __RNvXse_NtCs5FIOKSViJ8s_4core4charNtB5_15CaseMappingIterNtNtNtNtB7_4iter6traits8iterator8Iterator4next, symObjAddr: 0x1CAF8, symBinAddr: 0x100086B44, symSize: 0x28 }
  - { offset: 0xF1DEA, size: 0x8, addend: 0x0, symName: __RNvXse_NtCs5FIOKSViJ8s_4core4charNtB5_15CaseMappingIterNtNtNtNtB7_4iter6traits8iterator8Iterator4next, symObjAddr: 0x1CAF8, symBinAddr: 0x100086B44, symSize: 0x28 }
  - { offset: 0xF1E94, size: 0x8, addend: 0x0, symName: __RNvXse_NtCs5FIOKSViJ8s_4core4charNtB5_15CaseMappingIterNtNtNtNtB7_4iter6traits8iterator8Iterator5count, symObjAddr: 0x1CB20, symBinAddr: 0x100086B6C, symSize: 0xC }
  - { offset: 0xF1F05, size: 0x8, addend: 0x0, symName: __RNvXsE_NtCs5FIOKSViJ8s_4core4charNtB5_11ToTitlecaseNtNtNtNtB7_4iter6traits8iterator8Iterator10advance_by, symObjAddr: 0x19AD8, symBinAddr: 0x100083B24, symSize: 0x20 }
  - { offset: 0xF1F23, size: 0x8, addend: 0x0, symName: __RNvXsE_NtCs5FIOKSViJ8s_4core4charNtB5_11ToTitlecaseNtNtNtNtB7_4iter6traits8iterator8Iterator10advance_by, symObjAddr: 0x19AD8, symBinAddr: 0x100083B24, symSize: 0x20 }
  - { offset: 0xF1F38, size: 0x8, addend: 0x0, symName: __RNvXsE_NtCs5FIOKSViJ8s_4core4charNtB5_11ToTitlecaseNtNtNtNtB7_4iter6traits8iterator8Iterator10advance_by, symObjAddr: 0x19AD8, symBinAddr: 0x100083B24, symSize: 0x20 }
  - { offset: 0xF1F4D, size: 0x8, addend: 0x0, symName: __RNvXsE_NtCs5FIOKSViJ8s_4core4charNtB5_11ToTitlecaseNtNtNtNtB7_4iter6traits8iterator8Iterator10advance_by, symObjAddr: 0x19AD8, symBinAddr: 0x100083B24, symSize: 0x20 }
  - { offset: 0xF1F62, size: 0x8, addend: 0x0, symName: __RNvXsE_NtCs5FIOKSViJ8s_4core4charNtB5_11ToTitlecaseNtNtNtNtB7_4iter6traits8iterator8Iterator10advance_by, symObjAddr: 0x19AD8, symBinAddr: 0x100083B24, symSize: 0x20 }
  - { offset: 0xF1F9E, size: 0x8, addend: 0x0, symName: __RNvXsE_NtCs5FIOKSViJ8s_4core4charNtB5_11ToTitlecaseNtNtNtNtB7_4iter6traits8iterator8Iterator24___iterator_get_unchecked, symObjAddr: 0x19AF8, symBinAddr: 0x100083B44, symSize: 0x14 }
  - { offset: 0xF1FBC, size: 0x8, addend: 0x0, symName: __RNvXsE_NtCs5FIOKSViJ8s_4core4charNtB5_11ToTitlecaseNtNtNtNtB7_4iter6traits8iterator8Iterator24___iterator_get_unchecked, symObjAddr: 0x19AF8, symBinAddr: 0x100083B44, symSize: 0x14 }
  - { offset: 0xF1FD1, size: 0x8, addend: 0x0, symName: __RNvXsE_NtCs5FIOKSViJ8s_4core4charNtB5_11ToTitlecaseNtNtNtNtB7_4iter6traits8iterator8Iterator24___iterator_get_unchecked, symObjAddr: 0x19AF8, symBinAddr: 0x100083B44, symSize: 0x14 }
  - { offset: 0xF1FE6, size: 0x8, addend: 0x0, symName: __RNvXsE_NtCs5FIOKSViJ8s_4core4charNtB5_11ToTitlecaseNtNtNtNtB7_4iter6traits8iterator8Iterator24___iterator_get_unchecked, symObjAddr: 0x19AF8, symBinAddr: 0x100083B44, symSize: 0x14 }
  - { offset: 0xF1FFB, size: 0x8, addend: 0x0, symName: __RNvXsE_NtCs5FIOKSViJ8s_4core4charNtB5_11ToTitlecaseNtNtNtNtB7_4iter6traits8iterator8Iterator24___iterator_get_unchecked, symObjAddr: 0x19AF8, symBinAddr: 0x100083B44, symSize: 0x14 }
  - { offset: 0xF200F, size: 0x8, addend: 0x0, symName: __RNvXsE_NtCs5FIOKSViJ8s_4core4charNtB5_11ToTitlecaseNtNtNtNtB7_4iter6traits8iterator8Iterator24___iterator_get_unchecked, symObjAddr: 0x19AF8, symBinAddr: 0x100083B44, symSize: 0x14 }
  - { offset: 0xF207A, size: 0x8, addend: 0x0, symName: __RNvXsE_NtCs5FIOKSViJ8s_4core4charNtB5_11ToTitlecaseNtNtNtNtB7_4iter6traits8iterator8Iterator4last, symObjAddr: 0x19B0C, symBinAddr: 0x100083B58, symSize: 0x38 }
  - { offset: 0xF2098, size: 0x8, addend: 0x0, symName: __RNvXsE_NtCs5FIOKSViJ8s_4core4charNtB5_11ToTitlecaseNtNtNtNtB7_4iter6traits8iterator8Iterator4last, symObjAddr: 0x19B0C, symBinAddr: 0x100083B58, symSize: 0x38 }
  - { offset: 0xF21D5, size: 0x8, addend: 0x0, symName: __RNvXsE_NtCs5FIOKSViJ8s_4core4charNtB5_11ToTitlecaseNtNtNtNtB7_4iter6traits8iterator8Iterator4next, symObjAddr: 0x19B44, symBinAddr: 0x100083B90, symSize: 0x28 }
  - { offset: 0xF2225, size: 0x8, addend: 0x0, symName: __RNvXsE_NtCs5FIOKSViJ8s_4core4charNtB5_11ToTitlecaseNtNtNtNtB7_4iter6traits8iterator8Iterator4next, symObjAddr: 0x19B44, symBinAddr: 0x100083B90, symSize: 0x28 }
  - { offset: 0xF2239, size: 0x8, addend: 0x0, symName: __RNvXsE_NtCs5FIOKSViJ8s_4core4charNtB5_11ToTitlecaseNtNtNtNtB7_4iter6traits8iterator8Iterator4next, symObjAddr: 0x19B44, symBinAddr: 0x100083B90, symSize: 0x28 }
  - { offset: 0xF224D, size: 0x8, addend: 0x0, symName: __RNvXsE_NtCs5FIOKSViJ8s_4core4charNtB5_11ToTitlecaseNtNtNtNtB7_4iter6traits8iterator8Iterator4next, symObjAddr: 0x19B44, symBinAddr: 0x100083B90, symSize: 0x28 }
  - { offset: 0xF22F9, size: 0x8, addend: 0x0, symName: __RNvXsE_NtCs5FIOKSViJ8s_4core4charNtB5_11ToTitlecaseNtNtNtNtB7_4iter6traits8iterator8Iterator5count, symObjAddr: 0x19B6C, symBinAddr: 0x100083BB8, symSize: 0xC }
  - { offset: 0xF2317, size: 0x8, addend: 0x0, symName: __RNvXsE_NtCs5FIOKSViJ8s_4core4charNtB5_11ToTitlecaseNtNtNtNtB7_4iter6traits8iterator8Iterator5count, symObjAddr: 0x19B6C, symBinAddr: 0x100083BB8, symSize: 0xC }
  - { offset: 0xF23A2, size: 0x8, addend: 0x0, symName: __RNvXsf_NtCs5FIOKSViJ8s_4core4charNtB5_15CaseMappingIterNtNtNtNtB7_4iter6traits12double_ended19DoubleEndedIterator15advance_back_by, symObjAddr: 0x1CCE4, symBinAddr: 0x100086D30, symSize: 0x24 }
  - { offset: 0xF23B9, size: 0x8, addend: 0x0, symName: __RNvXsf_NtCs5FIOKSViJ8s_4core4charNtB5_15CaseMappingIterNtNtNtNtB7_4iter6traits12double_ended19DoubleEndedIterator15advance_back_by, symObjAddr: 0x1CCE4, symBinAddr: 0x100086D30, symSize: 0x24 }
  - { offset: 0xF23CE, size: 0x8, addend: 0x0, symName: __RNvXsf_NtCs5FIOKSViJ8s_4core4charNtB5_15CaseMappingIterNtNtNtNtB7_4iter6traits12double_ended19DoubleEndedIterator15advance_back_by, symObjAddr: 0x1CCE4, symBinAddr: 0x100086D30, symSize: 0x24 }
  - { offset: 0xF23E3, size: 0x8, addend: 0x0, symName: __RNvXsf_NtCs5FIOKSViJ8s_4core4charNtB5_15CaseMappingIterNtNtNtNtB7_4iter6traits12double_ended19DoubleEndedIterator15advance_back_by, symObjAddr: 0x1CCE4, symBinAddr: 0x100086D30, symSize: 0x24 }
  - { offset: 0xF2431, size: 0x8, addend: 0x0, symName: __RNvXsf_NtCs5FIOKSViJ8s_4core4charNtB5_15CaseMappingIterNtNtNtNtB7_4iter6traits12double_ended19DoubleEndedIterator9next_back, symObjAddr: 0x1CD08, symBinAddr: 0x100086D54, symSize: 0x28 }
  - { offset: 0xF246E, size: 0x8, addend: 0x0, symName: __RNvXsf_NtCs5FIOKSViJ8s_4core4charNtB5_15CaseMappingIterNtNtNtNtB7_4iter6traits12double_ended19DoubleEndedIterator9next_back, symObjAddr: 0x1CD08, symBinAddr: 0x100086D54, symSize: 0x28 }
  - { offset: 0xF2482, size: 0x8, addend: 0x0, symName: __RNvXsf_NtCs5FIOKSViJ8s_4core4charNtB5_15CaseMappingIterNtNtNtNtB7_4iter6traits12double_ended19DoubleEndedIterator9next_back, symObjAddr: 0x1CD08, symBinAddr: 0x100086D54, symSize: 0x28 }
  - { offset: 0xF2496, size: 0x8, addend: 0x0, symName: __RNvXsf_NtCs5FIOKSViJ8s_4core4charNtB5_15CaseMappingIterNtNtNtNtB7_4iter6traits12double_ended19DoubleEndedIterator9next_back, symObjAddr: 0x1CD08, symBinAddr: 0x100086D54, symSize: 0x28 }
  - { offset: 0xF2547, size: 0x8, addend: 0x0, symName: __RNvXsF_NtCs5FIOKSViJ8s_4core4charNtB5_11ToTitlecaseNtNtNtNtB7_4iter6traits12double_ended19DoubleEndedIterator15advance_back_by, symObjAddr: 0x19D34, symBinAddr: 0x100083D80, symSize: 0x24 }
  - { offset: 0xF2565, size: 0x8, addend: 0x0, symName: __RNvXsF_NtCs5FIOKSViJ8s_4core4charNtB5_11ToTitlecaseNtNtNtNtB7_4iter6traits12double_ended19DoubleEndedIterator15advance_back_by, symObjAddr: 0x19D34, symBinAddr: 0x100083D80, symSize: 0x24 }
  - { offset: 0xF257A, size: 0x8, addend: 0x0, symName: __RNvXsF_NtCs5FIOKSViJ8s_4core4charNtB5_11ToTitlecaseNtNtNtNtB7_4iter6traits12double_ended19DoubleEndedIterator15advance_back_by, symObjAddr: 0x19D34, symBinAddr: 0x100083D80, symSize: 0x24 }
  - { offset: 0xF258F, size: 0x8, addend: 0x0, symName: __RNvXsF_NtCs5FIOKSViJ8s_4core4charNtB5_11ToTitlecaseNtNtNtNtB7_4iter6traits12double_ended19DoubleEndedIterator15advance_back_by, symObjAddr: 0x19D34, symBinAddr: 0x100083D80, symSize: 0x24 }
  - { offset: 0xF25A4, size: 0x8, addend: 0x0, symName: __RNvXsF_NtCs5FIOKSViJ8s_4core4charNtB5_11ToTitlecaseNtNtNtNtB7_4iter6traits12double_ended19DoubleEndedIterator15advance_back_by, symObjAddr: 0x19D34, symBinAddr: 0x100083D80, symSize: 0x24 }
  - { offset: 0xF25F4, size: 0x8, addend: 0x0, symName: __RNvXsF_NtCs5FIOKSViJ8s_4core4charNtB5_11ToTitlecaseNtNtNtNtB7_4iter6traits12double_ended19DoubleEndedIterator9next_back, symObjAddr: 0x19D58, symBinAddr: 0x100083DA4, symSize: 0x28 }
  - { offset: 0xF2645, size: 0x8, addend: 0x0, symName: __RNvXsF_NtCs5FIOKSViJ8s_4core4charNtB5_11ToTitlecaseNtNtNtNtB7_4iter6traits12double_ended19DoubleEndedIterator9next_back, symObjAddr: 0x19D58, symBinAddr: 0x100083DA4, symSize: 0x28 }
  - { offset: 0xF2659, size: 0x8, addend: 0x0, symName: __RNvXsF_NtCs5FIOKSViJ8s_4core4charNtB5_11ToTitlecaseNtNtNtNtB7_4iter6traits12double_ended19DoubleEndedIterator9next_back, symObjAddr: 0x19D58, symBinAddr: 0x100083DA4, symSize: 0x28 }
  - { offset: 0xF266D, size: 0x8, addend: 0x0, symName: __RNvXsF_NtCs5FIOKSViJ8s_4core4charNtB5_11ToTitlecaseNtNtNtNtB7_4iter6traits12double_ended19DoubleEndedIterator9next_back, symObjAddr: 0x19D58, symBinAddr: 0x100083DA4, symSize: 0x28 }
  - { offset: 0xF271F, size: 0x8, addend: 0x0, symName: __RNvXsm_NtCs5FIOKSViJ8s_4core4charNtB5_16TryFromCharErrorNtNtB7_3fmt7Display3fmt, symObjAddr: 0x1DD48, symBinAddr: 0x100087D94, symSize: 0x14 }
  - { offset: 0xF2B93, size: 0x8, addend: 0x0, symName: __RNvNtCs5FIOKSViJ8s_4core6result13unwrap_failed, symObjAddr: 0xB258, symBinAddr: 0x10008ED80, symSize: 0x48 }
  - { offset: 0xF2E6F, size: 0x8, addend: 0x0, symName: __RNvNtNtCs5FIOKSViJ8s_4core3str8converts13from_utf8_mut, symObjAddr: 0xC77C, symBinAddr: 0x100076C74, symSize: 0x274 }
  - { offset: 0xF2E8C, size: 0x8, addend: 0x0, symName: __RNvNtNtCs5FIOKSViJ8s_4core3str8converts13from_utf8_mut, symObjAddr: 0xC77C, symBinAddr: 0x100076C74, symSize: 0x274 }
  - { offset: 0xF2EEF, size: 0x8, addend: 0x0, symName: __RNvNtNtCs5FIOKSViJ8s_4core3str8converts9from_utf8, symObjAddr: 0xC9F0, symBinAddr: 0x100076EE8, symSize: 0x274 }
  - { offset: 0xF2F0C, size: 0x8, addend: 0x0, symName: __RNvNtNtCs5FIOKSViJ8s_4core3str8converts9from_utf8, symObjAddr: 0xC9F0, symBinAddr: 0x100076EE8, symSize: 0x274 }
  - { offset: 0xF3095, size: 0x8, addend: 0x0, symName: __RNvXs20_NtNtCs5FIOKSViJ8s_4core3str4iterNtB6_11EscapeDebugNtNtBa_3fmt7Display3fmt, symObjAddr: 0x157B0, symBinAddr: 0x10007F7FC, symSize: 0x7D4 }
  - { offset: 0xF3AF0, size: 0x8, addend: 0x0, symName: __RNvXs23_NtNtCs5FIOKSViJ8s_4core3str4iterNtB6_13EscapeDefaultNtNtBa_3fmt7Display3fmt, symObjAddr: 0x15F84, symBinAddr: 0x10007FFD0, symSize: 0x4A8 }
  - { offset: 0xF4080, size: 0x8, addend: 0x0, symName: __RNvXs26_NtNtCs5FIOKSViJ8s_4core3str4iterNtB6_13EscapeUnicodeNtNtBa_3fmt7Display3fmt, symObjAddr: 0x165F4, symBinAddr: 0x100080640, symSize: 0x35C }
  - { offset: 0xF45C8, size: 0x8, addend: 0x0, symName: __RNvXsN_NtNtCs5FIOKSViJ8s_4core3str4iterNtB5_11EncodeUtf16NtNtB9_3fmt5Debug3fmt, symObjAddr: 0x1A190, symBinAddr: 0x1000841DC, symSize: 0x6C }
  - { offset: 0xF4681, size: 0x8, addend: 0x0, symName: __RNvXs_NtNtCs5FIOKSViJ8s_4core3str4iterNtB4_5CharsNtNtB8_3fmt5Debug3fmt, symObjAddr: 0x1B290, symBinAddr: 0x1000852DC, symSize: 0x5FC }
  - { offset: 0xF4BAC, size: 0x8, addend: 0x0, symName: __RNvMNtCs5FIOKSViJ8s_4core3stre12escape_debug, symObjAddr: 0x2DB8, symBinAddr: 0x10006D7BC, symSize: 0xE4 }
  - { offset: 0xF4CFB, size: 0x8, addend: 0x0, symName: __RNvMNtCs5FIOKSViJ8s_4core3stre12substr_range, symObjAddr: 0x2E9C, symBinAddr: 0x10006D8A0, symSize: 0x2C }
  - { offset: 0xF4D26, size: 0x8, addend: 0x0, symName: __RNvMNtCs5FIOKSViJ8s_4core3stre12substr_range, symObjAddr: 0x2E9C, symBinAddr: 0x10006D8A0, symSize: 0x2C }
  - { offset: 0xF4D4F, size: 0x8, addend: 0x0, symName: __RNvMNtCs5FIOKSViJ8s_4core3stre13from_utf8_mut, symObjAddr: 0x2EC8, symBinAddr: 0x10006D8CC, symSize: 0x4 }
  - { offset: 0xF4D6A, size: 0x8, addend: 0x0, symName: __RNvMNtCs5FIOKSViJ8s_4core3stre22split_at_mut_unchecked, symObjAddr: 0x2ECC, symBinAddr: 0x10006D8D0, symSize: 0x14 }
  - { offset: 0xF4D88, size: 0x8, addend: 0x0, symName: __RNvMNtCs5FIOKSViJ8s_4core3stre22split_at_mut_unchecked, symObjAddr: 0x2ECC, symBinAddr: 0x10006D8D0, symSize: 0x14 }
  - { offset: 0xF4D9B, size: 0x8, addend: 0x0, symName: __RNvMNtCs5FIOKSViJ8s_4core3stre9from_utf8, symObjAddr: 0x2EE0, symBinAddr: 0x10006D8E4, symSize: 0x4 }
  - { offset: 0xF4EA5, size: 0x8, addend: 0x0, symName: __RNvNtNtCs5FIOKSViJ8s_4core3str5count14do_count_chars, symObjAddr: 0xBDC0, symBinAddr: 0x1000762B8, symSize: 0x714 }
  - { offset: 0xF52AB, size: 0x8, addend: 0x0, symName: __RNvNtNtCs5FIOKSViJ8s_4core3str5count23char_count_general_case, symObjAddr: 0xC4D4, symBinAddr: 0x1000769CC, symSize: 0x2A8 }
  - { offset: 0xF53B0, size: 0x8, addend: 0x0, symName: __RNvMsu_NtNtCs5FIOKSViJ8s_4core3str7patternNtB5_11StrSearcher3new, symObjAddr: 0xA15C, symBinAddr: 0x100074B60, symSize: 0x888 }
  - { offset: 0xF5666, size: 0x8, addend: 0x0, symName: __RNvNtCs5FIOKSViJ8s_4core3str16slice_error_fail, symObjAddr: 0xAC7C, symBinAddr: 0x10008EB88, symSize: 0xC }
  - { offset: 0xF5680, size: 0x8, addend: 0x0, symName: __RNvNtCs5FIOKSViJ8s_4core3str19slice_error_fail_ct, symObjAddr: 0xAC88, symBinAddr: 0x10008EB94, symSize: 0x1C }
  - { offset: 0xF577C, size: 0x8, addend: 0x0, symName: __RNvNtCs5FIOKSViJ8s_4core3str19slice_error_fail_rt, symObjAddr: 0xACA4, symBinAddr: 0x10007564C, symSize: 0x370 }
  - { offset: 0xF59CA, size: 0x8, addend: 0x0, symName: __RNvXs0_NtNtCs5FIOKSViJ8s_4core3str5lossyNtB5_5DebugNtNtB9_3fmt5Debug3fmt, symObjAddr: 0x12D2C, symBinAddr: 0x10007CD78, symSize: 0x31C }
  - { offset: 0xF5CF8, size: 0x8, addend: 0x0, symName: __RNvXs2_NtNtCs5FIOKSViJ8s_4core3str5lossyNtB5_10Utf8ChunksNtNtNtNtB9_4iter6traits8iterator8Iterator4next, symObjAddr: 0x17480, symBinAddr: 0x1000814CC, symSize: 0x1C0 }
  - { offset: 0xF5F25, size: 0x8, addend: 0x0, symName: __RNvXs4_NtNtCs5FIOKSViJ8s_4core3str5lossyNtB5_10Utf8ChunksNtNtB9_3fmt5Debug3fmt, symObjAddr: 0x186F4, symBinAddr: 0x100082740, symSize: 0xCC }
  - { offset: 0xF6032, size: 0x8, addend: 0x0, symName: __RNvXs1_NtNtCs5FIOKSViJ8s_4core3str5errorNtB5_14ParseBoolErrorNtNtB9_3fmt7Display3fmt, symObjAddr: 0x14B64, symBinAddr: 0x10007EBB0, symSize: 0x14 }
  - { offset: 0xF6067, size: 0x8, addend: 0x0, symName: __RNvXs_NtNtCs5FIOKSViJ8s_4core3str5errorNtB4_9Utf8ErrorNtNtB8_3fmt7Display3fmt, symObjAddr: 0x1B88C, symBinAddr: 0x1000858D8, symSize: 0x78 }
  - { offset: 0xF6145, size: 0x8, addend: 0x0, symName: __RNCNvNvXsa_NtCs5FIOKSViJ8s_4core4timeNtB9_8DurationNtNtBb_3fmt5Debug3fmt11fmt_decimals_0Bb_, symObjAddr: 0x2C34, symBinAddr: 0x10006D638, symSize: 0x184 }
  - { offset: 0xF6253, size: 0x8, addend: 0x0, symName: __RNvNvXsa_NtCs5FIOKSViJ8s_4core4timeNtB7_8DurationNtNtB9_3fmt5Debug3fmt11fmt_decimal, symObjAddr: 0x118FC, symBinAddr: 0x10007B948, symSize: 0x59C }
  - { offset: 0xF6564, size: 0x8, addend: 0x0, symName: __RNvXsa_NtCs5FIOKSViJ8s_4core4timeNtB5_8DurationNtNtB7_3fmt5Debug3fmt, symObjAddr: 0x1BB2C, symBinAddr: 0x100085B78, symSize: 0xE4 }
  - { offset: 0xF659B, size: 0x8, addend: 0x0, symName: __RNvXsb_NtCs5FIOKSViJ8s_4core4timeNtB5_21TryFromFloatSecsErrorNtNtB7_3fmt7Display3fmt, symObjAddr: 0x1BE64, symBinAddr: 0x100085EB0, symSize: 0x38 }
  - { offset: 0xF6AE5, size: 0x8, addend: 0x0, symName: __RNvNtNtNtCs5FIOKSViJ8s_4core7unicode12unicode_data15grapheme_extend11lookup_slow, symObjAddr: 0xE340, symBinAddr: 0x1000783E4, symSize: 0x108 }
  - { offset: 0xF6D63, size: 0x8, addend: 0x0, symName: __RNvNtNtNtCs5FIOKSViJ8s_4core7unicode12unicode_data10alphabetic11lookup_slow, symObjAddr: 0xDE20, symBinAddr: 0x100077EC4, symSize: 0x108 }
  - { offset: 0xF6F03, size: 0x8, addend: 0x0, symName: __RNvNtNtNtCs5FIOKSViJ8s_4core7unicode12unicode_data11conversions6lookup, symObjAddr: 0xDF28, symBinAddr: 0x100077FCC, symSize: 0x130 }
  - { offset: 0xF7156, size: 0x8, addend: 0x0, symName: __RNvNtNtNtCs5FIOKSViJ8s_4core7unicode12unicode_data11conversions8to_lower, symObjAddr: 0xE058, symBinAddr: 0x1000780FC, symSize: 0x84 }
  - { offset: 0xF71B5, size: 0x8, addend: 0x0, symName: __RNvNtNtNtCs5FIOKSViJ8s_4core7unicode12unicode_data11conversions8to_title, symObjAddr: 0xE0DC, symBinAddr: 0x100078180, symSize: 0xD0 }
  - { offset: 0xF721C, size: 0x8, addend: 0x0, symName: __RNvNtNtNtCs5FIOKSViJ8s_4core7unicode12unicode_data11conversions8to_upper, symObjAddr: 0xE1AC, symBinAddr: 0x100078250, symSize: 0x88 }
  - { offset: 0xF727A, size: 0x8, addend: 0x0, symName: __RNvNtNtNtCs5FIOKSViJ8s_4core7unicode12unicode_data14case_ignorable11lookup_slow, symObjAddr: 0xE234, symBinAddr: 0x1000782D8, symSize: 0x10C }
  - { offset: 0xF7408, size: 0x8, addend: 0x0, symName: __RNvNtNtNtCs5FIOKSViJ8s_4core7unicode12unicode_data1n11lookup_slow, symObjAddr: 0xE448, symBinAddr: 0x1000784EC, symSize: 0x108 }
  - { offset: 0xF758A, size: 0x8, addend: 0x0, symName: __RNvNtNtNtCs5FIOKSViJ8s_4core7unicode12unicode_data5cased11lookup_slow, symObjAddr: 0xE550, symBinAddr: 0x1000785F4, symSize: 0xF4 }
  - { offset: 0xF75A8, size: 0x8, addend: 0x0, symName: __RNvNtNtNtCs5FIOKSViJ8s_4core7unicode12unicode_data5cased11lookup_slow, symObjAddr: 0xE550, symBinAddr: 0x1000785F4, symSize: 0xF4 }
  - { offset: 0xF770C, size: 0x8, addend: 0x0, symName: __RNvNtNtNtCs5FIOKSViJ8s_4core7unicode12unicode_data9lowercase6lookup, symObjAddr: 0xE644, symBinAddr: 0x1000786E8, symSize: 0xF8 }
  - { offset: 0xF7772, size: 0x8, addend: 0x0, symName: __RNvNtNtNtCs5FIOKSViJ8s_4core7unicode12unicode_data9uppercase6lookup, symObjAddr: 0xE73C, symBinAddr: 0x1000787E0, symSize: 0xF8 }
  - { offset: 0xF77D9, size: 0x8, addend: 0x0, symName: __RNvNtNtCs5FIOKSViJ8s_4core7unicode9printable12is_printable, symObjAddr: 0xCF34, symBinAddr: 0x100077358, symSize: 0x364 }
  - { offset: 0xF8BD2, size: 0x8, addend: 0x0, symName: __RNvXs1_NtNtCs5FIOKSViJ8s_4core3mem15transmutabilityNtB5_6AssumeNtNtNtB9_3ops5arith3Sub3sub, symObjAddr: 0x146A0, symBinAddr: 0x10007E6EC, symSize: 0x2C }
  - { offset: 0xF8BF0, size: 0x8, addend: 0x0, symName: __RNvXs1_NtNtCs5FIOKSViJ8s_4core3mem15transmutabilityNtB5_6AssumeNtNtNtB9_3ops5arith3Sub3sub, symObjAddr: 0x146A0, symBinAddr: 0x10007E6EC, symSize: 0x2C }
  - { offset: 0xF8C2D, size: 0x8, addend: 0x0, symName: __RNvXs_NtNtCs5FIOKSViJ8s_4core3mem9alignmentNtB4_9AlignmentNtNtB8_3fmt5Debug3fmt, symObjAddr: 0x1B05C, symBinAddr: 0x1000850A8, symSize: 0x60 }
  - { offset: 0xF8CAF, size: 0x8, addend: 0x0, symName: __RNvMs3_NtNtCs5FIOKSViJ8s_4core3ffi5c_strNtB5_4CStr19from_bytes_with_nul, symObjAddr: 0x5E40, symBinAddr: 0x100070844, symSize: 0xF0 }
  - { offset: 0xF8CCD, size: 0x8, addend: 0x0, symName: __RNvMs3_NtNtCs5FIOKSViJ8s_4core3ffi5c_strNtB5_4CStr19from_bytes_with_nul, symObjAddr: 0x5E40, symBinAddr: 0x100070844, symSize: 0xF0 }
  - { offset: 0xF8DAE, size: 0x8, addend: 0x0, symName: __RNvMs3_NtNtCs5FIOKSViJ8s_4core3ffi5c_strNtB5_4CStr20from_bytes_until_nul, symObjAddr: 0x5F30, symBinAddr: 0x100070934, symSize: 0xDC }
  - { offset: 0xF8EB2, size: 0x8, addend: 0x0, symName: __RNvMs3_NtNtCs5FIOKSViJ8s_4core3ffi5c_strNtB5_4CStr6to_str, symObjAddr: 0x600C, symBinAddr: 0x100070A10, symSize: 0x8 }
  - { offset: 0xF8ED0, size: 0x8, addend: 0x0, symName: __RNvMs3_NtNtCs5FIOKSViJ8s_4core3ffi5c_strNtB5_4CStr6to_str, symObjAddr: 0x600C, symBinAddr: 0x100070A10, symSize: 0x8 }
  - { offset: 0xF8EF6, size: 0x8, addend: 0x0, symName: __RNvXNtNtCs5FIOKSViJ8s_4core3ffi5c_strNtB2_21FromBytesWithNulErrorNtNtB6_3fmt7Display3fmt, symObjAddr: 0x11FF8, symBinAddr: 0x10007C044, symSize: 0x64 }
  - { offset: 0xF8F42, size: 0x8, addend: 0x0, symName: __RNvXs0_NtNtCs5FIOKSViJ8s_4core3ffi5c_strNtB5_22FromBytesUntilNulErrorNtNtB9_3fmt7Display3fmt, symObjAddr: 0x12520, symBinAddr: 0x10007C56C, symSize: 0x18 }
  - { offset: 0xF8F5F, size: 0x8, addend: 0x0, symName: __RNvXs0_NtNtCs5FIOKSViJ8s_4core3ffi5c_strNtB5_22FromBytesUntilNulErrorNtNtB9_3fmt7Display3fmt, symObjAddr: 0x12520, symBinAddr: 0x10007C56C, symSize: 0x18 }
  - { offset: 0xF8F78, size: 0x8, addend: 0x0, symName: __RNvXs1_NtNtCs5FIOKSViJ8s_4core3ffi5c_strNtB5_4CStrNtNtB9_3fmt5Debug3fmt, symObjAddr: 0x14698, symBinAddr: 0x10007E6E4, symSize: 0x8 }
  - { offset: 0xF8F95, size: 0x8, addend: 0x0, symName: __RNvXs1_NtNtCs5FIOKSViJ8s_4core3ffi5c_strNtB5_4CStrNtNtB9_3fmt5Debug3fmt, symObjAddr: 0x14698, symBinAddr: 0x10007E6E4, symSize: 0x8 }
  - { offset: 0xF8FAE, size: 0x8, addend: 0x0, symName: __RNvXNtCs5FIOKSViJ8s_4core3ffiNtB2_6c_voidNtNtB4_3fmt5Debug3fmt, symObjAddr: 0x11E98, symBinAddr: 0x10007BEE4, symSize: 0x18 }
  - { offset: 0xF8FCB, size: 0x8, addend: 0x0, symName: __RNvXNtCs5FIOKSViJ8s_4core3ffiNtB2_6c_voidNtNtB4_3fmt5Debug3fmt, symObjAddr: 0x11E98, symBinAddr: 0x10007BEE4, symSize: 0x18 }
  - { offset: 0xF8FDF, size: 0x8, addend: 0x0, symName: __RNvXNtCs5FIOKSViJ8s_4core3ffiNtB2_6c_voidNtNtB4_3fmt5Debug3fmt, symObjAddr: 0x11E98, symBinAddr: 0x10007BEE4, symSize: 0x18 }
  - { offset: 0xF8FF4, size: 0x8, addend: 0x0, symName: __RNvXNtCs5FIOKSViJ8s_4core3ffiNtB2_6c_voidNtNtB4_3fmt5Debug3fmt, symObjAddr: 0x11E98, symBinAddr: 0x10007BEE4, symSize: 0x18 }
  - { offset: 0xF9025, size: 0x8, addend: 0x0, symName: __RNvXNtNtCs5FIOKSViJ8s_4core3ffi7va_listNtB2_6VaListNtNtB6_3fmt5Debug3fmt, symObjAddr: 0x1205C, symBinAddr: 0x10007C0A8, symSize: 0x274 }
  - { offset: 0xF9387, size: 0x8, addend: 0x0, symName: __RNvNtCs5FIOKSViJ8s_4core4cell22panic_already_borrowed, symObjAddr: 0xB014, symBinAddr: 0x10008EBB0, symSize: 0x30 }
  - { offset: 0xF93F4, size: 0x8, addend: 0x0, symName: __RNvNtCs5FIOKSViJ8s_4core4cell30panic_already_mutably_borrowed, symObjAddr: 0xB044, symBinAddr: 0x10008EBE0, symSize: 0x30 }
  - { offset: 0xF943F, size: 0x8, addend: 0x0, symName: __RNvNtNtCs5FIOKSViJ8s_4core4cell4lazy14panic_poisoned, symObjAddr: 0xCC64, symBinAddr: 0x10008F060, symSize: 0x20 }
  - { offset: 0xF9460, size: 0x8, addend: 0x0, symName: __RNvXsq_NtCs5FIOKSViJ8s_4core4cellNtB5_11BorrowErrorNtNtB7_3fmt7Display3fmt, symObjAddr: 0x1E048, symBinAddr: 0x100088094, symSize: 0x14 }
  - { offset: 0xF9497, size: 0x8, addend: 0x0, symName: __RNvXsr_NtCs5FIOKSViJ8s_4core4cellNtB5_14BorrowMutErrorNtNtB7_3fmt7Display3fmt, symObjAddr: 0x1E0E8, symBinAddr: 0x100088134, symSize: 0x14 }
  - { offset: 0xF94FB, size: 0x8, addend: 0x0, symName: __RNvNtCs5FIOKSViJ8s_4core4wtf816slice_error_fail, symObjAddr: 0xB074, symBinAddr: 0x10008EC10, symSize: 0x124 }
  - { offset: 0xF955C, size: 0x8, addend: 0x0, symName: __RNvNvXs1_NtCs5FIOKSViJ8s_4core4wtf8NtB7_4Wtf8NtNtB9_3fmt5Debug3fmt17write_str_escaped, symObjAddr: 0x11754, symBinAddr: 0x10007B7A0, symSize: 0x1A8 }
  - { offset: 0xF978A, size: 0x8, addend: 0x0, symName: __RNvXs1_NtCs5FIOKSViJ8s_4core4wtf8NtB5_4Wtf8NtNtB7_3fmt5Debug3fmt, symObjAddr: 0x14490, symBinAddr: 0x10007E4DC, symSize: 0x1F4 }
  - { offset: 0xF9999, size: 0x8, addend: 0x0, symName: __RNvXNvXsd_NtCs5FIOKSViJ8s_4core4wtf8NtB8_10EncodeWideNtNtBa_3fmt5Debug3fmtNtB2_8CodeUnitBP_3fmt, symObjAddr: 0x12438, symBinAddr: 0x10007C484, symSize: 0x7C }
  - { offset: 0xF9A3E, size: 0x8, addend: 0x0, symName: __RNvXsd_NtCs5FIOKSViJ8s_4core4wtf8NtB5_10EncodeWideNtNtB7_3fmt5Debug3fmt, symObjAddr: 0x1C0AC, symBinAddr: 0x1000860F8, symSize: 0x600 }
  - { offset: 0xF9E11, size: 0x8, addend: 0x0, symName: __RNvXs2_NtCs5FIOKSViJ8s_4core4wtf8NtB5_4Wtf8NtNtB7_3fmt7Display3fmt, symObjAddr: 0x16C98, symBinAddr: 0x100080CE4, symSize: 0x1F4 }
  - { offset: 0xF9FCD, size: 0x8, addend: 0x0, symName: __RNvXsa_NtCs5FIOKSViJ8s_4core4wtf8NtB5_14Wtf8CodePointsNtNtB7_3fmt5Debug3fmt, symObjAddr: 0x1BC10, symBinAddr: 0x100085C5C, symSize: 0x130 }
  - { offset: 0xFA25E, size: 0x8, addend: 0x0, symName: __RNvNtCs5FIOKSViJ8s_4core5ascii14escape_default, symObjAddr: 0xB198, symBinAddr: 0x1000759BC, symSize: 0x74 }
  - { offset: 0xFA2CC, size: 0x8, addend: 0x0, symName: __RNvXs0_NtNtCs5FIOKSViJ8s_4core5ascii10ascii_charNtB5_9AsciiCharNtNtB9_3fmt7Display3fmt, symObjAddr: 0x13060, symBinAddr: 0x10007D0AC, symSize: 0x14 }
  - { offset: 0xFA303, size: 0x8, addend: 0x0, symName: __RNvXs1_NtNtCs5FIOKSViJ8s_4core5ascii10ascii_charNtB5_9AsciiCharNtNtB9_3fmt5Debug3fmt, symObjAddr: 0x14C74, symBinAddr: 0x10007ECC0, symSize: 0x160 }
  - { offset: 0xFA39F, size: 0x8, addend: 0x0, symName: __RNvXs3_NtCs5FIOKSViJ8s_4core5asciiNtB5_13EscapeDefaultNtNtB7_3fmt7Display3fmt, symObjAddr: 0x18144, symBinAddr: 0x100082190, symSize: 0x20 }
  - { offset: 0xFA41B, size: 0x8, addend: 0x0, symName: __RNvXs4_NtCs5FIOKSViJ8s_4core5asciiNtB5_13EscapeDefaultNtNtB7_3fmt5Debug3fmt, symObjAddr: 0x184E8, symBinAddr: 0x100082534, symSize: 0x6C }
  - { offset: 0xFA4E8, size: 0x8, addend: 0x0, symName: __RNvXs_NtNtCs5FIOKSViJ8s_4core5panic10panic_infoNtB4_9PanicInfoNtNtB8_3fmt7Display3fmt, symObjAddr: 0x1B904, symBinAddr: 0x100085950, symSize: 0xD0 }
  - { offset: 0xFA635, size: 0x8, addend: 0x0, symName: __RNvXs1_NtNtCs5FIOKSViJ8s_4core5panic8locationNtB5_8LocationNtNtB9_3cmp10PartialOrd11partial_cmp, symObjAddr: 0x14DD4, symBinAddr: 0x10007EE20, symSize: 0x9C }
  - { offset: 0xFA781, size: 0x8, addend: 0x0, symName: __RNvXs3_NtNtCs5FIOKSViJ8s_4core5panic8locationNtB5_8LocationNtNtB9_3fmt5Debug3fmt, symObjAddr: 0x18240, symBinAddr: 0x10008228C, symSize: 0x10C }
  - { offset: 0xFA90A, size: 0x8, addend: 0x0, symName: __RNvXs1_NtCs5FIOKSViJ8s_4core5cloneNtNtNtB7_3ffi5c_str4CStrNtB5_13CloneToUninit15clone_to_uninit, symObjAddr: 0x14684, symBinAddr: 0x10007E6D0, symSize: 0x14 }
  - { offset: 0xFA985, size: 0x8, addend: 0x0, symName: __RNvXNtCs5FIOKSViJ8s_4core3patcNtB2_12RangePattern7sub_one, symObjAddr: 0x11EB0, symBinAddr: 0x10007BEFC, symSize: 0x40 }
  - { offset: 0xFA9E4, size: 0x8, addend: 0x0, symName: __RNvXs4_NtCs5FIOKSViJ8s_4core3pataNtB5_12RangePattern7sub_one, symObjAddr: 0x184B4, symBinAddr: 0x100082500, symSize: 0x34 }
  - { offset: 0xFAA44, size: 0x8, addend: 0x0, symName: __RNvXs5_NtCs5FIOKSViJ8s_4core3patsNtB5_12RangePattern7sub_one, symObjAddr: 0x188D8, symBinAddr: 0x100082924, symSize: 0x34 }
  - { offset: 0xFAAA4, size: 0x8, addend: 0x0, symName: __RNvXs6_NtCs5FIOKSViJ8s_4core3patlNtB5_12RangePattern7sub_one, symObjAddr: 0x18B80, symBinAddr: 0x100082BCC, symSize: 0x28 }
  - { offset: 0xFAAC1, size: 0x8, addend: 0x0, symName: __RNvXs6_NtCs5FIOKSViJ8s_4core3patlNtB5_12RangePattern7sub_one, symObjAddr: 0x18B80, symBinAddr: 0x100082BCC, symSize: 0x28 }
  - { offset: 0xFAAD5, size: 0x8, addend: 0x0, symName: __RNvXs6_NtCs5FIOKSViJ8s_4core3patlNtB5_12RangePattern7sub_one, symObjAddr: 0x18B80, symBinAddr: 0x100082BCC, symSize: 0x28 }
  - { offset: 0xFAB04, size: 0x8, addend: 0x0, symName: __RNvXs7_NtCs5FIOKSViJ8s_4core3patxNtB5_12RangePattern7sub_one, symObjAddr: 0x190A8, symBinAddr: 0x1000830F4, symSize: 0x28 }
  - { offset: 0xFAB21, size: 0x8, addend: 0x0, symName: __RNvXs7_NtCs5FIOKSViJ8s_4core3patxNtB5_12RangePattern7sub_one, symObjAddr: 0x190A8, symBinAddr: 0x1000830F4, symSize: 0x28 }
  - { offset: 0xFAB35, size: 0x8, addend: 0x0, symName: __RNvXs7_NtCs5FIOKSViJ8s_4core3patxNtB5_12RangePattern7sub_one, symObjAddr: 0x190A8, symBinAddr: 0x1000830F4, symSize: 0x28 }
  - { offset: 0xFAB64, size: 0x8, addend: 0x0, symName: __RNvXs8_NtCs5FIOKSViJ8s_4core3patnNtB5_12RangePattern7sub_one, symObjAddr: 0x19188, symBinAddr: 0x1000831D4, symSize: 0x30 }
  - { offset: 0xFAB81, size: 0x8, addend: 0x0, symName: __RNvXs8_NtCs5FIOKSViJ8s_4core3patnNtB5_12RangePattern7sub_one, symObjAddr: 0x19188, symBinAddr: 0x1000831D4, symSize: 0x30 }
  - { offset: 0xFAB95, size: 0x8, addend: 0x0, symName: __RNvXs8_NtCs5FIOKSViJ8s_4core3patnNtB5_12RangePattern7sub_one, symObjAddr: 0x19188, symBinAddr: 0x1000831D4, symSize: 0x30 }
  - { offset: 0xFABC4, size: 0x8, addend: 0x0, symName: __RNvXsa_NtCs5FIOKSViJ8s_4core3pathNtB5_12RangePattern7sub_one, symObjAddr: 0x1BB00, symBinAddr: 0x100085B4C, symSize: 0x2C }
  - { offset: 0xFABF9, size: 0x8, addend: 0x0, symName: __RNvXsb_NtCs5FIOKSViJ8s_4core3pattNtB5_12RangePattern7sub_one, symObjAddr: 0x1BE38, symBinAddr: 0x100085E84, symSize: 0x2C }
  - { offset: 0xFAC2E, size: 0x8, addend: 0x0, symName: __RNvXsc_NtCs5FIOKSViJ8s_4core3patmNtB5_12RangePattern7sub_one, symObjAddr: 0x1BF7C, symBinAddr: 0x100085FC8, symSize: 0x28 }
  - { offset: 0xFAC4B, size: 0x8, addend: 0x0, symName: __RNvXsc_NtCs5FIOKSViJ8s_4core3patmNtB5_12RangePattern7sub_one, symObjAddr: 0x1BF7C, symBinAddr: 0x100085FC8, symSize: 0x28 }
  - { offset: 0xFAC63, size: 0x8, addend: 0x0, symName: __RNvXsd_NtCs5FIOKSViJ8s_4core3patyNtB5_12RangePattern7sub_one, symObjAddr: 0x1C084, symBinAddr: 0x1000860D0, symSize: 0x28 }
  - { offset: 0xFAC80, size: 0x8, addend: 0x0, symName: __RNvXsd_NtCs5FIOKSViJ8s_4core3patyNtB5_12RangePattern7sub_one, symObjAddr: 0x1C084, symBinAddr: 0x1000860D0, symSize: 0x28 }
  - { offset: 0xFAC98, size: 0x8, addend: 0x0, symName: __RNvXse_NtCs5FIOKSViJ8s_4core3patoNtB5_12RangePattern7sub_one, symObjAddr: 0x1CA5C, symBinAddr: 0x100086AA8, symSize: 0x30 }
  - { offset: 0xFACB5, size: 0x8, addend: 0x0, symName: __RNvXse_NtCs5FIOKSViJ8s_4core3patoNtB5_12RangePattern7sub_one, symObjAddr: 0x1CA5C, symBinAddr: 0x100086AA8, symSize: 0x30 }
  - { offset: 0xFACEA, size: 0x8, addend: 0x0, symName: __RNvXNtNtCs5FIOKSViJ8s_4core2io12borrowed_bufNtB2_11BorrowedBufNtNtB6_3fmt5Debug3fmt, symObjAddr: 0x11EF0, symBinAddr: 0x10007BF3C, symSize: 0x108 }
  - { offset: 0xFADFE, size: 0x8, addend: 0x0, symName: __RNvXNtNtNtCs5FIOKSViJ8s_4core2os6darwin4objcNtB2_10objc_classNtNtB8_3fmt5Debug3fmt, symObjAddr: 0x1235C, symBinAddr: 0x10007C3A8, symSize: 0x18 }
  - { offset: 0xFAE1B, size: 0x8, addend: 0x0, symName: __RNvXNtNtNtCs5FIOKSViJ8s_4core2os6darwin4objcNtB2_10objc_classNtNtB8_3fmt5Debug3fmt, symObjAddr: 0x1235C, symBinAddr: 0x10007C3A8, symSize: 0x18 }
  - { offset: 0xFAE2F, size: 0x8, addend: 0x0, symName: __RNvXNtNtNtCs5FIOKSViJ8s_4core2os6darwin4objcNtB2_10objc_classNtNtB8_3fmt5Debug3fmt, symObjAddr: 0x1235C, symBinAddr: 0x10007C3A8, symSize: 0x18 }
  - { offset: 0xFAE44, size: 0x8, addend: 0x0, symName: __RNvXNtNtNtCs5FIOKSViJ8s_4core2os6darwin4objcNtB2_10objc_classNtNtB8_3fmt5Debug3fmt, symObjAddr: 0x1235C, symBinAddr: 0x10007C3A8, symSize: 0x18 }
  - { offset: 0xFAE5E, size: 0x8, addend: 0x0, symName: __RNvXs_NtNtNtCs5FIOKSViJ8s_4core2os6darwin4objcNtB4_13objc_selectorNtNtBa_3fmt5Debug3fmt, symObjAddr: 0x1B9D4, symBinAddr: 0x100085A20, symSize: 0x18 }
  - { offset: 0xFAE7B, size: 0x8, addend: 0x0, symName: __RNvXs_NtNtNtCs5FIOKSViJ8s_4core2os6darwin4objcNtB4_13objc_selectorNtNtBa_3fmt5Debug3fmt, symObjAddr: 0x1B9D4, symBinAddr: 0x100085A20, symSize: 0x18 }
  - { offset: 0xFAE8F, size: 0x8, addend: 0x0, symName: __RNvXs_NtNtNtCs5FIOKSViJ8s_4core2os6darwin4objcNtB4_13objc_selectorNtNtBa_3fmt5Debug3fmt, symObjAddr: 0x1B9D4, symBinAddr: 0x100085A20, symSize: 0x18 }
  - { offset: 0xFAEA4, size: 0x8, addend: 0x0, symName: __RNvXs_NtNtNtCs5FIOKSViJ8s_4core2os6darwin4objcNtB4_13objc_selectorNtNtBa_3fmt5Debug3fmt, symObjAddr: 0x1B9D4, symBinAddr: 0x100085A20, symSize: 0x18 }
  - { offset: 0xFAEC6, size: 0x8, addend: 0x0, symName: __RNvXs0_NtCs5FIOKSViJ8s_4core3anyDNtB5_3AnyNtNtB7_6marker4SendEL_NtNtB7_3fmt5Debug3fmt, symObjAddr: 0x124B4, symBinAddr: 0x10007C500, symSize: 0x6C }
  - { offset: 0xFAF6A, size: 0x8, addend: 0x0, symName: __RNvXsa_NtCs5FIOKSViJ8s_4core3anyNtB5_6TypeIdNtNtB7_3fmt5Debug3fmt, symObjAddr: 0x1BABC, symBinAddr: 0x100085B08, symSize: 0x44 }
  - { offset: 0xFAFAC, size: 0x8, addend: 0x0, symName: __RNvXs0_NtNtCs5FIOKSViJ8s_4core5alloc6layoutNtB5_11LayoutErrorNtNtB9_3fmt7Display3fmt, symObjAddr: 0x13048, symBinAddr: 0x10007D094, symSize: 0x18 }
  - { offset: 0xFAFCA, size: 0x8, addend: 0x0, symName: __RNvXs0_NtNtCs5FIOKSViJ8s_4core5alloc6layoutNtB5_11LayoutErrorNtNtB9_3fmt7Display3fmt, symObjAddr: 0x13048, symBinAddr: 0x10007D094, symSize: 0x18 }
  - { offset: 0xFAFE4, size: 0x8, addend: 0x0, symName: __RNvXs_NtCs5FIOKSViJ8s_4core5allocNtB4_10AllocErrorNtNtB6_3fmt7Display3fmt, symObjAddr: 0x1AFCC, symBinAddr: 0x100085018, symSize: 0x18 }
  - { offset: 0xFB001, size: 0x8, addend: 0x0, symName: __RNvXs_NtCs5FIOKSViJ8s_4core5allocNtB4_10AllocErrorNtNtB6_3fmt7Display3fmt, symObjAddr: 0x1AFCC, symBinAddr: 0x100085018, symSize: 0x18 }
  - { offset: 0xFB0D3, size: 0x8, addend: 0x0, symName: __RNvXs11_NtNtCs5FIOKSViJ8s_4core4sync6atomicINtB6_6AtomiclENtNtBa_3fmt5Debug3fmt, symObjAddr: 0x13358, symBinAddr: 0x10007D3A4, symSize: 0xC8 }
  - { offset: 0xFB1D3, size: 0x8, addend: 0x0, symName: __RNvXs15_NtNtCs5FIOKSViJ8s_4core4sync6atomicINtB6_6AtomicmENtNtBa_3fmt5Debug3fmt, symObjAddr: 0x13470, symBinAddr: 0x10007D4BC, symSize: 0x1C8 }
  - { offset: 0xFB38B, size: 0x8, addend: 0x0, symName: __RNvXs19_NtNtCs5FIOKSViJ8s_4core4sync6atomicINtB6_6AtomicxENtNtBa_3fmt5Debug3fmt, symObjAddr: 0x13848, symBinAddr: 0x10007D894, symSize: 0xBC }
  - { offset: 0xFB48B, size: 0x8, addend: 0x0, symName: __RNvXs1d_NtNtCs5FIOKSViJ8s_4core4sync6atomicINtB6_6AtomicyENtNtBa_3fmt5Debug3fmt, symObjAddr: 0x14F70, symBinAddr: 0x10007EFBC, symSize: 0x8 }
  - { offset: 0xFB4A9, size: 0x8, addend: 0x0, symName: __RNvXs1d_NtNtCs5FIOKSViJ8s_4core4sync6atomicINtB6_6AtomicyENtNtBa_3fmt5Debug3fmt, symObjAddr: 0x14F70, symBinAddr: 0x10007EFBC, symSize: 0x8 }
  - { offset: 0xFB4BE, size: 0x8, addend: 0x0, symName: __RNvXs1d_NtNtCs5FIOKSViJ8s_4core4sync6atomicINtB6_6AtomicyENtNtBa_3fmt5Debug3fmt, symObjAddr: 0x14F70, symBinAddr: 0x10007EFBC, symSize: 0x8 }
  - { offset: 0xFB4E5, size: 0x8, addend: 0x0, symName: __RNvXs1h_NtNtCs5FIOKSViJ8s_4core4sync6atomicINtB6_6AtomicnENtNtBa_3fmt5Debug3fmt, symObjAddr: 0x15308, symBinAddr: 0x10007F354, symSize: 0xC }
  - { offset: 0xFB53F, size: 0x8, addend: 0x0, symName: __RNvXs1l_NtNtCs5FIOKSViJ8s_4core4sync6atomicINtB6_6AtomicoENtNtBa_3fmt5Debug3fmt, symObjAddr: 0x15550, symBinAddr: 0x10007F59C, symSize: 0xC }
  - { offset: 0xFB599, size: 0x8, addend: 0x0, symName: __RNvXs1t_NtNtCs5FIOKSViJ8s_4core4sync6atomicINtB6_6AtomicjENtNtBa_3fmt5Debug3fmt, symObjAddr: 0x1577C, symBinAddr: 0x10007F7C8, symSize: 0x28 }
  - { offset: 0xFB5F3, size: 0x8, addend: 0x0, symName: __RNvXs6_NtNtCs5FIOKSViJ8s_4core4sync6atomicINtB5_6AtomicbENtNtB9_3fmt5Debug3fmt, symObjAddr: 0x18FF4, symBinAddr: 0x100083040, symSize: 0x34 }
  - { offset: 0xFB6A3, size: 0x8, addend: 0x0, symName: __RNvXsL_NtNtCs5FIOKSViJ8s_4core4sync6atomicINtB5_6AtomicaENtNtB9_3fmt5Debug3fmt, symObjAddr: 0x1A090, symBinAddr: 0x1000840DC, symSize: 0x8 }
  - { offset: 0xFB6C1, size: 0x8, addend: 0x0, symName: __RNvXsL_NtNtCs5FIOKSViJ8s_4core4sync6atomicINtB5_6AtomicaENtNtB9_3fmt5Debug3fmt, symObjAddr: 0x1A090, symBinAddr: 0x1000840DC, symSize: 0x8 }
  - { offset: 0xFB6D6, size: 0x8, addend: 0x0, symName: __RNvXsL_NtNtCs5FIOKSViJ8s_4core4sync6atomicINtB5_6AtomicaENtNtB9_3fmt5Debug3fmt, symObjAddr: 0x1A090, symBinAddr: 0x1000840DC, symSize: 0x8 }
  - { offset: 0xFB6F0, size: 0x8, addend: 0x0, symName: __RNvXsP_NtNtCs5FIOKSViJ8s_4core4sync6atomicINtB5_6AtomichENtNtB9_3fmt5Debug3fmt, symObjAddr: 0x1A520, symBinAddr: 0x10008456C, symSize: 0x8 }
  - { offset: 0xFB70E, size: 0x8, addend: 0x0, symName: __RNvXsP_NtNtCs5FIOKSViJ8s_4core4sync6atomicINtB5_6AtomichENtNtB9_3fmt5Debug3fmt, symObjAddr: 0x1A520, symBinAddr: 0x10008456C, symSize: 0x8 }
  - { offset: 0xFB723, size: 0x8, addend: 0x0, symName: __RNvXsP_NtNtCs5FIOKSViJ8s_4core4sync6atomicINtB5_6AtomichENtNtB9_3fmt5Debug3fmt, symObjAddr: 0x1A520, symBinAddr: 0x10008456C, symSize: 0x8 }
  - { offset: 0xFB74A, size: 0x8, addend: 0x0, symName: __RNvXsT_NtNtCs5FIOKSViJ8s_4core4sync6atomicINtB5_6AtomicsENtNtB9_3fmt5Debug3fmt, symObjAddr: 0x1A644, symBinAddr: 0x100084690, symSize: 0x8 }
  - { offset: 0xFB768, size: 0x8, addend: 0x0, symName: __RNvXsT_NtNtCs5FIOKSViJ8s_4core4sync6atomicINtB5_6AtomicsENtNtB9_3fmt5Debug3fmt, symObjAddr: 0x1A644, symBinAddr: 0x100084690, symSize: 0x8 }
  - { offset: 0xFB77D, size: 0x8, addend: 0x0, symName: __RNvXsT_NtNtCs5FIOKSViJ8s_4core4sync6atomicINtB5_6AtomicsENtNtB9_3fmt5Debug3fmt, symObjAddr: 0x1A644, symBinAddr: 0x100084690, symSize: 0x8 }
  - { offset: 0xFB7A4, size: 0x8, addend: 0x0, symName: __RNvXsX_NtNtCs5FIOKSViJ8s_4core4sync6atomicINtB5_6AtomictENtNtB9_3fmt5Debug3fmt, symObjAddr: 0x1ACF8, symBinAddr: 0x100084D44, symSize: 0x8 }
  - { offset: 0xFB7C2, size: 0x8, addend: 0x0, symName: __RNvXsX_NtNtCs5FIOKSViJ8s_4core4sync6atomicINtB5_6AtomictENtNtB9_3fmt5Debug3fmt, symObjAddr: 0x1ACF8, symBinAddr: 0x100084D44, symSize: 0x8 }
  - { offset: 0xFB7D7, size: 0x8, addend: 0x0, symName: __RNvXsX_NtNtCs5FIOKSViJ8s_4core4sync6atomicINtB5_6AtomictENtNtB9_3fmt5Debug3fmt, symObjAddr: 0x1ACF8, symBinAddr: 0x100084D44, symSize: 0x8 }
  - { offset: 0xFB7FD, size: 0x8, addend: 0x0, symName: __RNvXs1_NtNtCs5FIOKSViJ8s_4core4task4wakeNtB5_7ContextNtNtB9_3fmt5Debug3fmt, symObjAddr: 0x14BB0, symBinAddr: 0x10007EBFC, symSize: 0xC4 }
  - { offset: 0xFB8EF, size: 0x8, addend: 0x0, symName: __RNvXs9_NtNtCs5FIOKSViJ8s_4core4task4wakeNtB5_5WakerNtNtB9_3fmt5Debug3fmt, symObjAddr: 0x1971C, symBinAddr: 0x100083768, symSize: 0xEC }
  - { offset: 0xFB9E1, size: 0x8, addend: 0x0, symName: __RNvXsf_NtNtCs5FIOKSViJ8s_4core4task4wakeNtB5_10LocalWakerNtNtB9_3fmt5Debug3fmt, symObjAddr: 0x1CDA4, symBinAddr: 0x100086DF0, symSize: 0xEC }
  - { offset: 0xFBB2A, size: 0x8, addend: 0x0, symName: __RNvXs1_NtNtCs5FIOKSViJ8s_4core6marker8varianceNtB5_24PhantomCovariantLifetimeNtNtB9_3fmt5Debug3fmt, symObjAddr: 0x14E70, symBinAddr: 0x10007EEBC, symSize: 0x18 }
  - { offset: 0xFBB47, size: 0x8, addend: 0x0, symName: __RNvXs1_NtNtCs5FIOKSViJ8s_4core6marker8varianceNtB5_24PhantomCovariantLifetimeNtNtB9_3fmt5Debug3fmt, symObjAddr: 0x14E70, symBinAddr: 0x10007EEBC, symSize: 0x18 }
  - { offset: 0xFBB60, size: 0x8, addend: 0x0, symName: __RNvXs5_NtNtCs5FIOKSViJ8s_4core6marker8varianceNtB5_28PhantomContravariantLifetimeNtNtB9_3fmt5Debug3fmt, symObjAddr: 0x189D0, symBinAddr: 0x100082A1C, symSize: 0x18 }
  - { offset: 0xFBB7D, size: 0x8, addend: 0x0, symName: __RNvXs5_NtNtCs5FIOKSViJ8s_4core6marker8varianceNtB5_28PhantomContravariantLifetimeNtNtB9_3fmt5Debug3fmt, symObjAddr: 0x189D0, symBinAddr: 0x100082A1C, symSize: 0x18 }
  - { offset: 0xFBB96, size: 0x8, addend: 0x0, symName: __RNvXs9_NtNtCs5FIOKSViJ8s_4core6marker8varianceNtB5_24PhantomInvariantLifetimeNtNtB9_3fmt5Debug3fmt, symObjAddr: 0x19808, symBinAddr: 0x100083854, symSize: 0x18 }
  - { offset: 0xFBBB3, size: 0x8, addend: 0x0, symName: __RNvXs9_NtNtCs5FIOKSViJ8s_4core6marker8varianceNtB5_24PhantomInvariantLifetimeNtNtB9_3fmt5Debug3fmt, symObjAddr: 0x19808, symBinAddr: 0x100083854, symSize: 0x18 }
  - { offset: 0xFBBD3, size: 0x8, addend: 0x0, symName: __RNvXs2_NtCs5FIOKSViJ8s_4core4bstrNtB5_7ByteStrNtNtB7_3fmt5Debug3fmt, symObjAddr: 0x16A00, symBinAddr: 0x100080A4C, symSize: 0x278 }
  - { offset: 0xFBE82, size: 0x8, addend: 0x0, symName: __RNvXs3_NtCs5FIOKSViJ8s_4core4bstrNtB5_7ByteStrNtNtB7_3fmt7Display3fmt, symObjAddr: 0x17C5C, symBinAddr: 0x100081CA8, symSize: 0x4E8 }
  - { offset: 0xFC455, size: 0x8, addend: 0x0, symName: __RNvXs4_NtCs5FIOKSViJ8s_4core5errorNtB5_7RequestNtNtB7_3fmt5Debug3fmt, symObjAddr: 0x18554, symBinAddr: 0x1000825A0, symSize: 0x6C }
  - { offset: 0xFC4FC, size: 0x8, addend: 0x0, symName: __RNvXs8_NtCs5FIOKSViJ8s_4core5errorNtB5_6SourceNtNtNtNtB7_4iter6traits8iterator8Iterator4next, symObjAddr: 0x191B8, symBinAddr: 0x100083204, symSize: 0x4C }
  - { offset: 0xFC546, size: 0x8, addend: 0x0, symName: _OUTLINED_FUNCTION_0, symObjAddr: 0x1EA7C, symBinAddr: 0x100088AC8, symSize: 0x10 }
  - { offset: 0xFC55E, size: 0x8, addend: 0x0, symName: _OUTLINED_FUNCTION_1, symObjAddr: 0x1EA8C, symBinAddr: 0x100088AD8, symSize: 0x8 }
  - { offset: 0xFC593, size: 0x8, addend: 0x0, symName: __RNvNtNtCs1IDhu2xDf02_17compiler_builtins3int19specialized_div_rem12u128_div_rem, symObjAddr: 0x0, symBinAddr: 0x100088AE0, symSize: 0x30C }
  - { offset: 0xFC63E, size: 0x8, addend: 0x0, symName: __RNvNtNtCs1IDhu2xDf02_17compiler_builtins3int19specialized_div_rem12u128_div_rem, symObjAddr: 0x0, symBinAddr: 0x100088AE0, symSize: 0x30C }
  - { offset: 0xFC65B, size: 0x8, addend: 0x0, symName: __RNvNtNtCs1IDhu2xDf02_17compiler_builtins3int19specialized_div_rem12u128_div_rem, symObjAddr: 0x0, symBinAddr: 0x100088AE0, symSize: 0x30C }
  - { offset: 0xFC932, size: 0x8, addend: 0x0, symName: ___udivti3, symObjAddr: 0x0, symBinAddr: 0x100088DEC, symSize: 0x28 }
  - { offset: 0xFC954, size: 0x8, addend: 0x0, symName: ___udivti3, symObjAddr: 0x0, symBinAddr: 0x100088DEC, symSize: 0x28 }
...
